;/////////////////////////////////////////////////////////////////////////////////
;// Code Generator: BoostC Compiler - http://www.sourceboost.com
;// Version       : 7.20
;// License Type  : Pro License
;// Limitations   : PIC18 max code size:Unlimited, max RAM banks:Unlimited
;/////////////////////////////////////////////////////////////////////////////////

	ORG 0x00000000
0000  EF38F009  	GOTO	_startup
	ORG 0x00000008
0008  EF3CF00A  	GOTO	interrupt
	ORG 0x0000000C
000C            delay_ms_00000
000C            ; { delay_ms ; function begin
000C  53FA      	MOVF delay_ms_00000_arg_del, F, 1
000E  0000      	NOP
0010  E101      	BNZ	label1
0012  0012      	RETURN
0014            label1
0014  0EF9      	MOVLW 0xF9
0016            label2
0016  0000      	NOP
0018  0000      	NOP
001A  0000      	NOP
001C  0000      	NOP
001E  0000      	NOP
0020  0000      	NOP
0022  0000      	NOP
0024  0000      	NOP
0026  0FFF      	ADDLW 0xFF
0028  A4D8      	BTFSS STATUS,Z
002A  D7F5      	BRA	label2
002C  0000      	NOP
002E  0000      	NOP
0030  0000      	NOP
0032  0000      	NOP
0034  0000      	NOP
0036  0000      	NOP
0038  0000      	NOP
003A  0000      	NOP
003C  0000      	NOP
003E  2FFA      	DECFSZ delay_ms_00000_arg_del, F, 1
0040  D7E9      	BRA	label1
0042  0012      	RETURN
0044            ; } delay_ms function end

	ORG 0x00000044
0044            usb_send_d_00061
0044            ; { usb_send_data_chunk ; function begin
0044  0102      	MOVLB 0x02
0046  6B3A      	CLRF usb_send_d_00061_1_count, 1
0048            label3
0048  0101      	MOVLB 0x01
004A  51E8      	MOVF gbl_delivery_buffer_size, W, 1
004C  0102      	MOVLB 0x02
004E  613A      	CPFSLT usb_send_d_00061_1_count, 1
0050  D025      	BRA	label6
0052  0101      	MOVLB 0x01
0054  51CE      	MOVF gbl_delivery_bytes_to_send+D'1', W, 1
0056  5DD2      	SUBWF gbl_delivery_bytes_sent+D'1', W, 1
0058  E102      	BNZ	label4
005A  51CD      	MOVF gbl_delivery_bytes_to_send, W, 1
005C  5DD1      	SUBWF gbl_delivery_bytes_sent, W, 1
005E            label4
005E  E21E      	BC	label6
0060  51D0      	MOVF gbl_delivery_bytes_max_send+D'1', W, 1
0062  5DD2      	SUBWF gbl_delivery_bytes_sent+D'1', W, 1
0064  E102      	BNZ	label5
0066  51CF      	MOVF gbl_delivery_bytes_max_send, W, 1
0068  5DD1      	SUBWF gbl_delivery_bytes_sent, W, 1
006A            label5
006A  E218      	BC	label6
006C  51D4      	MOVF gbl_delivery_ptr+D'1', W, 1
006E  6EEA      	MOVWF FSR0H
0070  51D3      	MOVF gbl_delivery_ptr, W, 1
0072  6EE9      	MOVWF FSR0L
0074  50EF      	MOVF INDF0, W
0076  0102      	MOVLB 0x02
0078  6F3B      	MOVWF CompTempVar2705, 1
007A  0101      	MOVLB 0x01
007C  51D6      	MOVF gbl_delivery_buffer+D'1', W, 1
007E  6EEA      	MOVWF FSR0H
0080  51D5      	MOVF gbl_delivery_buffer, W, 1
0082  0102      	MOVLB 0x02
0084  253A      	ADDWF usb_send_d_00061_1_count, W, 1
0086  6EE9      	MOVWF FSR0L
0088  513B      	MOVF CompTempVar2705, W, 1
008A  6EEF      	MOVWF INDF0
008C  0101      	MOVLB 0x01
008E  4BD3      	INFSNZ gbl_delivery_ptr, F, 1
0090  2BD4      	INCF gbl_delivery_ptr+D'1', F, 1
0092  4BD1      	INFSNZ gbl_delivery_bytes_sent, F, 1
0094  2BD2      	INCF gbl_delivery_bytes_sent+D'1', F, 1
0096  0102      	MOVLB 0x02
0098  2B3A      	INCF usb_send_d_00061_1_count, F, 1
009A  D7D6      	BRA	label3
009C            label6
009C  0101      	MOVLB 0x01
009E  51E8      	MOVF gbl_delivery_buffer_size, W, 1
00A0  0102      	MOVLB 0x02
00A2  613A      	CPFSLT usb_send_d_00061_1_count, 1
00A4  D010      	BRA	label9
00A6  0101      	MOVLB 0x01
00A8  51CF      	MOVF gbl_delivery_bytes_max_send, W, 1
00AA  63D1      	CPFSEQ gbl_delivery_bytes_sent, 1
00AC  D004      	BRA	label7
00AE  51D0      	MOVF gbl_delivery_bytes_max_send+D'1', W, 1
00B0  63D2      	CPFSEQ gbl_delivery_bytes_sent+D'1', 1
00B2  D001      	BRA	label7
00B4  D006      	BRA	label8
00B6            label7
00B6  51CD      	MOVF gbl_delivery_bytes_to_send, W, 1
00B8  63D1      	CPFSEQ gbl_delivery_bytes_sent, 1
00BA  D005      	BRA	label9
00BC  51CE      	MOVF gbl_delivery_bytes_to_send+D'1', W, 1
00BE  63D2      	CPFSEQ gbl_delivery_bytes_sent+D'1', 1
00C0  D002      	BRA	label9
00C2            label8
00C2  0E05      	MOVLW 0x05
00C4  6FE2      	MOVWF gbl_control_mode, 1
00C6            label9
00C6  0102      	MOVLB 0x02
00C8  513A      	MOVF usb_send_d_00061_1_count, W, 1
00CA  6F05      	MOVWF gbl_bd0in+D'1', 1
00CC  0E02      	MOVLW HIGH(gbl_buffer_0_in+D'0')
00CE  6F07      	MOVWF gbl_bd0in+D'3', 1
00D0  0E88      	MOVLW LOW(gbl_buffer_0_in+D'0')
00D2  6F06      	MOVWF gbl_bd0in+D'2', 1
00D4  AD04      	BTFSS gbl_bd0in,6, 1
00D6  D002      	BRA	label10
00D8  9D04      	BCF gbl_bd0in,6, 1
00DA  D001      	BRA	label11
00DC            label10
00DC  8D04      	BSF gbl_bd0in,6, 1
00DE            label11
00DE  9B04      	BCF gbl_bd0in,5, 1
00E0  9904      	BCF gbl_bd0in,4, 1
00E2  8704      	BSF gbl_bd0in,3, 1
00E4  9504      	BCF gbl_bd0in,2, 1
00E6  9304      	BCF gbl_bd0in,1, 1
00E8  9104      	BCF gbl_bd0in,0, 1
00EA  8F04      	BSF gbl_bd0in,7, 1
00EC  0012      	RETURN
00EE            ; } usb_send_data_chunk function end

	ORG 0x000000EE
00EE            usb_stall__00062
00EE            ; { usb_stall_ep0 ; function begin
00EE  0102      	MOVLB 0x02
00F0  8504      	BSF gbl_bd0in,2, 1
00F2  8F04      	BSF gbl_bd0in,7, 1
00F4  8500      	BSF gbl_bd0out,2, 1
00F6  8F00      	BSF gbl_bd0out,7, 1
00F8  0012      	RETURN
00FA            ; } usb_stall_ep0 function end

	ORG 0x000000FA
00FA            usb_send_o_00073
00FA            ; { usb_send_one_byte ; function begin
00FA  6F39      	MOVWF usb_send_o_00073_1___retpointvar, 1
00FC  0E08      	MOVLW 0x08
00FE  0101      	MOVLB 0x01
0100  6FE8      	MOVWF gbl_delivery_buffer_size, 1
0102  6BD1      	CLRF gbl_delivery_bytes_sent, 1
0104  6BD2      	CLRF gbl_delivery_bytes_sent+D'1', 1
0106  0E01      	MOVLW 0x01
0108  6FCD      	MOVWF gbl_delivery_bytes_to_send, 1
010A  6BCE      	CLRF gbl_delivery_bytes_to_send+D'1', 1
010C  6BCF      	CLRF gbl_delivery_bytes_max_send, 1
010E  6BD0      	CLRF gbl_delivery_bytes_max_send+D'1', 1
0110  0102      	MOVLB 0x02
0112  5138      	MOVF usb_send_o_00073_arg_data, W, 1
0114  0101      	MOVLB 0x01
0116  6FEA      	MOVWF gbl_buffer_byte, 1
0118  0E01      	MOVLW HIGH(gbl_buffer_byte+D'0')
011A  6FD4      	MOVWF gbl_delivery_ptr+D'1', 1
011C  0EEA      	MOVLW LOW(gbl_buffer_byte+D'0')
011E  6FD3      	MOVWF gbl_delivery_ptr, 1
0120  0E02      	MOVLW HIGH(gbl_buffer_0_in+D'0')
0122  6FD6      	MOVWF gbl_delivery_buffer+D'1', 1
0124  0E88      	MOVLW LOW(gbl_buffer_0_in+D'0')
0126  6FD5      	MOVWF gbl_delivery_buffer, 1
0128  0102      	MOVLB 0x02
012A  9D04      	BCF gbl_bd0in,6, 1
012C  EC22F000  	CALL usb_send_d_00061
0130  D000      	BRA	label12
0132            ; AVOID CODE PAGE BOUNDARY BEGIN - page size:256 words
	ORG	0x0132
0132            label12
0132  0E01      	MOVLW	HIGH( label13 )
0134  6EFA      	MOVWF PCLATH
0136  5139      	MOVF usb_send_o_00073_1___retpointvar, W, 1
0138  26F9      	ADDWF PCL, F
013A            ; RET_TABLE_BEGIN
013A            label13
013A            ; RET_TABLE_ENTRY
013A  EF25F003  	GOTO	label58
013E            ; RET_TABLE_ENTRY
013E  EF2AF003  	GOTO	label60
0142            ; RET_TABLE_END
0142            ; AVOID CODE BOUNDARY END 
0142            ; } usb_send_one_byte function end

	ORG 0x00000142
0142            usb_send_e_00060
0142            ; { usb_send_empty_data_pkt ; function begin
0142  0102      	MOVLB 0x02
0144  6F38      	MOVWF usb_send_e_00060_1___retpointvar, 1
0146  0E08      	MOVLW 0x08
0148  0101      	MOVLB 0x01
014A  6FE8      	MOVWF gbl_delivery_buffer_size, 1
014C  0E02      	MOVLW HIGH(gbl_buffer_0_in+D'0')
014E  6FD6      	MOVWF gbl_delivery_buffer+D'1', 1
0150  0E88      	MOVLW LOW(gbl_buffer_0_in+D'0')
0152  6FD5      	MOVWF gbl_delivery_buffer, 1
0154  6BD1      	CLRF gbl_delivery_bytes_sent, 1
0156  6BD2      	CLRF gbl_delivery_bytes_sent+D'1', 1
0158  6BCD      	CLRF gbl_delivery_bytes_to_send, 1
015A  6BCE      	CLRF gbl_delivery_bytes_to_send+D'1', 1
015C  6BCF      	CLRF gbl_delivery_bytes_max_send, 1
015E  6BD0      	CLRF gbl_delivery_bytes_max_send+D'1', 1
0160  6BD3      	CLRF gbl_delivery_ptr, 1
0162  6BD4      	CLRF gbl_delivery_ptr+D'1', 1
0164  0102      	MOVLB 0x02
0166  9D04      	BCF gbl_bd0in,6, 1
0168  EC22F000  	CALL usb_send_d_00061
016C  D000      	BRA	label14
016E            ; AVOID CODE PAGE BOUNDARY BEGIN - page size:256 words
	ORG	0x016E
016E            label14
016E  0E01      	MOVLW	HIGH( label15 )
0170  6EFA      	MOVWF PCLATH
0172  5138      	MOVF usb_send_e_00060_1___retpointvar, W, 1
0174  26F9      	ADDWF PCL, F
0176            ; RET_TABLE_BEGIN
0176            label15
0176            ; RET_TABLE_ENTRY
0176  EF6DF003  	GOTO	label69
017A            ; RET_TABLE_ENTRY
017A  EF54F003  	GOTO	label68
017E            ; RET_TABLE_ENTRY
017E  EF0AF003  	GOTO	label54
0182            ; RET_TABLE_ENTRY
0182  EF14F003  	GOTO	label56
0186            ; RET_TABLE_END
0186            ; AVOID CODE BOUNDARY END 
0186            ; } usb_send_empty_data_pkt function end

	ORG 0x00000186
0186            usb_send_d_0005F
0186            ; { usb_send_data ; function begin
0186  0101      	MOVLB 0x01
0188  EE01F067  	LFSR 0x00, gbl_ep_in_buffer_location
018C  50E9      	MOVF FSR0L, W
018E  0102      	MOVLB 0x02
0190  5136      	MOVF usb_send_d_0005F_arg_ep, W, 1
0192  6F44      	MOVWF CompTempVar2683, 1
0194  90D8      	BCF STATUS,C
0196  3544      	RLCF CompTempVar2683, W, 1
0198  26E9      	ADDWF FSR0L, F
019A  50EE      	MOVF POSTINC0, W
019C  6F42      	MOVWF usb_send_d_0005F_1_buffer, 1
019E  50EF      	MOVF INDF0, W
01A0  6F43      	MOVWF usb_send_d_0005F_1_buffer+D'1', 1
01A2  5336      	MOVF usb_send_d_0005F_arg_ep, F, 1
01A4  E00A      	BZ	label17
01A6  0536      	DECF usb_send_d_0005F_arg_ep, W, 1
01A8  E015      	BZ	label18
01AA  0E02      	MOVLW 0x02
01AC  6336      	CPFSEQ usb_send_d_0005F_arg_ep, 1
01AE  D001      	BRA	label16
01B0  D024      	BRA	label19
01B2            label16
01B2  0E03      	MOVLW 0x03
01B4  6336      	CPFSEQ usb_send_d_0005F_arg_ep, 1
01B6  D046      	BRA	label21
01B8  D033      	BRA	label20
01BA            label17
01BA  0E02      	MOVLW HIGH(gbl_bd0in+D'0')
01BC  6F3D      	MOVWF usb_send_d_0005F_1_bdstat+D'1', 1
01BE  0E04      	MOVLW LOW(gbl_bd0in+D'0')
01C0  6F3C      	MOVWF usb_send_d_0005F_1_bdstat, 1
01C2  0E02      	MOVLW HIGH(gbl_bd0in+D'1')
01C4  6F3F      	MOVWF usb_send_d_0005F_1_bdcount+D'1', 1
01C6  0E05      	MOVLW LOW(gbl_bd0in+D'1')
01C8  6F3E      	MOVWF usb_send_d_0005F_1_bdcount, 1
01CA  0E02      	MOVLW HIGH(gbl_bd0in+D'2')
01CC  6F41      	MOVWF usb_send_d_0005F_1_bdaddr+D'1', 1
01CE  0E06      	MOVLW LOW(gbl_bd0in+D'2')
01D0  6F40      	MOVWF usb_send_d_0005F_1_bdaddr, 1
01D2  D038      	BRA	label21
01D4            label18
01D4  0E02      	MOVLW HIGH(gbl_bd1in+D'0')
01D6  6F44      	MOVWF CompTempVar2687, 1
01D8  0E0C      	MOVLW LOW(gbl_bd1in+D'0')
01DA  6F3C      	MOVWF usb_send_d_0005F_1_bdstat, 1
01DC  5144      	MOVF CompTempVar2687, W, 1
01DE  6F3D      	MOVWF usb_send_d_0005F_1_bdstat+D'1', 1
01E0  0E02      	MOVLW HIGH(gbl_bd1in+D'1')
01E2  6F44      	MOVWF CompTempVar2688, 1
01E4  0E0D      	MOVLW LOW(gbl_bd1in+D'1')
01E6  6F3E      	MOVWF usb_send_d_0005F_1_bdcount, 1
01E8  5144      	MOVF CompTempVar2688, W, 1
01EA  6F3F      	MOVWF usb_send_d_0005F_1_bdcount+D'1', 1
01EC  0E02      	MOVLW HIGH(gbl_bd1in+D'2')
01EE  6F44      	MOVWF CompTempVar2689, 1
01F0  0E0E      	MOVLW LOW(gbl_bd1in+D'2')
01F2  6F40      	MOVWF usb_send_d_0005F_1_bdaddr, 1
01F4  5144      	MOVF CompTempVar2689, W, 1
01F6  6F41      	MOVWF usb_send_d_0005F_1_bdaddr+D'1', 1
01F8  D025      	BRA	label21
01FA            label19
01FA  0E02      	MOVLW HIGH(gbl_bd2in+D'0')
01FC  6F44      	MOVWF CompTempVar2690, 1
01FE  0E14      	MOVLW LOW(gbl_bd2in+D'0')
0200  6F3C      	MOVWF usb_send_d_0005F_1_bdstat, 1
0202  5144      	MOVF CompTempVar2690, W, 1
0204  6F3D      	MOVWF usb_send_d_0005F_1_bdstat+D'1', 1
0206  0E02      	MOVLW HIGH(gbl_bd2in+D'1')
0208  6F44      	MOVWF CompTempVar2691, 1
020A  0E15      	MOVLW LOW(gbl_bd2in+D'1')
020C  6F3E      	MOVWF usb_send_d_0005F_1_bdcount, 1
020E  5144      	MOVF CompTempVar2691, W, 1
0210  6F3F      	MOVWF usb_send_d_0005F_1_bdcount+D'1', 1
0212  0E02      	MOVLW HIGH(gbl_bd2in+D'2')
0214  6F44      	MOVWF CompTempVar2692, 1
0216  0E16      	MOVLW LOW(gbl_bd2in+D'2')
0218  6F40      	MOVWF usb_send_d_0005F_1_bdaddr, 1
021A  5144      	MOVF CompTempVar2692, W, 1
021C  6F41      	MOVWF usb_send_d_0005F_1_bdaddr+D'1', 1
021E  D012      	BRA	label21
0220            label20
0220  0E02      	MOVLW HIGH(gbl_bd3in+D'0')
0222  6F44      	MOVWF CompTempVar2693, 1
0224  0E1C      	MOVLW LOW(gbl_bd3in+D'0')
0226  6F3C      	MOVWF usb_send_d_0005F_1_bdstat, 1
0228  5144      	MOVF CompTempVar2693, W, 1
022A  6F3D      	MOVWF usb_send_d_0005F_1_bdstat+D'1', 1
022C  0E02      	MOVLW HIGH(gbl_bd3in+D'1')
022E  6F44      	MOVWF CompTempVar2694, 1
0230  0E1D      	MOVLW LOW(gbl_bd3in+D'1')
0232  6F3E      	MOVWF usb_send_d_0005F_1_bdcount, 1
0234  5144      	MOVF CompTempVar2694, W, 1
0236  6F3F      	MOVWF usb_send_d_0005F_1_bdcount+D'1', 1
0238  0E02      	MOVLW HIGH(gbl_bd3in+D'2')
023A  6F44      	MOVWF CompTempVar2695, 1
023C  0E1E      	MOVLW LOW(gbl_bd3in+D'2')
023E  6F40      	MOVWF usb_send_d_0005F_1_bdaddr, 1
0240  5144      	MOVF CompTempVar2695, W, 1
0242  6F41      	MOVWF usb_send_d_0005F_1_bdaddr+D'1', 1
0244            label21
0244  513D      	MOVF usb_send_d_0005F_1_bdstat+D'1', W, 1
0246  6EEA      	MOVWF FSR0H
0248  513C      	MOVF usb_send_d_0005F_1_bdstat, W, 1
024A  6EE9      	MOVWF FSR0L
024C  BEEF      	BTFSC INDF0,7
024E  0012      	RETURN
0250  6B3B      	CLRF usb_send_d_0005F_1_count, 1
0252            label22
0252  5139      	MOVF usb_send_d_0005F_arg_send_count, W, 1
0254  613B      	CPFSLT usb_send_d_0005F_1_count, 1
0256  D013      	BRA	label23
0258  5138      	MOVF usb_send_d_0005F_arg_data+D'1', W, 1
025A  6EEA      	MOVWF FSR0H
025C  5137      	MOVF usb_send_d_0005F_arg_data, W, 1
025E  6EE9      	MOVWF FSR0L
0260  513B      	MOVF usb_send_d_0005F_1_count, W, 1
0262  6F44      	MOVWF CompTempVar2698, 1
0264  5144      	MOVF CompTempVar2698, W, 1
0266  26E9      	ADDWF FSR0L, F
0268  50EF      	MOVF INDF0, W
026A  6F45      	MOVWF CompTempVar2699, 1
026C  5143      	MOVF usb_send_d_0005F_1_buffer+D'1', W, 1
026E  6EEA      	MOVWF FSR0H
0270  5142      	MOVF usb_send_d_0005F_1_buffer, W, 1
0272  253B      	ADDWF usb_send_d_0005F_1_count, W, 1
0274  6EE9      	MOVWF FSR0L
0276  5145      	MOVF CompTempVar2699, W, 1
0278  6EEF      	MOVWF INDF0
027A  2B3B      	INCF usb_send_d_0005F_1_count, F, 1
027C  D7EA      	BRA	label22
027E            label23
027E  513F      	MOVF usb_send_d_0005F_1_bdcount+D'1', W, 1
0280  6EEA      	MOVWF FSR0H
0282  513E      	MOVF usb_send_d_0005F_1_bdcount, W, 1
0284  6EE9      	MOVWF FSR0L
0286  513B      	MOVF usb_send_d_0005F_1_count, W, 1
0288  6EEF      	MOVWF INDF0
028A  5141      	MOVF usb_send_d_0005F_1_bdaddr+D'1', W, 1
028C  6EEA      	MOVWF FSR0H
028E  5140      	MOVF usb_send_d_0005F_1_bdaddr, W, 1
0290  6EE9      	MOVWF FSR0L
0292  2AE9      	INCF FSR0L, F
0294  5142      	MOVF usb_send_d_0005F_1_buffer, W, 1
0296  6F44      	MOVWF CompTempVar2700, 1
0298  5143      	MOVF usb_send_d_0005F_1_buffer+D'1', W, 1
029A  6EEF      	MOVWF INDF0
029C  06E9      	DECF FSR0L, F
029E  5144      	MOVF CompTempVar2700, W, 1
02A0  6EEF      	MOVWF INDF0
02A2  A13A      	BTFSS usb_send_d_0005F_arg_first,0, 1
02A4  D005      	BRA	label24
02A6  513D      	MOVF usb_send_d_0005F_1_bdstat+D'1', W, 1
02A8  6EEA      	MOVWF FSR0H
02AA  513C      	MOVF usb_send_d_0005F_1_bdstat, W, 1
02AC  6EE9      	MOVWF FSR0L
02AE  9CEF      	BCF INDF0,6
02B0            label24
02B0  513D      	MOVF usb_send_d_0005F_1_bdstat+D'1', W, 1
02B2  6EEA      	MOVWF FSR0H
02B4  513C      	MOVF usb_send_d_0005F_1_bdstat, W, 1
02B6  6EE9      	MOVWF FSR0L
02B8  ACEF      	BTFSS INDF0,6
02BA  D006      	BRA	label25
02BC  513D      	MOVF usb_send_d_0005F_1_bdstat+D'1', W, 1
02BE  6EEA      	MOVWF FSR0H
02C0  513C      	MOVF usb_send_d_0005F_1_bdstat, W, 1
02C2  6EE9      	MOVWF FSR0L
02C4  9CEF      	BCF INDF0,6
02C6  D005      	BRA	label26
02C8            label25
02C8  513D      	MOVF usb_send_d_0005F_1_bdstat+D'1', W, 1
02CA  6EEA      	MOVWF FSR0H
02CC  513C      	MOVF usb_send_d_0005F_1_bdstat, W, 1
02CE  6EE9      	MOVWF FSR0L
02D0  8CEF      	BSF INDF0,6
02D2            label26
02D2  513D      	MOVF usb_send_d_0005F_1_bdstat+D'1', W, 1
02D4  6EEA      	MOVWF FSR0H
02D6  513C      	MOVF usb_send_d_0005F_1_bdstat, W, 1
02D8  6EE9      	MOVWF FSR0L
02DA  9AEF      	BCF INDF0,5
02DC  98EF      	BCF INDF0,4
02DE  86EF      	BSF INDF0,3
02E0  94EF      	BCF INDF0,2
02E2  92EF      	BCF INDF0,1
02E4  90EF      	BCF INDF0,0
02E6  8EEF      	BSF INDF0,7
02E8  0012      	RETURN
02EA            ; } usb_send_data function end

	ORG 0x000002EA
02EA            usb_get_de_00067
02EA            ; { usb_get_descriptor_callback ; function begin
02EA  6B3E      	CLRF usb_get_de_00067_1_descrip_0006C, 1
02EC  6B3F      	CLRF usb_get_de_00067_1_descrip_0006C+D'1', 1
02EE  0538      	DECF usb_get_de_00067_arg_descr_00068, W, 1
02F0  E00C      	BZ	label29
02F2  0E02      	MOVLW 0x02
02F4  6338      	CPFSEQ usb_get_de_00067_arg_descr_00068, 1
02F6  D001      	BRA	label27
02F8  D012      	BRA	label30
02FA            label27
02FA  0E03      	MOVLW 0x03
02FC  6338      	CPFSEQ usb_get_de_00067_arg_descr_00068, 1
02FE  D001      	BRA	label28
0300  D018      	BRA	label31
0302            label28
0302  0E06      	MOVLW 0x06
0304  6338      	CPFSEQ usb_get_de_00067_arg_descr_00068, 1
0306  D03A      	BRA	label35
0308  D039      	BRA	label35
030A            label29
030A  0E00      	MOVLW HIGH(gbl_my_device_descriptor+D'0')
030C  6F42      	MOVWF CompTempVar2712, 1
030E  0E48      	MOVLW LOW(gbl_my_device_descriptor+D'0')
0310  6F3E      	MOVWF usb_get_de_00067_1_descrip_0006C, 1
0312  5142      	MOVF CompTempVar2712, W, 1
0314  6F3F      	MOVWF usb_get_de_00067_1_descrip_0006C+D'1', 1
0316  0E12      	MOVLW 0x12
0318  6F40      	MOVWF usb_get_de_00067_1_descrip_0006D, 1
031A  6B41      	CLRF usb_get_de_00067_1_descrip_0006D+D'1', 1
031C  D02F      	BRA	label35
031E            label30
031E  0E00      	MOVLW HIGH(gbl_complete_serial_config_00000+D'0')
0320  6F42      	MOVWF CompTempVar2713, 1
0322  0E05      	MOVLW LOW(gbl_complete_serial_config_00000+D'0')
0324  6F3E      	MOVWF usb_get_de_00067_1_descrip_0006C, 1
0326  5142      	MOVF CompTempVar2713, W, 1
0328  6F3F      	MOVWF usb_get_de_00067_1_descrip_0006C+D'1', 1
032A  0E43      	MOVLW 0x43
032C  6F40      	MOVWF usb_get_de_00067_1_descrip_0006D, 1
032E  6B41      	CLRF usb_get_de_00067_1_descrip_0006D+D'1', 1
0330  D025      	BRA	label35
0332            label31
0332  5339      	MOVF usb_get_de_00067_arg_descr_00069, F, 1
0334  E006      	BZ	label32
0336  0539      	DECF usb_get_de_00067_arg_descr_00069, W, 1
0338  E00E      	BZ	label33
033A  0E02      	MOVLW 0x02
033C  6339      	CPFSEQ usb_get_de_00067_arg_descr_00069, 1
033E  D01E      	BRA	label35
0340  D014      	BRA	label34
0342            label32
0342  0E04      	MOVLW 0x04
0344  6F40      	MOVWF usb_get_de_00067_1_descrip_0006D, 1
0346  6B41      	CLRF usb_get_de_00067_1_descrip_0006D+D'1', 1
0348  0E01      	MOVLW HIGH(gbl_string_00+D'0')
034A  6F42      	MOVWF CompTempVar2714, 1
034C  0EC2      	MOVLW LOW(gbl_string_00+D'0')
034E  6F3E      	MOVWF usb_get_de_00067_1_descrip_0006C, 1
0350  5142      	MOVF CompTempVar2714, W, 1
0352  6F3F      	MOVWF usb_get_de_00067_1_descrip_0006C+D'1', 1
0354  D013      	BRA	label35
0356            label33
0356  0E2E      	MOVLW 0x2E
0358  6F40      	MOVWF usb_get_de_00067_1_descrip_0006D, 1
035A  6B41      	CLRF usb_get_de_00067_1_descrip_0006D+D'1', 1
035C  0E01      	MOVLW HIGH(gbl_MX_USBMFR+D'0')
035E  6F42      	MOVWF CompTempVar2715, 1
0360  0E00      	MOVLW LOW(gbl_MX_USBMFR+D'0')
0362  6F3E      	MOVWF usb_get_de_00067_1_descrip_0006C, 1
0364  5142      	MOVF CompTempVar2715, W, 1
0366  6F3F      	MOVWF usb_get_de_00067_1_descrip_0006C+D'1', 1
0368  D009      	BRA	label35
036A            label34
036A  0E28      	MOVLW 0x28
036C  6F40      	MOVWF usb_get_de_00067_1_descrip_0006D, 1
036E  6B41      	CLRF usb_get_de_00067_1_descrip_0006D+D'1', 1
0370  0E01      	MOVLW HIGH(gbl_MX_USBNAME+D'0')
0372  6F42      	MOVWF CompTempVar2716, 1
0374  0E2E      	MOVLW LOW(gbl_MX_USBNAME+D'0')
0376  6F3E      	MOVWF usb_get_de_00067_1_descrip_0006C, 1
0378  5142      	MOVF CompTempVar2716, W, 1
037A  6F3F      	MOVWF usb_get_de_00067_1_descrip_0006C+D'1', 1
037C            label35
037C  513B      	MOVF usb_get_de_00067_arg_rtn_d_0006A+D'1', W, 1
037E  6EEA      	MOVWF FSR0H
0380  513A      	MOVF usb_get_de_00067_arg_rtn_d_0006A, W, 1
0382  6EE9      	MOVWF FSR0L
0384  2AE9      	INCF FSR0L, F
0386  513E      	MOVF usb_get_de_00067_1_descrip_0006C, W, 1
0388  6F42      	MOVWF CompTempVar2717, 1
038A  513F      	MOVF usb_get_de_00067_1_descrip_0006C+D'1', W, 1
038C  6EEF      	MOVWF INDF0
038E  06E9      	DECF FSR0L, F
0390  5142      	MOVF CompTempVar2717, W, 1
0392  6EEF      	MOVWF INDF0
0394  513D      	MOVF usb_get_de_00067_arg_rtn_d_0006B+D'1', W, 1
0396  6EEA      	MOVWF FSR0H
0398  513C      	MOVF usb_get_de_00067_arg_rtn_d_0006B, W, 1
039A  6EE9      	MOVWF FSR0L
039C  2AE9      	INCF FSR0L, F
039E  5140      	MOVF usb_get_de_00067_1_descrip_0006D, W, 1
03A0  6F42      	MOVWF CompTempVar2718, 1
03A2  5141      	MOVF usb_get_de_00067_1_descrip_0006D+D'1', W, 1
03A4  6EEF      	MOVWF INDF0
03A6  06E9      	DECF FSR0L, F
03A8  5142      	MOVF CompTempVar2718, W, 1
03AA  6EEF      	MOVWF INDF0
03AC  0012      	RETURN
03AE            ; } usb_get_descriptor_callback function end

	ORG 0x000003AE
03AE            usb_device_00071
03AE            ; { usb_device_configured_callback ; function begin
03AE  0E01      	MOVLW 0x01
03B0  0101      	MOVLB 0x01
03B2  6FEF      	MOVWF gbl_CDC_USB_status, 1
03B4  0012      	RETURN
03B6            ; } usb_device_configured_callback function end

	ORG 0x000003B6
03B6            usb_config_00072
03B6            ; { usb_configure_endpoints ; function begin
03B6  010F      	MOVLB 0x0F
03B8  8955      	BSF gbl_uep2,4, 1
03BA  9555      	BCF gbl_uep2,2, 1
03BC  8355      	BSF gbl_uep2,1, 1
03BE  8755      	BSF gbl_uep2,3, 1
03C0  0102      	MOVLB 0x02
03C2  8D14      	BSF gbl_bd2in,6, 1
03C4  9B14      	BCF gbl_bd2in,5, 1
03C6  9914      	BCF gbl_bd2in,4, 1
03C8  9714      	BCF gbl_bd2in,3, 1
03CA  9514      	BCF gbl_bd2in,2, 1
03CC  9314      	BCF gbl_bd2in,1, 1
03CE  9114      	BCF gbl_bd2in,0, 1
03D0  9F14      	BCF gbl_bd2in,7, 1
03D2  010F      	MOVLB 0x0F
03D4  8956      	BSF gbl_uep3,4, 1
03D6  8556      	BSF gbl_uep3,2, 1
03D8  8356      	BSF gbl_uep3,1, 1
03DA  8756      	BSF gbl_uep3,3, 1
03DC  0102      	MOVLB 0x02
03DE  8D1C      	BSF gbl_bd3in,6, 1
03E0  9B1C      	BCF gbl_bd3in,5, 1
03E2  991C      	BCF gbl_bd3in,4, 1
03E4  971C      	BCF gbl_bd3in,3, 1
03E6  951C      	BCF gbl_bd3in,2, 1
03E8  931C      	BCF gbl_bd3in,1, 1
03EA  911C      	BCF gbl_bd3in,0, 1
03EC  9F1C      	BCF gbl_bd3in,7, 1
03EE  0E08      	MOVLW 0x08
03F0  6F19      	MOVWF gbl_bd3out+D'1', 1
03F2  0E98      	MOVLW 0x98
03F4  6F1A      	MOVWF gbl_bd3out+D'2', 1
03F6  0E02      	MOVLW 0x02
03F8  6F1B      	MOVWF gbl_bd3out+D'3', 1
03FA  9D18      	BCF gbl_bd3out,6, 1
03FC  9B18      	BCF gbl_bd3out,5, 1
03FE  9918      	BCF gbl_bd3out,4, 1
0400  9718      	BCF gbl_bd3out,3, 1
0402  9518      	BCF gbl_bd3out,2, 1
0404  9318      	BCF gbl_bd3out,1, 1
0406  9118      	BCF gbl_bd3out,0, 1
0408  8F18      	BSF gbl_bd3out,7, 1
040A  0012      	RETURN
040C            ; } usb_configure_endpoints function end

	ORG 0x0000040C
040C            usb_cdc_ha_00070
040C            ; { usb_cdc_handle_tx ; function begin
040C  0E02      	MOVLW HIGH(gbl_bd3in+D'0')
040E  0102      	MOVLB 0x02
0410  6F36      	MOVWF usb_cdc_ha_00070_1_bd+D'1', 1
0412  0E1C      	MOVLW LOW(gbl_bd3in+D'0')
0414  6F35      	MOVWF usb_cdc_ha_00070_1_bd, 1
0416  5136      	MOVF usb_cdc_ha_00070_1_bd+D'1', W, 1
0418  6EEA      	MOVWF FSR0H
041A  5135      	MOVF usb_cdc_ha_00070_1_bd, W, 1
041C  6EE9      	MOVWF FSR0L
041E  BEEF      	BTFSC INDF0,7
0420  0012      	RETURN
0422  0101      	MOVLB 0x01
0424  517D      	MOVF gbl_ep_in_buffer_size+D'6', W, 1
0426  0102      	MOVLB 0x02
0428  6F31      	MOVWF usb_cdc_ha_00070_1_buffer_size, 1
042A  0101      	MOVLB 0x01
042C  517E      	MOVF gbl_ep_in_buffer_size+D'7', W, 1
042E  0102      	MOVLB 0x02
0430  6F32      	MOVWF usb_cdc_ha_00070_1_buffer_size+D'1', 1
0432  0101      	MOVLB 0x01
0434  516D      	MOVF gbl_ep_in_buffer_location+D'6', W, 1
0436  0102      	MOVLB 0x02
0438  6F33      	MOVWF usb_cdc_ha_00070_1_buffer, 1
043A  0101      	MOVLB 0x01
043C  516E      	MOVF gbl_ep_in_buffer_location+D'7', W, 1
043E  0102      	MOVLB 0x02
0440  6F34      	MOVWF usb_cdc_ha_00070_1_buffer+D'1', 1
0442  0101      	MOVLB 0x01
0444  51EB      	MOVF gbl_cdc_tx_start, W, 1
0446  63EC      	CPFSEQ gbl_cdc_tx_end, 1
0448  D001      	BRA	label36
044A  0012      	RETURN
044C            label36
044C  0102      	MOVLB 0x02
044E  9137      	BCF usb_cdc_ha_00070_1_store_gie,0, 1
0450  BEF2      	BTFSC gbl_intcon,7
0452  8137      	BSF usb_cdc_ha_00070_1_store_gie,0, 1
0454            label37
0454  9EF2      	BCF gbl_intcon,7
0456  BEF2      	BTFSC gbl_intcon,7
0458  D7FD      	BRA	label37
045A  6B30      	CLRF usb_cdc_ha_00070_1_count, 1
045C            label38
045C  0101      	MOVLB 0x01
045E  51EB      	MOVF gbl_cdc_tx_start, W, 1
0460  63EC      	CPFSEQ gbl_cdc_tx_end, 1
0462  63EB      	CPFSEQ gbl_cdc_tx_start, 1
0464  D025      	BRA	label40
0466  0102      	MOVLB 0x02
0468  5131      	MOVF usb_cdc_ha_00070_1_buffer_size, W, 1
046A  6130      	CPFSLT usb_cdc_ha_00070_1_count, 1
046C  5132      	MOVF usb_cdc_ha_00070_1_buffer_size+D'1', W, 1
046E  E020      	BZ	label40
0470  0101      	MOVLB 0x01
0472  29EB      	INCF gbl_cdc_tx_start, W, 1
0474  0102      	MOVLB 0x02
0476  6F2F      	MOVWF usb_cdc_ha_00070_1_cdc_tx_next, 1
0478  0E40      	MOVLW 0x40
047A  632F      	CPFSEQ usb_cdc_ha_00070_1_cdc_tx_next, 1
047C  D001      	BRA	label39
047E  6B2F      	CLRF usb_cdc_ha_00070_1_cdc_tx_next, 1
0480            label39
0480  0100      	MOVLB 0x00
0482  EE00F060  	LFSR 0x00, gbl_cdc_tx_buffer
0486  50E9      	MOVF FSR0L, W
0488  0101      	MOVLB 0x01
048A  51EB      	MOVF gbl_cdc_tx_start, W, 1
048C  0102      	MOVLB 0x02
048E  6F38      	MOVWF CompTempVar2728, 1
0490  5138      	MOVF CompTempVar2728, W, 1
0492  26E9      	ADDWF FSR0L, F
0494  50EF      	MOVF INDF0, W
0496  6F39      	MOVWF CompTempVar2729, 1
0498  5134      	MOVF usb_cdc_ha_00070_1_buffer+D'1', W, 1
049A  6EEA      	MOVWF FSR0H
049C  5133      	MOVF usb_cdc_ha_00070_1_buffer, W, 1
049E  2530      	ADDWF usb_cdc_ha_00070_1_count, W, 1
04A0  6EE9      	MOVWF FSR0L
04A2  5139      	MOVF CompTempVar2729, W, 1
04A4  6EEF      	MOVWF INDF0
04A6  2B30      	INCF usb_cdc_ha_00070_1_count, F, 1
04A8  512F      	MOVF usb_cdc_ha_00070_1_cdc_tx_next, W, 1
04AA  0101      	MOVLB 0x01
04AC  6FEB      	MOVWF gbl_cdc_tx_start, 1
04AE  D7D6      	BRA	label38
04B0            label40
04B0  0E00      	MOVLW 0x00
04B2  0102      	MOVLB 0x02
04B4  6530      	CPFSGT usb_cdc_ha_00070_1_count, 1
04B6  D02B      	BRA	label43
04B8  5136      	MOVF usb_cdc_ha_00070_1_bd+D'1', W, 1
04BA  6EEA      	MOVWF FSR0H
04BC  2935      	INCF usb_cdc_ha_00070_1_bd, W, 1
04BE  6EE9      	MOVWF FSR0L
04C0  5130      	MOVF usb_cdc_ha_00070_1_count, W, 1
04C2  6EEF      	MOVWF INDF0
04C4  06E9      	DECF FSR0L, F
04C6  0E02      	MOVLW 0x02
04C8  26E9      	ADDWF FSR0L, F
04CA  2AE9      	INCF FSR0L, F
04CC  5133      	MOVF usb_cdc_ha_00070_1_buffer, W, 1
04CE  6F38      	MOVWF CompTempVar2730, 1
04D0  5134      	MOVF usb_cdc_ha_00070_1_buffer+D'1', W, 1
04D2  6EEF      	MOVWF INDF0
04D4  06E9      	DECF FSR0L, F
04D6  5138      	MOVF CompTempVar2730, W, 1
04D8  6EEF      	MOVWF INDF0
04DA  5135      	MOVF usb_cdc_ha_00070_1_bd, W, 1
04DC  6EE9      	MOVWF FSR0L
04DE  ACEF      	BTFSS INDF0,6
04E0  D006      	BRA	label41
04E2  5136      	MOVF usb_cdc_ha_00070_1_bd+D'1', W, 1
04E4  6EEA      	MOVWF FSR0H
04E6  5135      	MOVF usb_cdc_ha_00070_1_bd, W, 1
04E8  6EE9      	MOVWF FSR0L
04EA  9CEF      	BCF INDF0,6
04EC  D005      	BRA	label42
04EE            label41
04EE  5136      	MOVF usb_cdc_ha_00070_1_bd+D'1', W, 1
04F0  6EEA      	MOVWF FSR0H
04F2  5135      	MOVF usb_cdc_ha_00070_1_bd, W, 1
04F4  6EE9      	MOVWF FSR0L
04F6  8CEF      	BSF INDF0,6
04F8            label42
04F8  5136      	MOVF usb_cdc_ha_00070_1_bd+D'1', W, 1
04FA  6EEA      	MOVWF FSR0H
04FC  5135      	MOVF usb_cdc_ha_00070_1_bd, W, 1
04FE  6EE9      	MOVWF FSR0L
0500  9AEF      	BCF INDF0,5
0502  98EF      	BCF INDF0,4
0504  86EF      	BSF INDF0,3
0506  94EF      	BCF INDF0,2
0508  92EF      	BCF INDF0,1
050A  90EF      	BCF INDF0,0
050C  8EEF      	BSF INDF0,7
050E            label43
050E  B137      	BTFSC usb_cdc_ha_00070_1_store_gie,0, 1
0510  8EF2      	BSF gbl_intcon,7
0512  A137      	BTFSS usb_cdc_ha_00070_1_store_gie,0, 1
0514  9EF2      	BCF gbl_intcon,7
0516  0012      	RETURN
0518            ; } usb_cdc_handle_tx function end

	ORG 0x00000518
0518            memcpy8_00000
0518            ; { memcpy8 ; function begin
0518  5131      	MOVF memcpy8_00000_arg_dst, W, 1
051A  6F36      	MOVWF memcpy8_00000_1_dst2, 1
051C  5132      	MOVF memcpy8_00000_arg_dst+D'1', W, 1
051E  6F37      	MOVWF memcpy8_00000_1_dst2+D'1', 1
0520  5133      	MOVF memcpy8_00000_arg_src, W, 1
0522  6F38      	MOVWF memcpy8_00000_1_src2, 1
0524  5134      	MOVF memcpy8_00000_arg_src+D'1', W, 1
0526  6F39      	MOVWF memcpy8_00000_1_src2+D'1', 1
0528            label44
0528  0E00      	MOVLW 0x00
052A  6535      	CPFSGT memcpy8_00000_arg_len, 1
052C  D012      	BRA	label45
052E  5139      	MOVF memcpy8_00000_1_src2+D'1', W, 1
0530  6EEA      	MOVWF FSR0H
0532  5138      	MOVF memcpy8_00000_1_src2, W, 1
0534  6EE9      	MOVWF FSR0L
0536  4B38      	INFSNZ memcpy8_00000_1_src2, F, 1
0538  2B39      	INCF memcpy8_00000_1_src2+D'1', F, 1
053A  50EF      	MOVF INDF0, W
053C  6F3A      	MOVWF CompTempVar411, 1
053E  5137      	MOVF memcpy8_00000_1_dst2+D'1', W, 1
0540  6EEA      	MOVWF FSR0H
0542  5136      	MOVF memcpy8_00000_1_dst2, W, 1
0544  6EE9      	MOVWF FSR0L
0546  4B36      	INFSNZ memcpy8_00000_1_dst2, F, 1
0548  2B37      	INCF memcpy8_00000_1_dst2+D'1', F, 1
054A  513A      	MOVF CompTempVar411, W, 1
054C  6EEF      	MOVWF INDF0
054E  0735      	DECF memcpy8_00000_arg_len, F, 1
0550  D7EB      	BRA	label44
0552            label45
0552  5131      	MOVF memcpy8_00000_arg_dst, W, 1
0554  6F3A      	MOVWF CompTempVarRet410, 1
0556  5132      	MOVF memcpy8_00000_arg_dst+D'1', W, 1
0558  6F3B      	MOVWF CompTempVarRet410+D'1', 1
055A  0012      	RETURN
055C            ; } memcpy8 function end

	ORG 0x0000055C
055C            usb_prime__00074
055C            ; { usb_prime_ep0_out ; function begin
055C  0E08      	MOVLW 0x08
055E  0102      	MOVLB 0x02
0560  6F01      	MOVWF gbl_bd0out+D'1', 1
0562  0E80      	MOVLW 0x80
0564  6F02      	MOVWF gbl_bd0out+D'2', 1
0566  0E02      	MOVLW 0x02
0568  6F03      	MOVWF gbl_bd0out+D'3', 1
056A  8D00      	BSF gbl_bd0out,6, 1
056C  9B00      	BCF gbl_bd0out,5, 1
056E  9900      	BCF gbl_bd0out,4, 1
0570  8700      	BSF gbl_bd0out,3, 1
0572  9500      	BCF gbl_bd0out,2, 1
0574  9300      	BCF gbl_bd0out,1, 1
0576  9100      	BCF gbl_bd0out,0, 1
0578  8F00      	BSF gbl_bd0out,7, 1
057A  0012      	RETURN
057C            ; } usb_prime_ep0_out function end

	ORG 0x0000057C
057C            usb_handle_00075
057C            ; { usb_handle_standard_request ; function begin
057C  0E06      	MOVLW 0x06
057E  632F      	CPFSEQ usb_handle_00075_arg_sdp+D'1', 1
0580  D001      	BRA	label46
0582  D00F      	BRA	label50
0584            label46
0584  0E05      	MOVLW 0x05
0586  632F      	CPFSEQ usb_handle_00075_arg_sdp+D'1', 1
0588  D001      	BRA	label47
058A  D03C      	BRA	label53
058C            label47
058C  0E09      	MOVLW 0x09
058E  632F      	CPFSEQ usb_handle_00075_arg_sdp+D'1', 1
0590  D001      	BRA	label48
0592  D044      	BRA	label55
0594            label48
0594  0E0A      	MOVLW 0x0A
0596  632F      	CPFSEQ usb_handle_00075_arg_sdp+D'1', 1
0598  D001      	BRA	label49
059A  D04E      	BRA	label57
059C            label49
059C  532F      	MOVF usb_handle_00075_arg_sdp+D'1', F, 1
059E  E056      	BZ	label59
05A0  D05A      	BRA	label61
05A2            label50
05A2  5131      	MOVF usb_handle_00075_arg_sdp+D'3', W, 1
05A4  6F36      	MOVWF usb_handle_00075_1_descrip_00076, 1
05A6  5130      	MOVF usb_handle_00075_arg_sdp+D'2', W, 1
05A8  6F37      	MOVWF usb_handle_00075_1_descrip_00077, 1
05AA  5136      	MOVF usb_handle_00075_1_descrip_00076, W, 1
05AC  6F38      	MOVWF usb_get_de_00067_arg_descr_00068, 1
05AE  5137      	MOVF usb_handle_00075_1_descrip_00077, W, 1
05B0  6F39      	MOVWF usb_get_de_00067_arg_descr_00069, 1
05B2  0E01      	MOVLW HIGH(gbl_delivery_ptr+D'0')
05B4  6F3B      	MOVWF usb_get_de_00067_arg_rtn_d_0006A+D'1', 1
05B6  0ED3      	MOVLW LOW(gbl_delivery_ptr+D'0')
05B8  6F3A      	MOVWF usb_get_de_00067_arg_rtn_d_0006A, 1
05BA  0E01      	MOVLW HIGH(gbl_delivery_bytes_to_send+D'0')
05BC  6F3D      	MOVWF usb_get_de_00067_arg_rtn_d_0006B+D'1', 1
05BE  0ECD      	MOVLW LOW(gbl_delivery_bytes_to_send+D'0')
05C0  6F3C      	MOVWF usb_get_de_00067_arg_rtn_d_0006B, 1
05C2  EC75F001  	CALL usb_get_de_00067
05C6  0101      	MOVLB 0x01
05C8  53D3      	MOVF gbl_delivery_ptr, F, 1
05CA  E102      	BNZ	label51
05CC  53D4      	MOVF gbl_delivery_ptr+D'1', F, 1
05CE  E017      	BZ	label52
05D0            label51
05D0  0E03      	MOVLW 0x03
05D2  6FE2      	MOVWF gbl_control_mode, 1
05D4  0102      	MOVLB 0x02
05D6  5134      	MOVF usb_handle_00075_arg_sdp+D'6', W, 1
05D8  0101      	MOVLB 0x01
05DA  6FCF      	MOVWF gbl_delivery_bytes_max_send, 1
05DC  0102      	MOVLB 0x02
05DE  5135      	MOVF usb_handle_00075_arg_sdp+D'7', W, 1
05E0  0101      	MOVLB 0x01
05E2  6FD0      	MOVWF gbl_delivery_bytes_max_send+D'1', 1
05E4  6BD1      	CLRF gbl_delivery_bytes_sent, 1
05E6  6BD2      	CLRF gbl_delivery_bytes_sent+D'1', 1
05E8  0E08      	MOVLW 0x08
05EA  6FE8      	MOVWF gbl_delivery_buffer_size, 1
05EC  0E88      	MOVLW 0x88
05EE  6FD5      	MOVWF gbl_delivery_buffer, 1
05F0  0E02      	MOVLW 0x02
05F2  6FD6      	MOVWF gbl_delivery_buffer+D'1', 1
05F4  0102      	MOVLB 0x02
05F6  9D04      	BCF gbl_bd0in,6, 1
05F8  EC22F000  	CALL usb_send_d_00061
05FC  D02E      	BRA	label62
05FE            label52
05FE  EC77F000  	CALL usb_stall__00062
0602  D02B      	BRA	label62
0604            label53
0604  5130      	MOVF usb_handle_00075_arg_sdp+D'2', W, 1
0606  0101      	MOVLB 0x01
0608  6FE1      	MOVWF gbl_usb_address, 1
060A  0E01      	MOVLW 0x01
060C  6FE9      	MOVWF gbl_usb_status, 1
060E  0E08      	MOVLW 0x08
0610  EFA1F000  	GOTO	usb_send_e_00060
0614            label54
0614  0E06      	MOVLW 0x06
0616  0101      	MOVLB 0x01
0618  6FE2      	MOVWF gbl_control_mode, 1
061A  D01F      	BRA	label62
061C            label55
061C  0E06      	MOVLW 0x06
061E  0101      	MOVLB 0x01
0620  6FE2      	MOVWF gbl_control_mode, 1
0622  0E0C      	MOVLW 0x0C
0624  EFA1F000  	GOTO	usb_send_e_00060
0628            label56
0628  0E03      	MOVLW 0x03
062A  0101      	MOVLB 0x01
062C  6FE0      	MOVWF gbl_usb_state, 1
062E  ECDBF001  	CALL usb_config_00072
0632  ECD7F001  	CALL usb_device_00071
0636  D011      	BRA	label62
0638            label57
0638  0E03      	MOVLW 0x03
063A  0101      	MOVLB 0x01
063C  6FE2      	MOVWF gbl_control_mode, 1
063E  0E01      	MOVLW 0x01
0640  0102      	MOVLB 0x02
0642  6F38      	MOVWF usb_send_o_00073_arg_data, 1
0644  0E00      	MOVLW 0x00
0646  EF7DF000  	GOTO	usb_send_o_00073
064A            label58
064A  D007      	BRA	label62
064C            label59
064C  6B38      	CLRF usb_send_o_00073_arg_data, 1
064E  0E04      	MOVLW 0x04
0650  EF7DF000  	GOTO	usb_send_o_00073
0654            label60
0654  D002      	BRA	label62
0656            label61
0656  EC77F000  	CALL usb_stall__00062
065A            label62
065A  EF37F004  	GOTO	label78
065E            ; } usb_handle_standard_request function end

	ORG 0x0000065E
065E            usb_handle_00066
065E            ; { usb_handle_class_request ; function begin
065E  0E20      	MOVLW 0x20
0660  632F      	CPFSEQ usb_handle_00066_arg_sdp+D'1', 1
0662  D001      	BRA	label63
0664  D008      	BRA	label65
0666            label63
0666  0E21      	MOVLW 0x21
0668  632F      	CPFSEQ usb_handle_00066_arg_sdp+D'1', 1
066A  D001      	BRA	label64
066C  D008      	BRA	label66
066E            label64
066E  0E22      	MOVLW 0x22
0670  632F      	CPFSEQ usb_handle_00066_arg_sdp+D'1', 1
0672  D01A      	BRA	label68
0674  D013      	BRA	label67
0676            label65
0676  0E02      	MOVLW 0x02
0678  0101      	MOVLB 0x01
067A  6FE2      	MOVWF gbl_control_mode, 1
067C  D015      	BRA	label68
067E            label66
067E  0E04      	MOVLW 0x04
0680  0101      	MOVLB 0x01
0682  6FE2      	MOVWF gbl_control_mode, 1
0684  0102      	MOVLB 0x02
0686  6B36      	CLRF usb_send_d_0005F_arg_ep, 1
0688  0E01      	MOVLW HIGH(gbl_class_data+D'0')
068A  6F38      	MOVWF usb_send_d_0005F_arg_data+D'1', 1
068C  0E87      	MOVLW LOW(gbl_class_data+D'0')
068E  6F37      	MOVWF usb_send_d_0005F_arg_data, 1
0690  0E08      	MOVLW 0x08
0692  6F39      	MOVWF usb_send_d_0005F_arg_send_count, 1
0694  813A      	BSF usb_send_d_0005F_arg_first,0, 1
0696  ECC3F000  	CALL usb_send_d_0005F
069A  D006      	BRA	label68
069C            label67
069C  0E06      	MOVLW 0x06
069E  0101      	MOVLB 0x01
06A0  6FE2      	MOVWF gbl_control_mode, 1
06A2  0E04      	MOVLW 0x04
06A4  EFA1F000  	GOTO	usb_send_e_00060
06A8            label68
06A8  EF64F004  	GOTO	label80
06AC            ; } usb_handle_class_request function end

	ORG 0x000006AC
06AC            usb_handle_00065
06AC            ; { usb_handle_ctrl_write_class ; function begin
06AC  0E20      	MOVLW 0x20
06AE  0101      	MOVLB 0x01
06B0  6360      	CPFSEQ gbl_usb_sdp+D'1', 1
06B2  D017      	BRA	label70
06B4  0E01      	MOVLW HIGH(gbl_class_data+D'0')
06B6  0102      	MOVLB 0x02
06B8  6F32      	MOVWF memcpy8_00000_arg_dst+D'1', 1
06BA  0E87      	MOVLW LOW(gbl_class_data+D'0')
06BC  6F31      	MOVWF memcpy8_00000_arg_dst, 1
06BE  512B      	MOVF usb_handle_00065_arg_data, W, 1
06C0  6F33      	MOVWF memcpy8_00000_arg_src, 1
06C2  512C      	MOVF usb_handle_00065_arg_data+D'1', W, 1
06C4  6F34      	MOVWF memcpy8_00000_arg_src+D'1', 1
06C6  512D      	MOVF usb_handle_00065_arg_count, W, 1
06C8  6F35      	MOVWF memcpy8_00000_arg_len, 1
06CA  EC8CF002  	CALL memcpy8_00000
06CE  0E06      	MOVLW 0x06
06D0  0101      	MOVLB 0x01
06D2  6FE2      	MOVWF gbl_control_mode, 1
06D4  0E00      	MOVLW 0x00
06D6  EFA1F000  	GOTO	usb_send_e_00060
06DA            label69
06DA  0E01      	MOVLW HIGH(gbl_class_data+D'0')
06DC  6F30      	MOVWF usb_handle_00065_1_my_lc+D'1', 1
06DE  0E87      	MOVLW LOW(gbl_class_data+D'0')
06E0  6F2F      	MOVWF usb_handle_00065_1_my_lc, 1
06E2            label70
06E2  EFB6F004  	GOTO	label90
06E6            ; } usb_handle_ctrl_write_class function end

	ORG 0x000006E6
06E6            usb_handle_00064
06E6            ; { usb_handle_ctrl_read_class ; function begin
06E6  0E21      	MOVLW 0x21
06E8  0101      	MOVLB 0x01
06EA  6360      	CPFSEQ gbl_usb_sdp+D'1', 1
06EC  0012      	RETURN
06EE  0E05      	MOVLW 0x05
06F0  6FE2      	MOVWF gbl_control_mode, 1
06F2  0012      	RETURN
06F4            ; } usb_handle_ctrl_read_class function end

	ORG 0x000006F4
06F4            usb_ep_dat_0006F
06F4            ; { usb_ep_data_in_callback ; function begin
06F4  EC06F002  	CALL usb_cdc_ha_00070
06F8  EFE0F004  	GOTO	label101
06FC            ; } usb_ep_data_in_callback function end

	ORG 0x000006FC
06FC            usb_ep_dat_0006E
06FC            ; { usb_ep_data_out_callback ; function begin
06FC  0E03      	MOVLW 0x03
06FE  632F      	CPFSEQ usb_ep_dat_0006E_arg_end_point, 1
0700  0012      	RETURN
0702  6B35      	CLRF usb_ep_dat_0006E_2_count, 1
0704            label71
0704  5132      	MOVF usb_ep_dat_0006E_arg_byte_count, W, 1
0706  6135      	CPFSLT usb_ep_dat_0006E_2_count, 1
0708  5133      	MOVF usb_ep_dat_0006E_arg_byte_count+D'1', W, 1
070A  B4D8      	BTFSC STATUS,Z
070C  0012      	RETURN
070E  0101      	MOVLB 0x01
0710  29EE      	INCF gbl_cdc_rx_end, W, 1
0712  0102      	MOVLB 0x02
0714  6F34      	MOVWF usb_ep_dat_0006E_1_cdc_rx_next, 1
0716  0E40      	MOVLW 0x40
0718  6334      	CPFSEQ usb_ep_dat_0006E_1_cdc_rx_next, 1
071A  D001      	BRA	label72
071C  6B34      	CLRF usb_ep_dat_0006E_1_cdc_rx_next, 1
071E            label72
071E  0101      	MOVLB 0x01
0720  51ED      	MOVF gbl_cdc_rx_start, W, 1
0722  0102      	MOVLB 0x02
0724  6334      	CPFSEQ usb_ep_dat_0006E_1_cdc_rx_next, 1
0726  D001      	BRA	label73
0728  D002      	BRA	label74
072A            label73
072A  0101      	MOVLB 0x01
072C  63ED      	CPFSEQ gbl_cdc_rx_start, 1
072E            label74
072E  D018      	BRA	label75
0730  0102      	MOVLB 0x02
0732  5131      	MOVF usb_ep_dat_0006E_arg_buffer+D'1', W, 1
0734  6EEA      	MOVWF FSR0H
0736  5130      	MOVF usb_ep_dat_0006E_arg_buffer, W, 1
0738  6EE9      	MOVWF FSR0L
073A  5135      	MOVF usb_ep_dat_0006E_2_count, W, 1
073C  6F36      	MOVWF CompTempVar2721, 1
073E  5136      	MOVF CompTempVar2721, W, 1
0740  26E9      	ADDWF FSR0L, F
0742  50EF      	MOVF INDF0, W
0744  6F37      	MOVWF CompTempVar2722, 1
0746  0100      	MOVLB 0x00
0748  EE00F0A0  	LFSR 0x00, gbl_cdc_rx_buffer
074C  50E9      	MOVF FSR0L, W
074E  0101      	MOVLB 0x01
0750  51EE      	MOVF gbl_cdc_rx_end, W, 1
0752  26E9      	ADDWF FSR0L, F
0754  0102      	MOVLB 0x02
0756  5137      	MOVF CompTempVar2722, W, 1
0758  6EEF      	MOVWF INDF0
075A  5134      	MOVF usb_ep_dat_0006E_1_cdc_rx_next, W, 1
075C  0101      	MOVLB 0x01
075E  6FEE      	MOVWF gbl_cdc_rx_end, 1
0760            label75
0760  0102      	MOVLB 0x02
0762  2B35      	INCF usb_ep_dat_0006E_2_count, F, 1
0764  D7CF      	BRA	label71
0766            ; } usb_ep_data_out_callback function end

	ORG 0x00000766
0766            usb_handle_0005C
0766            ; { usb_handle_stall ; function begin
0766  0012      	RETURN
0768            ; } usb_handle_stall function end

	ORG 0x00000768
0768            usb_handle_0005B
0768            ; { usb_handle_reset ; function begin
0768  0101      	MOVLB 0x01
076A  6BE1      	CLRF gbl_usb_address, 1
076C  6BE2      	CLRF gbl_control_mode, 1
076E  6BE9      	CLRF gbl_usb_status, 1
0770  9662      	BCF gbl_uir,3
0772  9662      	BCF gbl_uir,3
0774  9662      	BCF gbl_uir,3
0776  9662      	BCF gbl_uir,3
0778  0E08      	MOVLW 0x08
077A  0102      	MOVLB 0x02
077C  6F01      	MOVWF gbl_bd0out+D'1', 1
077E  0E80      	MOVLW 0x80
0780  6F02      	MOVWF gbl_bd0out+D'2', 1
0782  0E02      	MOVLW 0x02
0784  6F03      	MOVWF gbl_bd0out+D'3', 1
0786  9D00      	BCF gbl_bd0out,6, 1
0788  9B00      	BCF gbl_bd0out,5, 1
078A  9900      	BCF gbl_bd0out,4, 1
078C  9700      	BCF gbl_bd0out,3, 1
078E  9500      	BCF gbl_bd0out,2, 1
0790  9300      	BCF gbl_bd0out,1, 1
0792  9100      	BCF gbl_bd0out,0, 1
0794  8F00      	BSF gbl_bd0out,7, 1
0796  0E08      	MOVLW 0x08
0798  6F05      	MOVWF gbl_bd0in+D'1', 1
079A  0E88      	MOVLW 0x88
079C  6F06      	MOVWF gbl_bd0in+D'2', 1
079E  0E02      	MOVLW 0x02
07A0  6F07      	MOVWF gbl_bd0in+D'3', 1
07A2  9D04      	BCF gbl_bd0in,6, 1
07A4  9B04      	BCF gbl_bd0in,5, 1
07A6  9904      	BCF gbl_bd0in,4, 1
07A8  9504      	BCF gbl_bd0in,2, 1
07AA  9304      	BCF gbl_bd0in,1, 1
07AC  9104      	BCF gbl_bd0in,0, 1
07AE  9F04      	BCF gbl_bd0in,7, 1
07B0  0012      	RETURN
07B2            ; } usb_handle_reset function end

	ORG 0x000007B2
07B2            usb_handle_0005A
07B2            ; { usb_handle_transaction ; function begin
07B2  3063      	RRCF gbl_ustat, W
07B4  0102      	MOVLB 0x02
07B6  6F29      	MOVWF usb_handle_0005A_1_end_point, 1
07B8  3329      	RRCF usb_handle_0005A_1_end_point, F, 1
07BA  3329      	RRCF usb_handle_0005A_1_end_point, F, 1
07BC  0E1F      	MOVLW 0x1F
07BE  1729      	ANDWF usb_handle_0005A_1_end_point, F, 1
07C0  A463      	BTFSS gbl_ustat,2
07C2  D008      	BRA	label76
07C4  3104      	RRCF gbl_bd0in, W, 1
07C6  6F2A      	MOVWF usb_handle_0005A_1_pid, 1
07C8  332A      	RRCF usb_handle_0005A_1_pid, F, 1
07CA  0E3F      	MOVLW 0x3F
07CC  172A      	ANDWF usb_handle_0005A_1_pid, F, 1
07CE  0E0F      	MOVLW 0x0F
07D0  172A      	ANDWF usb_handle_0005A_1_pid, F, 1
07D2  D008      	BRA	label77
07D4            label76
07D4  3100      	RRCF gbl_bd0out, W, 1
07D6  6F2B      	MOVWF CompTempVar2651, 1
07D8  332B      	RRCF CompTempVar2651, F, 1
07DA  0E3F      	MOVLW 0x3F
07DC  172B      	ANDWF CompTempVar2651, F, 1
07DE  0E0F      	MOVLW 0x0F
07E0  152B      	ANDWF CompTempVar2651, W, 1
07E2  6F2A      	MOVWF usb_handle_0005A_1_pid, 1
07E4            label77
07E4  5329      	MOVF usb_handle_0005A_1_end_point, F, 1
07E6  A4D8      	BTFSS STATUS,Z
07E8  D0C9      	BRA	label93
07EA  0E0D      	MOVLW 0x0D
07EC  632A      	CPFSEQ usb_handle_0005A_1_pid, 1
07EE  D06E      	BRA	label81
07F0  0E01      	MOVLW HIGH(gbl_usb_sdp+D'0')
07F2  6F32      	MOVWF memcpy8_00000_arg_dst+D'1', 1
07F4  0E5F      	MOVLW LOW(gbl_usb_sdp+D'0')
07F6  6F31      	MOVWF memcpy8_00000_arg_dst, 1
07F8  0E02      	MOVLW HIGH(gbl_buffer_0_out+D'0')
07FA  6F34      	MOVWF memcpy8_00000_arg_src+D'1', 1
07FC  0E80      	MOVLW LOW(gbl_buffer_0_out+D'0')
07FE  6F33      	MOVWF memcpy8_00000_arg_src, 1
0800  0E08      	MOVLW 0x08
0802  6F35      	MOVWF memcpy8_00000_arg_len, 1
0804  EC8CF002  	CALL memcpy8_00000
0808  ECAEF002  	CALL usb_prime__00074
080C  0E40      	MOVLW 0x40
080E  0101      	MOVLB 0x01
0810  155F      	ANDWF gbl_usb_sdp, W, 1
0812  0102      	MOVLB 0x02
0814  6F2B      	MOVWF CompTempVar2654, 1
0816  672B      	TSTFSZ CompTempVar2654, 1
0818  D02B      	BRA	label79
081A  0E20      	MOVLW 0x20
081C  0101      	MOVLB 0x01
081E  155F      	ANDWF gbl_usb_sdp, W, 1
0820  0102      	MOVLB 0x02
0822  6F2C      	MOVWF CompTempVar2655, 1
0824  672C      	TSTFSZ CompTempVar2655, 1
0826  D024      	BRA	label79
0828  0101      	MOVLB 0x01
082A  5166      	MOVF gbl_usb_sdp+D'7', W, 1
082C  0102      	MOVLB 0x02
082E  6F35      	MOVWF usb_handle_00075_arg_sdp+D'7', 1
0830  0101      	MOVLB 0x01
0832  5165      	MOVF gbl_usb_sdp+D'6', W, 1
0834  0102      	MOVLB 0x02
0836  6F34      	MOVWF usb_handle_00075_arg_sdp+D'6', 1
0838  0101      	MOVLB 0x01
083A  5164      	MOVF gbl_usb_sdp+D'5', W, 1
083C  0102      	MOVLB 0x02
083E  6F33      	MOVWF usb_handle_00075_arg_sdp+D'5', 1
0840  0101      	MOVLB 0x01
0842  5163      	MOVF gbl_usb_sdp+D'4', W, 1
0844  0102      	MOVLB 0x02
0846  6F32      	MOVWF usb_handle_00075_arg_sdp+D'4', 1
0848  0101      	MOVLB 0x01
084A  5162      	MOVF gbl_usb_sdp+D'3', W, 1
084C  0102      	MOVLB 0x02
084E  6F31      	MOVWF usb_handle_00075_arg_sdp+D'3', 1
0850  0101      	MOVLB 0x01
0852  5161      	MOVF gbl_usb_sdp+D'2', W, 1
0854  0102      	MOVLB 0x02
0856  6F30      	MOVWF usb_handle_00075_arg_sdp+D'2', 1
0858  0101      	MOVLB 0x01
085A  5160      	MOVF gbl_usb_sdp+D'1', W, 1
085C  0102      	MOVLB 0x02
085E  6F2F      	MOVWF usb_handle_00075_arg_sdp+D'1', 1
0860  0101      	MOVLB 0x01
0862  515F      	MOVF gbl_usb_sdp, W, 1
0864  0102      	MOVLB 0x02
0866  6F2E      	MOVWF usb_handle_00075_arg_sdp, 1
0868  0E99      	MOVLW 0x99
086A  EFBEF002  	GOTO	usb_handle_00075
086E            label78
086E  D02C      	BRA	label80
0870            label79
0870  0E40      	MOVLW 0x40
0872  0101      	MOVLB 0x01
0874  155F      	ANDWF gbl_usb_sdp, W, 1
0876  0102      	MOVLB 0x02
0878  6F2D      	MOVWF CompTempVar2657, 1
087A  672D      	TSTFSZ CompTempVar2657, 1
087C  D025      	BRA	label80
087E  0101      	MOVLB 0x01
0880  AB5F      	BTFSS gbl_usb_sdp,5, 1
0882  D022      	BRA	label80
0884  5166      	MOVF gbl_usb_sdp+D'7', W, 1
0886  0102      	MOVLB 0x02
0888  6F35      	MOVWF usb_handle_00066_arg_sdp+D'7', 1
088A  0101      	MOVLB 0x01
088C  5165      	MOVF gbl_usb_sdp+D'6', W, 1
088E  0102      	MOVLB 0x02
0890  6F34      	MOVWF usb_handle_00066_arg_sdp+D'6', 1
0892  0101      	MOVLB 0x01
0894  5164      	MOVF gbl_usb_sdp+D'5', W, 1
0896  0102      	MOVLB 0x02
0898  6F33      	MOVWF usb_handle_00066_arg_sdp+D'5', 1
089A  0101      	MOVLB 0x01
089C  5163      	MOVF gbl_usb_sdp+D'4', W, 1
089E  0102      	MOVLB 0x02
08A0  6F32      	MOVWF usb_handle_00066_arg_sdp+D'4', 1
08A2  0101      	MOVLB 0x01
08A4  5162      	MOVF gbl_usb_sdp+D'3', W, 1
08A6  0102      	MOVLB 0x02
08A8  6F31      	MOVWF usb_handle_00066_arg_sdp+D'3', 1
08AA  0101      	MOVLB 0x01
08AC  5161      	MOVF gbl_usb_sdp+D'2', W, 1
08AE  0102      	MOVLB 0x02
08B0  6F30      	MOVWF usb_handle_00066_arg_sdp+D'2', 1
08B2  0101      	MOVLB 0x01
08B4  5160      	MOVF gbl_usb_sdp+D'1', W, 1
08B6  0102      	MOVLB 0x02
08B8  6F2F      	MOVWF usb_handle_00066_arg_sdp+D'1', 1
08BA  0101      	MOVLB 0x01
08BC  515F      	MOVF gbl_usb_sdp, W, 1
08BE  0102      	MOVLB 0x02
08C0  6F2E      	MOVWF usb_handle_00066_arg_sdp, 1
08C2  0E99      	MOVLW 0x99
08C4  EF2FF003  	GOTO	usb_handle_00066
08C8            label80
08C8  9864      	BCF gbl_ucon,4
08CA  D0F0      	BRA	label109
08CC            label81
08CC  0E09      	MOVLW 0x09
08CE  632A      	CPFSEQ usb_handle_0005A_1_pid, 1
08D0  D021      	BRA	label85
08D2  0E03      	MOVLW 0x03
08D4  0101      	MOVLB 0x01
08D6  63E2      	CPFSEQ gbl_control_mode, 1
08D8  D003      	BRA	label82
08DA  EC22F000  	CALL usb_send_d_00061
08DE  D0E6      	BRA	label109
08E0            label82
08E0  0E06      	MOVLW 0x06
08E2  63E2      	CPFSEQ gbl_control_mode, 1
08E4  D00C      	BRA	label83
08E6  6BE2      	CLRF gbl_control_mode, 1
08E8  05E9      	DECF gbl_usb_status, W, 1
08EA  A4D8      	BTFSS STATUS,Z
08EC  D0DF      	BRA	label109
08EE  0E02      	MOVLW 0x02
08F0  6FE0      	MOVWF gbl_usb_state, 1
08F2  51E1      	MOVF gbl_usb_address, W, 1
08F4  010F      	MOVLB 0x0F
08F6  6F5C      	MOVWF gbl_uaddr, 1
08F8  0101      	MOVLB 0x01
08FA  6BE9      	CLRF gbl_usb_status, 1
08FC  D0D7      	BRA	label109
08FE            label83
08FE  0E05      	MOVLW 0x05
0900  63E2      	CPFSEQ gbl_control_mode, 1
0902  D002      	BRA	label84
0904  0000      	NOP
0906  D0D2      	BRA	label109
0908            label84
0908  0E04      	MOVLW 0x04
090A  63E2      	CPFSEQ gbl_control_mode, 1
090C  D0CF      	BRA	label109
090E  EC73F003  	CALL usb_handle_00064
0912  D0CC      	BRA	label109
0914            label85
0914  0E02      	MOVLW 0x02
0916  632A      	CPFSEQ usb_handle_0005A_1_pid, 1
0918  D012      	BRA	label88
091A  0E03      	MOVLW 0x03
091C  0101      	MOVLB 0x01
091E  63E2      	CPFSEQ gbl_control_mode, 1
0920  D003      	BRA	label86
0922  EC22F000  	CALL usb_send_d_00061
0926  D0C2      	BRA	label109
0928            label86
0928  0E04      	MOVLW 0x04
092A  63E2      	CPFSEQ gbl_control_mode, 1
092C  D003      	BRA	label87
092E  EC73F003  	CALL usb_handle_00064
0932  D0BC      	BRA	label109
0934            label87
0934  0E06      	MOVLW 0x06
0936  63E2      	CPFSEQ gbl_control_mode, 1
0938  D0B9      	BRA	label109
093A  6BE2      	CLRF gbl_control_mode, 1
093C  D0B7      	BRA	label109
093E            label88
093E  052A      	DECF usb_handle_0005A_1_pid, W, 1
0940  A4D8      	BTFSS STATUS,Z
0942  D0B4      	BRA	label109
0944  0E05      	MOVLW 0x05
0946  0101      	MOVLB 0x01
0948  63E2      	CPFSEQ gbl_control_mode, 1
094A  D002      	BRA	label89
094C  6BE2      	CLRF gbl_control_mode, 1
094E  D013      	BRA	label92
0950            label89
0950  0E02      	MOVLW 0x02
0952  63E2      	CPFSEQ gbl_control_mode, 1
0954  D00C      	BRA	label91
0956  0E02      	MOVLW HIGH(gbl_buffer_0_out+D'0')
0958  0102      	MOVLB 0x02
095A  6F2C      	MOVWF usb_handle_00065_arg_data+D'1', 1
095C  0E80      	MOVLW LOW(gbl_buffer_0_out+D'0')
095E  6F2B      	MOVWF usb_handle_00065_arg_data, 1
0960  5101      	MOVF gbl_bd0out+D'1', W, 1
0962  6F2D      	MOVWF usb_handle_00065_arg_count, 1
0964  6B2E      	CLRF usb_handle_00065_arg_count+D'1', 1
0966  0E99      	MOVLW 0x99
0968  EF56F003  	GOTO	usb_handle_00065
096C            label90
096C  D004      	BRA	label92
096E            label91
096E  0E03      	MOVLW 0x03
0970  63E2      	CPFSEQ gbl_control_mode, 1
0972  D001      	BRA	label92
0974  6BE2      	CLRF gbl_control_mode, 1
0976            label92
0976  ECAEF002  	CALL usb_prime__00074
097A  D098      	BRA	label109
097C            label93
097C  A463      	BTFSS gbl_ustat,2
097E  D021      	BRA	label102
0980  5329      	MOVF usb_handle_0005A_1_end_point, F, 1
0982  E101      	BNZ	label94
0984  D00A      	BRA	label96
0986            label94
0986  0529      	DECF usb_handle_0005A_1_end_point, W, 1
0988  E00B      	BZ	label97
098A  0E02      	MOVLW 0x02
098C  6329      	CPFSEQ usb_handle_0005A_1_end_point, 1
098E  D001      	BRA	label95
0990  D00A      	BRA	label98
0992            label95
0992  0E03      	MOVLW 0x03
0994  6329      	CPFSEQ usb_handle_0005A_1_end_point, 1
0996  D00C      	BRA	label100
0998  D009      	BRA	label99
099A            label96
099A  5105      	MOVF gbl_bd0in+D'1', W, 1
099C  6F2B      	MOVWF usb_handle_0005A_88_count, 1
099E  D008      	BRA	label100
09A0            label97
09A0  510D      	MOVF gbl_bd1in+D'1', W, 1
09A2  6F2B      	MOVWF usb_handle_0005A_88_count, 1
09A4  D005      	BRA	label100
09A6            label98
09A6  5115      	MOVF gbl_bd2in+D'1', W, 1
09A8  6F2B      	MOVWF usb_handle_0005A_88_count, 1
09AA  D002      	BRA	label100
09AC            label99
09AC  511D      	MOVF gbl_bd3in+D'1', W, 1
09AE  6F2B      	MOVWF usb_handle_0005A_88_count, 1
09B0            label100
09B0  5129      	MOVF usb_handle_0005A_1_end_point, W, 1
09B2  6F2C      	MOVWF usb_ep_dat_0006F_arg_end_point, 1
09B4  512B      	MOVF usb_handle_0005A_88_count, W, 1
09B6  6F2D      	MOVWF usb_ep_dat_0006F_arg_byte_count, 1
09B8  6B2E      	CLRF usb_ep_dat_0006F_arg_byte_count+D'1', 1
09BA  0E99      	MOVLW 0x99
09BC  EF7AF003  	GOTO	usb_ep_dat_0006F
09C0            label101
09C0  D075      	BRA	label109
09C2            label102
09C2  5329      	MOVF usb_handle_0005A_1_end_point, F, 1
09C4  E00A      	BZ	label104
09C6  0529      	DECF usb_handle_0005A_1_end_point, W, 1
09C8  E011      	BZ	label105
09CA  0E02      	MOVLW 0x02
09CC  6329      	CPFSEQ usb_handle_0005A_1_end_point, 1
09CE  D001      	BRA	label103
09D0  D01A      	BRA	label106
09D2            label103
09D2  0E03      	MOVLW 0x03
09D4  6329      	CPFSEQ usb_handle_0005A_1_end_point, 1
09D6  D030      	BRA	label108
09D8  D023      	BRA	label107
09DA            label104
09DA  0E02      	MOVLW HIGH(gbl_bd0out+D'0')
09DC  6F2C      	MOVWF usb_handle_0005A_97_bdstat+D'1', 1
09DE  0E00      	MOVLW LOW(gbl_bd0out+D'0')
09E0  6F2B      	MOVWF usb_handle_0005A_97_bdstat, 1
09E2  0E02      	MOVLW HIGH(gbl_bd0out+D'1')
09E4  6F2E      	MOVWF usb_handle_0005A_97_bdcount+D'1', 1
09E6  0E01      	MOVLW LOW(gbl_bd0out+D'1')
09E8  6F2D      	MOVWF usb_handle_0005A_97_bdcount, 1
09EA  D026      	BRA	label108
09EC            label105
09EC  0E02      	MOVLW HIGH(gbl_bd1out+D'0')
09EE  6F2F      	MOVWF CompTempVar2663, 1
09F0  0E08      	MOVLW LOW(gbl_bd1out+D'0')
09F2  6F2B      	MOVWF usb_handle_0005A_97_bdstat, 1
09F4  512F      	MOVF CompTempVar2663, W, 1
09F6  6F2C      	MOVWF usb_handle_0005A_97_bdstat+D'1', 1
09F8  0E02      	MOVLW HIGH(gbl_bd1out+D'1')
09FA  6F2F      	MOVWF CompTempVar2664, 1
09FC  0E09      	MOVLW LOW(gbl_bd1out+D'1')
09FE  6F2D      	MOVWF usb_handle_0005A_97_bdcount, 1
0A00  512F      	MOVF CompTempVar2664, W, 1
0A02  6F2E      	MOVWF usb_handle_0005A_97_bdcount+D'1', 1
0A04  D019      	BRA	label108
0A06            label106
0A06  0E02      	MOVLW HIGH(gbl_bd2out+D'0')
0A08  6F2F      	MOVWF CompTempVar2665, 1
0A0A  0E10      	MOVLW LOW(gbl_bd2out+D'0')
0A0C  6F2B      	MOVWF usb_handle_0005A_97_bdstat, 1
0A0E  512F      	MOVF CompTempVar2665, W, 1
0A10  6F2C      	MOVWF usb_handle_0005A_97_bdstat+D'1', 1
0A12  0E02      	MOVLW HIGH(gbl_bd2out+D'1')
0A14  6F2F      	MOVWF CompTempVar2666, 1
0A16  0E11      	MOVLW LOW(gbl_bd2out+D'1')
0A18  6F2D      	MOVWF usb_handle_0005A_97_bdcount, 1
0A1A  512F      	MOVF CompTempVar2666, W, 1
0A1C  6F2E      	MOVWF usb_handle_0005A_97_bdcount+D'1', 1
0A1E  D00C      	BRA	label108
0A20            label107
0A20  0E02      	MOVLW HIGH(gbl_bd3out+D'0')
0A22  6F2F      	MOVWF CompTempVar2667, 1
0A24  0E18      	MOVLW LOW(gbl_bd3out+D'0')
0A26  6F2B      	MOVWF usb_handle_0005A_97_bdstat, 1
0A28  512F      	MOVF CompTempVar2667, W, 1
0A2A  6F2C      	MOVWF usb_handle_0005A_97_bdstat+D'1', 1
0A2C  0E02      	MOVLW HIGH(gbl_bd3out+D'1')
0A2E  6F2F      	MOVWF CompTempVar2668, 1
0A30  0E19      	MOVLW LOW(gbl_bd3out+D'1')
0A32  6F2D      	MOVWF usb_handle_0005A_97_bdcount, 1
0A34  512F      	MOVF CompTempVar2668, W, 1
0A36  6F2E      	MOVWF usb_handle_0005A_97_bdcount+D'1', 1
0A38            label108
0A38  5129      	MOVF usb_handle_0005A_1_end_point, W, 1
0A3A  6F2F      	MOVWF usb_ep_dat_0006E_arg_end_point, 1
0A3C  0101      	MOVLB 0x01
0A3E  EE01F06F  	LFSR 0x00, gbl_ep_out_buffer_location
0A42  50E9      	MOVF FSR0L, W
0A44  0102      	MOVLB 0x02
0A46  5129      	MOVF usb_handle_0005A_1_end_point, W, 1
0A48  6F34      	MOVWF CompTempVar2675, 1
0A4A  90D8      	BCF STATUS,C
0A4C  3534      	RLCF CompTempVar2675, W, 1
0A4E  26E9      	ADDWF FSR0L, F
0A50  50EE      	MOVF POSTINC0, W
0A52  6F30      	MOVWF usb_ep_dat_0006E_arg_buffer, 1
0A54  50EF      	MOVF INDF0, W
0A56  6F31      	MOVWF usb_ep_dat_0006E_arg_buffer+D'1', 1
0A58  512E      	MOVF usb_handle_0005A_97_bdcount+D'1', W, 1
0A5A  6EEA      	MOVWF FSR0H
0A5C  512D      	MOVF usb_handle_0005A_97_bdcount, W, 1
0A5E  6EE9      	MOVWF FSR0L
0A60  50EF      	MOVF INDF0, W
0A62  6F32      	MOVWF usb_ep_dat_0006E_arg_byte_count, 1
0A64  6B33      	CLRF usb_ep_dat_0006E_arg_byte_count+D'1', 1
0A66  EC7EF003  	CALL usb_ep_dat_0006E
0A6A  0101      	MOVLB 0x01
0A6C  EE01F07F  	LFSR 0x00, gbl_ep_out_buffer_size
0A70  50E9      	MOVF FSR0L, W
0A72  0102      	MOVLB 0x02
0A74  5129      	MOVF usb_handle_0005A_1_end_point, W, 1
0A76  6F2F      	MOVWF CompTempVar2678, 1
0A78  90D8      	BCF STATUS,C
0A7A  372F      	RLCF CompTempVar2678, F, 1
0A7C  512F      	MOVF CompTempVar2678, W, 1
0A7E  26E9      	ADDWF FSR0L, F
0A80  50EE      	MOVF POSTINC0, W
0A82  6F30      	MOVWF CompTempVar2680, 1
0A84  50EF      	MOVF INDF0, W
0A86  6F31      	MOVWF CompTempVar2680+D'1', 1
0A88  512E      	MOVF usb_handle_0005A_97_bdcount+D'1', W, 1
0A8A  6EEA      	MOVWF FSR0H
0A8C  512D      	MOVF usb_handle_0005A_97_bdcount, W, 1
0A8E  6EE9      	MOVWF FSR0L
0A90  5130      	MOVF CompTempVar2680, W, 1
0A92  6EEF      	MOVWF INDF0
0A94  512C      	MOVF usb_handle_0005A_97_bdstat+D'1', W, 1
0A96  6EEA      	MOVWF FSR0H
0A98  512B      	MOVF usb_handle_0005A_97_bdstat, W, 1
0A9A  6EE9      	MOVWF FSR0L
0A9C  9CEF      	BCF INDF0,6
0A9E  9AEF      	BCF INDF0,5
0AA0  98EF      	BCF INDF0,4
0AA2  96EF      	BCF INDF0,3
0AA4  94EF      	BCF INDF0,2
0AA6  92EF      	BCF INDF0,1
0AA8  90EF      	BCF INDF0,0
0AAA  8EEF      	BSF INDF0,7
0AAC            label109
0AAC  EF67F005  	GOTO	label111
0AB0            ; } usb_handle_transaction function end

	ORG 0x00000AB0
0AB0            usb_SOF_ca_0005D
0AB0            ; { usb_SOF_callback ; function begin
0AB0  EC06F002  	CALL usb_cdc_ha_00070
0AB4  EF7CF005  	GOTO	label115
0AB8            ; } usb_SOF_callback function end

	ORG 0x00000AB8
0AB8            usb_handle_00059
0AB8            ; { usb_handle_isr ; function begin
0AB8  A4A1      	BTFSS gbl_pir2,2
0ABA  D01F      	BRA	label116
0ABC  94A1      	BCF gbl_pir2,2
0ABE  A862      	BTFSS gbl_uir,4
0AC0  D001      	BRA	label110
0AC2  9862      	BCF gbl_uir,4
0AC4            label110
0AC4  A662      	BTFSS gbl_uir,3
0AC6  D004      	BRA	label112
0AC8  0E99      	MOVLW 0x99
0ACA  EFD9F003  	GOTO	usb_handle_0005A
0ACE            label111
0ACE  9662      	BCF gbl_uir,3
0AD0            label112
0AD0  A062      	BTFSS gbl_uir,0
0AD2  D003      	BRA	label113
0AD4  ECB4F003  	CALL usb_handle_0005B
0AD8  9062      	BCF gbl_uir,0
0ADA            label113
0ADA  AA62      	BTFSS gbl_uir,5
0ADC  D003      	BRA	label114
0ADE  ECB3F003  	CALL usb_handle_0005C
0AE2  9A62      	BCF gbl_uir,5
0AE4            label114
0AE4  AC62      	BTFSS gbl_uir,6
0AE6  D009      	BRA	label116
0AE8  010F      	MOVLB 0x0F
0AEA  515D      	MOVF gbl_ufrml, W, 1
0AEC  0102      	MOVLB 0x02
0AEE  6F29      	MOVWF usb_SOF_ca_0005D_arg_frame, 1
0AF0  6B2A      	CLRF usb_SOF_ca_0005D_arg_frame+D'1', 1
0AF2  0E99      	MOVLW 0x99
0AF4  EF58F005  	GOTO	usb_SOF_ca_0005D
0AF8            label115
0AF8  9C62      	BCF gbl_uir,6
0AFA            label116
0AFA  EF47F00A  	GOTO	label153
0AFE            ; } usb_handle_isr function end

	ORG 0x00000AFE
0AFE            usb_setup_00000
0AFE            ; { usb_setup ; function begin
0AFE  0101      	MOVLB 0x01
0B00  6BE0      	CLRF gbl_usb_state, 1
0B02  9661      	BCF gbl_ucfg,3
0B04  8461      	BSF gbl_ucfg,2
0B06  8861      	BSF gbl_ucfg,4
0B08  9261      	BCF gbl_ucfg,1
0B0A  9061      	BCF gbl_ucfg,0
0B0C  010F      	MOVLB 0x0F
0B0E  8953      	BSF gbl_uep0,4, 1
0B10  8553      	BSF gbl_uep0,2, 1
0B12  8353      	BSF gbl_uep0,1, 1
0B14  9753      	BCF gbl_uep0,3, 1
0B16  8A60      	BSF gbl_uie,5
0B18  8660      	BSF gbl_uie,3
0B1A  8060      	BSF gbl_uie,0
0B1C  84A0      	BSF gbl_pie2,2
0B1E  8C60      	BSF gbl_uie,6
0B20  0012      	RETURN
0B22            ; } usb_setup function end

	ORG 0x00000B22
0B22            usb_ep_get_0007D
0B22            ; { usb_ep_get_rx_buffer ; function begin
0B22  0E40      	MOVLW 0x40
0B24  65F8      	CPFSGT usb_ep_get_0007D_arg_length, 1
0B26  D002      	BRA	label117
0B28  0E40      	MOVLW 0x40
0B2A  6FF8      	MOVWF usb_ep_get_0007D_arg_length, 1
0B2C            label117
0B2C  6BFB      	CLRF usb_ep_get_0007D_1_count, 1
0B2E            label118
0B2E  51F8      	MOVF usb_ep_get_0007D_arg_length, W, 1
0B30  61FB      	CPFSLT usb_ep_get_0007D_1_count, 1
0B32  D014      	BRA	label119
0B34  0100      	MOVLB 0x00
0B36  EE00F0A0  	LFSR 0x00, gbl_cdc_rx_buffer
0B3A  50E9      	MOVF FSR0L, W
0B3C  0101      	MOVLB 0x01
0B3E  51FB      	MOVF usb_ep_get_0007D_1_count, W, 1
0B40  6FFC      	MOVWF CompTempVar2749, 1
0B42  51FC      	MOVF CompTempVar2749, W, 1
0B44  26E9      	ADDWF FSR0L, F
0B46  50EF      	MOVF INDF0, W
0B48  6FFD      	MOVWF CompTempVar2750, 1
0B4A  51FA      	MOVF usb_ep_get_0007D_arg_buffer+D'1', W, 1
0B4C  6EEA      	MOVWF FSR0H
0B4E  51F9      	MOVF usb_ep_get_0007D_arg_buffer, W, 1
0B50  25FB      	ADDWF usb_ep_get_0007D_1_count, W, 1
0B52  6EE9      	MOVWF FSR0L
0B54  51FD      	MOVF CompTempVar2750, W, 1
0B56  6EEF      	MOVWF INDF0
0B58  2BFB      	INCF usb_ep_get_0007D_1_count, F, 1
0B5A  D7E9      	BRA	label118
0B5C            label119
0B5C  51ED      	MOVF gbl_cdc_rx_start, W, 1
0B5E  6FEE      	MOVWF gbl_cdc_rx_end, 1
0B60  0012      	RETURN
0B62            ; } usb_ep_get_rx_buffer function end

	ORG 0x00000B62
0B62            usb_enable_0005E
0B62            ; { usb_enable_module ; function begin
0B62  6A62      	CLRF gbl_uir
0B64  8664      	BSF gbl_ucon,3
0B66  0E01      	MOVLW 0x01
0B68  0101      	MOVLB 0x01
0B6A  6FE0      	MOVWF gbl_usb_state, 1
0B6C  0012      	RETURN
0B6E            ; } usb_enable_module function end

	ORG 0x00000B6E
0B6E            usb_config_0007E
0B6E            ; { usb_configure_structures ; function begin
0B6E  0E12      	MOVLW 0x12
0B70  6E48      	MOVWF gbl_my_device_descriptor
0B72  0E01      	MOVLW 0x01
0B74  6E49      	MOVWF gbl_my_device_descriptor+D'1'
0B76  0E10      	MOVLW 0x10
0B78  6E4A      	MOVWF gbl_my_device_descriptor+D'2'
0B7A  0E01      	MOVLW 0x01
0B7C  6E4B      	MOVWF gbl_my_device_descriptor+D'3'
0B7E  0E02      	MOVLW 0x02
0B80  6E4C      	MOVWF gbl_my_device_descriptor+D'4'
0B82  6A4D      	CLRF gbl_my_device_descriptor+D'5'
0B84  6A4E      	CLRF gbl_my_device_descriptor+D'6'
0B86  0E08      	MOVLW 0x08
0B88  6E4F      	MOVWF gbl_my_device_descriptor+D'7'
0B8A  0EBF      	MOVLW 0xBF
0B8C  6E50      	MOVWF gbl_my_device_descriptor+D'8'
0B8E  0E12      	MOVLW 0x12
0B90  6E51      	MOVWF gbl_my_device_descriptor+D'9'
0B92  0E10      	MOVLW 0x10
0B94  6E52      	MOVWF gbl_my_device_descriptor+D'10'
0B96  0EF0      	MOVLW 0xF0
0B98  6E53      	MOVWF gbl_my_device_descriptor+D'11'
0B9A  6A54      	CLRF gbl_my_device_descriptor+D'12'
0B9C  0E01      	MOVLW 0x01
0B9E  6E55      	MOVWF gbl_my_device_descriptor+D'13'
0BA0  6E56      	MOVWF gbl_my_device_descriptor+D'14'
0BA2  0E02      	MOVLW 0x02
0BA4  6E57      	MOVWF gbl_my_device_descriptor+D'15'
0BA6  6A58      	CLRF gbl_my_device_descriptor+D'16'
0BA8  0E01      	MOVLW 0x01
0BAA  6E59      	MOVWF gbl_my_device_descriptor+D'17'
0BAC  0E09      	MOVLW 0x09
0BAE  0100      	MOVLB 0x00
0BB0  6FEA      	MOVWF gbl_my_config, 1
0BB2  0E02      	MOVLW 0x02
0BB4  6FEB      	MOVWF gbl_my_config+D'1', 1
0BB6  0E43      	MOVLW 0x43
0BB8  6FEC      	MOVWF gbl_my_config+D'2', 1
0BBA  6BED      	CLRF gbl_my_config+D'3', 1
0BBC  0E02      	MOVLW 0x02
0BBE  6FEE      	MOVWF gbl_my_config+D'4', 1
0BC0  0E01      	MOVLW 0x01
0BC2  6FEF      	MOVWF gbl_my_config+D'5', 1
0BC4  6BF0      	CLRF gbl_my_config+D'6', 1
0BC6  0E80      	MOVLW 0x80
0BC8  6FF1      	MOVWF gbl_my_config+D'7', 1
0BCA  0E64      	MOVLW 0x64
0BCC  6FF2      	MOVWF gbl_my_config+D'8', 1
0BCE  0E09      	MOVLW 0x09
0BD0  6FF3      	MOVWF gbl_my_comm_interface, 1
0BD2  0E04      	MOVLW 0x04
0BD4  6FF4      	MOVWF gbl_my_comm_interface+D'1', 1
0BD6  6BF5      	CLRF gbl_my_comm_interface+D'2', 1
0BD8  6BF6      	CLRF gbl_my_comm_interface+D'3', 1
0BDA  0E01      	MOVLW 0x01
0BDC  6FF7      	MOVWF gbl_my_comm_interface+D'4', 1
0BDE  0E02      	MOVLW 0x02
0BE0  6FF8      	MOVWF gbl_my_comm_interface+D'5', 1
0BE2  6FF9      	MOVWF gbl_my_comm_interface+D'6', 1
0BE4  0E01      	MOVLW 0x01
0BE6  6FFA      	MOVWF gbl_my_comm_interface+D'7', 1
0BE8  6BFB      	CLRF gbl_my_comm_interface+D'8', 1
0BEA  0E05      	MOVLW 0x05
0BEC  6E5A      	MOVWF gbl_my_header
0BEE  0E24      	MOVLW 0x24
0BF0  6E5B      	MOVWF gbl_my_header+D'1'
0BF2  6A5C      	CLRF gbl_my_header+D'2'
0BF4  0E10      	MOVLW 0x10
0BF6  6E5D      	MOVWF gbl_my_header+D'3'
0BF8  0E01      	MOVLW 0x01
0BFA  6E5E      	MOVWF gbl_my_header+D'4'
0BFC  0E04      	MOVLW 0x04
0BFE  0101      	MOVLB 0x01
0C00  6FBE      	MOVWF gbl_my_ACM, 1
0C02  0E24      	MOVLW 0x24
0C04  6FBF      	MOVWF gbl_my_ACM+D'1', 1
0C06  0E02      	MOVLW 0x02
0C08  6FC0      	MOVWF gbl_my_ACM+D'2', 1
0C0A  6FC1      	MOVWF gbl_my_ACM+D'3', 1
0C0C  0E05      	MOVLW 0x05
0C0E  6FA4      	MOVWF gbl_my_union, 1
0C10  0E24      	MOVLW 0x24
0C12  6FA5      	MOVWF gbl_my_union+D'1', 1
0C14  0E06      	MOVLW 0x06
0C16  6FA6      	MOVWF gbl_my_union+D'2', 1
0C18  6BA7      	CLRF gbl_my_union+D'3', 1
0C1A  0E01      	MOVLW 0x01
0C1C  6FA8      	MOVWF gbl_my_union+D'4', 1
0C1E  0E05      	MOVLW 0x05
0C20  6FA9      	MOVWF gbl_my_call_mgt, 1
0C22  0E24      	MOVLW 0x24
0C24  6FAA      	MOVWF gbl_my_call_mgt+D'1', 1
0C26  0E01      	MOVLW 0x01
0C28  6FAB      	MOVWF gbl_my_call_mgt+D'2', 1
0C2A  6BAC      	CLRF gbl_my_call_mgt+D'3', 1
0C2C  0E01      	MOVLW 0x01
0C2E  6FAD      	MOVWF gbl_my_call_mgt+D'4', 1
0C30  0E07      	MOVLW 0x07
0C32  6F8F      	MOVWF gbl_my_notification_ep, 1
0C34  0E05      	MOVLW 0x05
0C36  6F90      	MOVWF gbl_my_notification_ep+D'1', 1
0C38  0E82      	MOVLW 0x82
0C3A  6F91      	MOVWF gbl_my_notification_ep+D'2', 1
0C3C  0E03      	MOVLW 0x03
0C3E  6F92      	MOVWF gbl_my_notification_ep+D'3', 1
0C40  0E08      	MOVLW 0x08
0C42  6F93      	MOVWF gbl_my_notification_ep+D'4', 1
0C44  6B94      	CLRF gbl_my_notification_ep+D'5', 1
0C46  0E02      	MOVLW 0x02
0C48  6F95      	MOVWF gbl_my_notification_ep+D'6', 1
0C4A  0E09      	MOVLW 0x09
0C4C  6F56      	MOVWF gbl_my_data_interface, 1
0C4E  0E04      	MOVLW 0x04
0C50  6F57      	MOVWF gbl_my_data_interface+D'1', 1
0C52  0E01      	MOVLW 0x01
0C54  6F58      	MOVWF gbl_my_data_interface+D'2', 1
0C56  6B59      	CLRF gbl_my_data_interface+D'3', 1
0C58  0E02      	MOVLW 0x02
0C5A  6F5A      	MOVWF gbl_my_data_interface+D'4', 1
0C5C  0E0A      	MOVLW 0x0A
0C5E  6F5B      	MOVWF gbl_my_data_interface+D'5', 1
0C60  6B5C      	CLRF gbl_my_data_interface+D'6', 1
0C62  6B5D      	CLRF gbl_my_data_interface+D'7', 1
0C64  6B5E      	CLRF gbl_my_data_interface+D'8', 1
0C66  0E07      	MOVLW 0x07
0C68  6F96      	MOVWF gbl_my_data_out_ep, 1
0C6A  0E05      	MOVLW 0x05
0C6C  6F97      	MOVWF gbl_my_data_out_ep+D'1', 1
0C6E  0E03      	MOVLW 0x03
0C70  6F98      	MOVWF gbl_my_data_out_ep+D'2', 1
0C72  0E02      	MOVLW 0x02
0C74  6F99      	MOVWF gbl_my_data_out_ep+D'3', 1
0C76  0E08      	MOVLW 0x08
0C78  6F9A      	MOVWF gbl_my_data_out_ep+D'4', 1
0C7A  6B9B      	CLRF gbl_my_data_out_ep+D'5', 1
0C7C  6B9C      	CLRF gbl_my_data_out_ep+D'6', 1
0C7E  0E07      	MOVLW 0x07
0C80  6F9D      	MOVWF gbl_my_data_in_ep, 1
0C82  0E05      	MOVLW 0x05
0C84  6F9E      	MOVWF gbl_my_data_in_ep+D'1', 1
0C86  0E83      	MOVLW 0x83
0C88  6F9F      	MOVWF gbl_my_data_in_ep+D'2', 1
0C8A  0E02      	MOVLW 0x02
0C8C  6FA0      	MOVWF gbl_my_data_in_ep+D'3', 1
0C8E  0E08      	MOVLW 0x08
0C90  6FA1      	MOVWF gbl_my_data_in_ep+D'4', 1
0C92  6BA2      	CLRF gbl_my_data_in_ep+D'5', 1
0C94  6BA3      	CLRF gbl_my_data_in_ep+D'6', 1
0C96  0100      	MOVLB 0x00
0C98  51F2      	MOVF gbl_my_config+D'8', W, 1
0C9A  6E0D      	MOVWF gbl_complete_serial_config_00000+D'8'
0C9C  51F1      	MOVF gbl_my_config+D'7', W, 1
0C9E  6E0C      	MOVWF gbl_complete_serial_config_00000+D'7'
0CA0  51F0      	MOVF gbl_my_config+D'6', W, 1
0CA2  6E0B      	MOVWF gbl_complete_serial_config_00000+D'6'
0CA4  51EF      	MOVF gbl_my_config+D'5', W, 1
0CA6  6E0A      	MOVWF gbl_complete_serial_config_00000+D'5'
0CA8  51EE      	MOVF gbl_my_config+D'4', W, 1
0CAA  6E09      	MOVWF gbl_complete_serial_config_00000+D'4'
0CAC  51ED      	MOVF gbl_my_config+D'3', W, 1
0CAE  6E08      	MOVWF gbl_complete_serial_config_00000+D'3'
0CB0  51EC      	MOVF gbl_my_config+D'2', W, 1
0CB2  6E07      	MOVWF gbl_complete_serial_config_00000+D'2'
0CB4  51EB      	MOVF gbl_my_config+D'1', W, 1
0CB6  6E06      	MOVWF gbl_complete_serial_config_00000+D'1'
0CB8  51EA      	MOVF gbl_my_config, W, 1
0CBA  6E05      	MOVWF gbl_complete_serial_config_00000
0CBC  51FB      	MOVF gbl_my_comm_interface+D'8', W, 1
0CBE  6E16      	MOVWF gbl_complete_serial_config_00000+D'17'
0CC0  51FA      	MOVF gbl_my_comm_interface+D'7', W, 1
0CC2  6E15      	MOVWF gbl_complete_serial_config_00000+D'16'
0CC4  51F9      	MOVF gbl_my_comm_interface+D'6', W, 1
0CC6  6E14      	MOVWF gbl_complete_serial_config_00000+D'15'
0CC8  51F8      	MOVF gbl_my_comm_interface+D'5', W, 1
0CCA  6E13      	MOVWF gbl_complete_serial_config_00000+D'14'
0CCC  51F7      	MOVF gbl_my_comm_interface+D'4', W, 1
0CCE  6E12      	MOVWF gbl_complete_serial_config_00000+D'13'
0CD0  51F6      	MOVF gbl_my_comm_interface+D'3', W, 1
0CD2  6E11      	MOVWF gbl_complete_serial_config_00000+D'12'
0CD4  51F5      	MOVF gbl_my_comm_interface+D'2', W, 1
0CD6  6E10      	MOVWF gbl_complete_serial_config_00000+D'11'
0CD8  51F4      	MOVF gbl_my_comm_interface+D'1', W, 1
0CDA  6E0F      	MOVWF gbl_complete_serial_config_00000+D'10'
0CDC  51F3      	MOVF gbl_my_comm_interface, W, 1
0CDE  6E0E      	MOVWF gbl_complete_serial_config_00000+D'9'
0CE0  505E      	MOVF gbl_my_header+D'4', W
0CE2  6E1B      	MOVWF gbl_complete_serial_config_00000+D'22'
0CE4  505D      	MOVF gbl_my_header+D'3', W
0CE6  6E1A      	MOVWF gbl_complete_serial_config_00000+D'21'
0CE8  505C      	MOVF gbl_my_header+D'2', W
0CEA  6E19      	MOVWF gbl_complete_serial_config_00000+D'20'
0CEC  505B      	MOVF gbl_my_header+D'1', W
0CEE  6E18      	MOVWF gbl_complete_serial_config_00000+D'19'
0CF0  505A      	MOVF gbl_my_header, W
0CF2  6E17      	MOVWF gbl_complete_serial_config_00000+D'18'
0CF4  0101      	MOVLB 0x01
0CF6  51C1      	MOVF gbl_my_ACM+D'3', W, 1
0CF8  6E1F      	MOVWF gbl_complete_serial_config_00000+D'26'
0CFA  51C0      	MOVF gbl_my_ACM+D'2', W, 1
0CFC  6E1E      	MOVWF gbl_complete_serial_config_00000+D'25'
0CFE  51BF      	MOVF gbl_my_ACM+D'1', W, 1
0D00  6E1D      	MOVWF gbl_complete_serial_config_00000+D'24'
0D02  51BE      	MOVF gbl_my_ACM, W, 1
0D04  6E1C      	MOVWF gbl_complete_serial_config_00000+D'23'
0D06  51A8      	MOVF gbl_my_union+D'4', W, 1
0D08  6E24      	MOVWF gbl_complete_serial_config_00000+D'31'
0D0A  51A7      	MOVF gbl_my_union+D'3', W, 1
0D0C  6E23      	MOVWF gbl_complete_serial_config_00000+D'30'
0D0E  51A6      	MOVF gbl_my_union+D'2', W, 1
0D10  6E22      	MOVWF gbl_complete_serial_config_00000+D'29'
0D12  51A5      	MOVF gbl_my_union+D'1', W, 1
0D14  6E21      	MOVWF gbl_complete_serial_config_00000+D'28'
0D16  51A4      	MOVF gbl_my_union, W, 1
0D18  6E20      	MOVWF gbl_complete_serial_config_00000+D'27'
0D1A  51AD      	MOVF gbl_my_call_mgt+D'4', W, 1
0D1C  6E29      	MOVWF gbl_complete_serial_config_00000+D'36'
0D1E  51AC      	MOVF gbl_my_call_mgt+D'3', W, 1
0D20  6E28      	MOVWF gbl_complete_serial_config_00000+D'35'
0D22  51AB      	MOVF gbl_my_call_mgt+D'2', W, 1
0D24  6E27      	MOVWF gbl_complete_serial_config_00000+D'34'
0D26  51AA      	MOVF gbl_my_call_mgt+D'1', W, 1
0D28  6E26      	MOVWF gbl_complete_serial_config_00000+D'33'
0D2A  51A9      	MOVF gbl_my_call_mgt, W, 1
0D2C  6E25      	MOVWF gbl_complete_serial_config_00000+D'32'
0D2E  5195      	MOVF gbl_my_notification_ep+D'6', W, 1
0D30  6E30      	MOVWF gbl_complete_serial_config_00000+D'43'
0D32  5194      	MOVF gbl_my_notification_ep+D'5', W, 1
0D34  6E2F      	MOVWF gbl_complete_serial_config_00000+D'42'
0D36  5193      	MOVF gbl_my_notification_ep+D'4', W, 1
0D38  6E2E      	MOVWF gbl_complete_serial_config_00000+D'41'
0D3A  5192      	MOVF gbl_my_notification_ep+D'3', W, 1
0D3C  6E2D      	MOVWF gbl_complete_serial_config_00000+D'40'
0D3E  5191      	MOVF gbl_my_notification_ep+D'2', W, 1
0D40  6E2C      	MOVWF gbl_complete_serial_config_00000+D'39'
0D42  5190      	MOVF gbl_my_notification_ep+D'1', W, 1
0D44  6E2B      	MOVWF gbl_complete_serial_config_00000+D'38'
0D46  518F      	MOVF gbl_my_notification_ep, W, 1
0D48  6E2A      	MOVWF gbl_complete_serial_config_00000+D'37'
0D4A  515E      	MOVF gbl_my_data_interface+D'8', W, 1
0D4C  6E39      	MOVWF gbl_complete_serial_config_00000+D'52'
0D4E  515D      	MOVF gbl_my_data_interface+D'7', W, 1
0D50  6E38      	MOVWF gbl_complete_serial_config_00000+D'51'
0D52  515C      	MOVF gbl_my_data_interface+D'6', W, 1
0D54  6E37      	MOVWF gbl_complete_serial_config_00000+D'50'
0D56  515B      	MOVF gbl_my_data_interface+D'5', W, 1
0D58  6E36      	MOVWF gbl_complete_serial_config_00000+D'49'
0D5A  515A      	MOVF gbl_my_data_interface+D'4', W, 1
0D5C  6E35      	MOVWF gbl_complete_serial_config_00000+D'48'
0D5E  5159      	MOVF gbl_my_data_interface+D'3', W, 1
0D60  6E34      	MOVWF gbl_complete_serial_config_00000+D'47'
0D62  5158      	MOVF gbl_my_data_interface+D'2', W, 1
0D64  6E33      	MOVWF gbl_complete_serial_config_00000+D'46'
0D66  5157      	MOVF gbl_my_data_interface+D'1', W, 1
0D68  6E32      	MOVWF gbl_complete_serial_config_00000+D'45'
0D6A  5156      	MOVF gbl_my_data_interface, W, 1
0D6C  6E31      	MOVWF gbl_complete_serial_config_00000+D'44'
0D6E  519C      	MOVF gbl_my_data_out_ep+D'6', W, 1
0D70  6E40      	MOVWF gbl_complete_serial_config_00000+D'59'
0D72  519B      	MOVF gbl_my_data_out_ep+D'5', W, 1
0D74  6E3F      	MOVWF gbl_complete_serial_config_00000+D'58'
0D76  519A      	MOVF gbl_my_data_out_ep+D'4', W, 1
0D78  6E3E      	MOVWF gbl_complete_serial_config_00000+D'57'
0D7A  5199      	MOVF gbl_my_data_out_ep+D'3', W, 1
0D7C  6E3D      	MOVWF gbl_complete_serial_config_00000+D'56'
0D7E  5198      	MOVF gbl_my_data_out_ep+D'2', W, 1
0D80  6E3C      	MOVWF gbl_complete_serial_config_00000+D'55'
0D82  5197      	MOVF gbl_my_data_out_ep+D'1', W, 1
0D84  6E3B      	MOVWF gbl_complete_serial_config_00000+D'54'
0D86  5196      	MOVF gbl_my_data_out_ep, W, 1
0D88  6E3A      	MOVWF gbl_complete_serial_config_00000+D'53'
0D8A  51A3      	MOVF gbl_my_data_in_ep+D'6', W, 1
0D8C  6E47      	MOVWF gbl_complete_serial_config_00000+D'66'
0D8E  51A2      	MOVF gbl_my_data_in_ep+D'5', W, 1
0D90  6E46      	MOVWF gbl_complete_serial_config_00000+D'65'
0D92  51A1      	MOVF gbl_my_data_in_ep+D'4', W, 1
0D94  6E45      	MOVWF gbl_complete_serial_config_00000+D'64'
0D96  51A0      	MOVF gbl_my_data_in_ep+D'3', W, 1
0D98  6E44      	MOVWF gbl_complete_serial_config_00000+D'63'
0D9A  519F      	MOVF gbl_my_data_in_ep+D'2', W, 1
0D9C  6E43      	MOVWF gbl_complete_serial_config_00000+D'62'
0D9E  519E      	MOVF gbl_my_data_in_ep+D'1', W, 1
0DA0  6E42      	MOVWF gbl_complete_serial_config_00000+D'61'
0DA2  519D      	MOVF gbl_my_data_in_ep, W, 1
0DA4  6E41      	MOVWF gbl_complete_serial_config_00000+D'60'
0DA6  0012      	RETURN
0DA8            ; } usb_configure_structures function end

	ORG 0x00000DA8
0DA8            usb_cdc_se_0007C
0DA8            ; { usb_cdc_setup ; function begin
0DA8  0E01      	MOVLW HIGH(gbl_class_data+D'0')
0DAA  0101      	MOVLB 0x01
0DAC  6FF4      	MOVWF usb_cdc_se_0007C_1_my_lc+D'1', 1
0DAE  0E87      	MOVLW LOW(gbl_class_data+D'0')
0DB0  6FF3      	MOVWF usb_cdc_se_0007C_1_my_lc, 1
0DB2  51F4      	MOVF usb_cdc_se_0007C_1_my_lc+D'1', W, 1
0DB4  6EEA      	MOVWF FSR0H
0DB6  51F3      	MOVF usb_cdc_se_0007C_1_my_lc, W, 1
0DB8  6EE9      	MOVWF FSR0L
0DBA  0E03      	MOVLW 0x03
0DBC  26E9      	ADDWF FSR0L, F
0DBE  0E00      	MOVLW 0x00
0DC0  6FF5      	MOVWF CompTempVar2746, 1
0DC2  6FF6      	MOVWF CompTempVar2746+D'1', 1
0DC4  0E09      	MOVLW 0x09
0DC6  6FF7      	MOVWF CompTempVar2746+D'2', 1
0DC8  0E60      	MOVLW 0x60
0DCA  6EEF      	MOVWF INDF0
0DCC  06E9      	DECF FSR0L, F
0DCE  51F7      	MOVF CompTempVar2746+D'2', W, 1
0DD0  6EEF      	MOVWF INDF0
0DD2  06E9      	DECF FSR0L, F
0DD4  51F6      	MOVF CompTempVar2746+D'1', W, 1
0DD6  6EEF      	MOVWF INDF0
0DD8  06E9      	DECF FSR0L, F
0DDA  51F5      	MOVF CompTempVar2746, W, 1
0DDC  6EEF      	MOVWF INDF0
0DDE  51F3      	MOVF usb_cdc_se_0007C_1_my_lc, W, 1
0DE0  6EE9      	MOVWF FSR0L
0DE2  0E04      	MOVLW 0x04
0DE4  26E9      	ADDWF FSR0L, F
0DE6  0E00      	MOVLW 0x00
0DE8  6EEF      	MOVWF INDF0
0DEA  51F3      	MOVF usb_cdc_se_0007C_1_my_lc, W, 1
0DEC  6EE9      	MOVWF FSR0L
0DEE  0E06      	MOVLW 0x06
0DF0  26E9      	ADDWF FSR0L, F
0DF2  0E08      	MOVLW 0x08
0DF4  6EEF      	MOVWF INDF0
0DF6  51F3      	MOVF usb_cdc_se_0007C_1_my_lc, W, 1
0DF8  6EE9      	MOVWF FSR0L
0DFA  0E05      	MOVLW 0x05
0DFC  26E9      	ADDWF FSR0L, F
0DFE  0E00      	MOVLW 0x00
0E00  6EEF      	MOVWF INDF0
0E02  0012      	RETURN
0E04            ; } usb_cdc_setup function end

	ORG 0x00000E04
0E04            usb_cdc_rx_00079
0E04            ; { usb_cdc_rx_avail ; function begin
0E04  0101      	MOVLB 0x01
0E06  51ED      	MOVF gbl_cdc_rx_start, W, 1
0E08  5DEE      	SUBWF gbl_cdc_rx_end, W, 1
0E0A  6FF8      	MOVWF CompTempVarRet2736, 1
0E0C  0012      	RETURN
0E0E            ; } usb_cdc_rx_avail function end

	ORG 0x00000E0E
0E0E            __mul_32_3_00007
0E0E            ; { __mul_32_32 ; function begin
0E0E  6B25      	CLRF CompTempVarRet426, 1
0E10  6B26      	CLRF CompTempVarRet426+D'1', 1
0E12  6B27      	CLRF CompTempVarRet426+D'2', 1
0E14  6B28      	CLRF CompTempVarRet426+D'3', 1
0E16  6B27      	CLRF CompTempVarRet426+D'2', 1
0E18  6B28      	CLRF CompTempVarRet426+D'3', 1
0E1A  0101      	MOVLB 0x01
0E1C  51F9      	MOVF __mul_32_3_00007_arg_a, W, 1
0E1E  0102      	MOVLB 0x02
0E20  0320      	MULWF __mul_32_3_00007_arg_b, 1
0E22  50F3      	MOVF gbl_prodl, W
0E24  6F25      	MOVWF CompTempVarRet426, 1
0E26  50F4      	MOVF gbl_prodh, W
0E28  6F26      	MOVWF CompTempVarRet426+D'1', 1
0E2A  0101      	MOVLB 0x01
0E2C  51FA      	MOVF __mul_32_3_00007_arg_a+D'1', W, 1
0E2E  0102      	MOVLB 0x02
0E30  0320      	MULWF __mul_32_3_00007_arg_b, 1
0E32  50F3      	MOVF gbl_prodl, W
0E34  2726      	ADDWF CompTempVarRet426+D'1', F, 1
0E36  50F4      	MOVF gbl_prodh, W
0E38  2327      	ADDWFC CompTempVarRet426+D'2', F, 1
0E3A  B0D8      	BTFSC gbl_status,0
0E3C  2B28      	INCF CompTempVarRet426+D'3', F, 1
0E3E  0101      	MOVLB 0x01
0E40  51FB      	MOVF __mul_32_3_00007_arg_a+D'2', W, 1
0E42  0102      	MOVLB 0x02
0E44  0320      	MULWF __mul_32_3_00007_arg_b, 1
0E46  50F3      	MOVF gbl_prodl, W
0E48  2727      	ADDWF CompTempVarRet426+D'2', F, 1
0E4A  50F4      	MOVF gbl_prodh, W
0E4C  2328      	ADDWFC CompTempVarRet426+D'3', F, 1
0E4E  0101      	MOVLB 0x01
0E50  51FC      	MOVF __mul_32_3_00007_arg_a+D'3', W, 1
0E52  0102      	MOVLB 0x02
0E54  0320      	MULWF __mul_32_3_00007_arg_b, 1
0E56  50F3      	MOVF gbl_prodl, W
0E58  2728      	ADDWF CompTempVarRet426+D'3', F, 1
0E5A  0101      	MOVLB 0x01
0E5C  51F9      	MOVF __mul_32_3_00007_arg_a, W, 1
0E5E  0102      	MOVLB 0x02
0E60  0321      	MULWF __mul_32_3_00007_arg_b+D'1', 1
0E62  50F3      	MOVF gbl_prodl, W
0E64  2726      	ADDWF CompTempVarRet426+D'1', F, 1
0E66  50F4      	MOVF gbl_prodh, W
0E68  2327      	ADDWFC CompTempVarRet426+D'2', F, 1
0E6A  B0D8      	BTFSC gbl_status,0
0E6C  2B28      	INCF CompTempVarRet426+D'3', F, 1
0E6E  0101      	MOVLB 0x01
0E70  51FA      	MOVF __mul_32_3_00007_arg_a+D'1', W, 1
0E72  0102      	MOVLB 0x02
0E74  0321      	MULWF __mul_32_3_00007_arg_b+D'1', 1
0E76  50F3      	MOVF gbl_prodl, W
0E78  2727      	ADDWF CompTempVarRet426+D'2', F, 1
0E7A  50F4      	MOVF gbl_prodh, W
0E7C  2328      	ADDWFC CompTempVarRet426+D'3', F, 1
0E7E  0101      	MOVLB 0x01
0E80  51FB      	MOVF __mul_32_3_00007_arg_a+D'2', W, 1
0E82  0102      	MOVLB 0x02
0E84  0321      	MULWF __mul_32_3_00007_arg_b+D'1', 1
0E86  50F3      	MOVF gbl_prodl, W
0E88  2728      	ADDWF CompTempVarRet426+D'3', F, 1
0E8A  0101      	MOVLB 0x01
0E8C  51F9      	MOVF __mul_32_3_00007_arg_a, W, 1
0E8E  0102      	MOVLB 0x02
0E90  0322      	MULWF __mul_32_3_00007_arg_b+D'2', 1
0E92  50F3      	MOVF gbl_prodl, W
0E94  2727      	ADDWF CompTempVarRet426+D'2', F, 1
0E96  50F4      	MOVF gbl_prodh, W
0E98  2328      	ADDWFC CompTempVarRet426+D'3', F, 1
0E9A  0101      	MOVLB 0x01
0E9C  51FA      	MOVF __mul_32_3_00007_arg_a+D'1', W, 1
0E9E  0102      	MOVLB 0x02
0EA0  0322      	MULWF __mul_32_3_00007_arg_b+D'2', 1
0EA2  50F3      	MOVF gbl_prodl, W
0EA4  2728      	ADDWF CompTempVarRet426+D'3', F, 1
0EA6  0101      	MOVLB 0x01
0EA8  51F9      	MOVF __mul_32_3_00007_arg_a, W, 1
0EAA  0102      	MOVLB 0x02
0EAC  0323      	MULWF __mul_32_3_00007_arg_b+D'3', 1
0EAE  50F3      	MOVF gbl_prodl, W
0EB0  2728      	ADDWF CompTempVarRet426+D'3', F, 1
0EB2  0012      	RETURN
0EB4            ; } __mul_32_32 function end

	ORG 0x00000EB4
0EB4            Wdt_Delay__00036
0EB4            ; { Wdt_Delay_Ms ; function begin
0EB4  6BF9      	CLRF Wdt_Delay__00036_1_i, 1
0EB6            label120
0EB6  51F8      	MOVF Wdt_Delay__00036_arg_delay, W, 1
0EB8  61F9      	CPFSLT Wdt_Delay__00036_1_i, 1
0EBA  0012      	RETURN
0EBC  0004      	CLRWDT
0EBE  0E01      	MOVLW 0x01
0EC0  6FFA      	MOVWF delay_ms_00000_arg_del, 1
0EC2  EC06F000  	CALL delay_ms_00000
0EC6  2BF9      	INCF Wdt_Delay__00036_1_i, F, 1
0EC8  D7F6      	BRA	label120
0ECA            ; } Wdt_Delay_Ms function end

	ORG 0x00000ECA
0ECA            FC_CAL_PWM_00052
0ECA            ; { FC_CAL_PWM_SetDuty10Bit_1 ; function begin
0ECA  0EFC      	MOVLW 0xFC
0ECC  15F2      	ANDWF FC_CAL_PWM_00052_arg_duty, W, 1
0ECE  6FF6      	MOVWF CompTempVar2643, 1
0ED0  51F3      	MOVF FC_CAL_PWM_00052_arg_duty+D'1', W, 1
0ED2  0B03      	ANDLW 0x03
0ED4  6FF5      	MOVWF CompTempVar2642, 1
0ED6  33F5      	RRCF CompTempVar2642, F, 1
0ED8  33F6      	RRCF CompTempVar2643, F, 1
0EDA  33F5      	RRCF CompTempVar2642, F, 1
0EDC  33F6      	RRCF CompTempVar2643, F, 1
0EDE  51F6      	MOVF CompTempVar2643, W, 1
0EE0  6EBE      	MOVWF gbl_ccpr1l
0EE2  0E03      	MOVLW 0x03
0EE4  17F2      	ANDWF FC_CAL_PWM_00052_arg_duty, F, 1
0EE6  6BF5      	CLRF CompTempVar2647, 1
0EE8  37F2      	RLCF FC_CAL_PWM_00052_arg_duty, F, 1
0EEA  37F5      	RLCF CompTempVar2647, F, 1
0EEC  37F2      	RLCF FC_CAL_PWM_00052_arg_duty, F, 1
0EEE  37F5      	RLCF CompTempVar2647, F, 1
0EF0  37F2      	RLCF FC_CAL_PWM_00052_arg_duty, F, 1
0EF2  37F5      	RLCF CompTempVar2647, F, 1
0EF4  37F2      	RLCF FC_CAL_PWM_00052_arg_duty, F, 1
0EF6  37F5      	RLCF CompTempVar2647, F, 1
0EF8  0EF0      	MOVLW 0xF0
0EFA  17F2      	ANDWF FC_CAL_PWM_00052_arg_duty, F, 1
0EFC  51F5      	MOVF CompTempVar2647, W, 1
0EFE  6FF3      	MOVWF FC_CAL_PWM_00052_arg_duty+D'1', 1
0F00  0ECF      	MOVLW 0xCF
0F02  14BD      	ANDWF gbl_ccp1con, W
0F04  6FF4      	MOVWF FC_CAL_PWM_00052_1_nCCPxCONtemp, 1
0F06  51F2      	MOVF FC_CAL_PWM_00052_arg_duty, W, 1
0F08  13F4      	IORWF FC_CAL_PWM_00052_1_nCCPxCONtemp, F, 1
0F0A  51F4      	MOVF FC_CAL_PWM_00052_1_nCCPxCONtemp, W, 1
0F0C  6EBD      	MOVWF gbl_ccp1con
0F0E  0012      	RETURN
0F10            ; } FC_CAL_PWM_SetDuty10Bit_1 function end

	ORG 0x00000F10
0F10            FC_CAL_PWM_00051
0F10            ; { FC_CAL_PWM_Enable_1 ; function begin
0F10  9A94      	BCF gbl_trisc,5
0F12  9A82      	BCF gbl_portc,5
0F14  0EC0      	MOVLW 0xC0
0F16  6EB7      	MOVWF gbl_pwm1con
0F18  0012      	RETURN
0F1A            ; } FC_CAL_PWM_Enable_1 function end

	ORG 0x00000F1A
0F1A            FC_CAL_PWM_0004E
0F1A            ; { FC_CAL_PWM_ChangePeriod_1 ; function begin
0F1A  51F0      	MOVF FC_CAL_PWM_0004E_arg_period, W, 1
0F1C  6ECB      	MOVWF gbl_pr2
0F1E  0E01      	MOVLW 0x01
0F20  63F2      	CPFSEQ FC_CAL_PWM_0004E_arg_prescaler, 1
0F22  D002      	BRA	label121
0F24  51F3      	MOVF FC_CAL_PWM_0004E_arg_prescaler+D'1', W, 1
0F26  E010      	BZ	label124
0F28            label121
0F28  0E04      	MOVLW 0x04
0F2A  63F2      	CPFSEQ FC_CAL_PWM_0004E_arg_prescaler, 1
0F2C  D002      	BRA	label122
0F2E  51F3      	MOVF FC_CAL_PWM_0004E_arg_prescaler+D'1', W, 1
0F30  E00E      	BZ	label125
0F32            label122
0F32  0E10      	MOVLW 0x10
0F34  63F2      	CPFSEQ FC_CAL_PWM_0004E_arg_prescaler, 1
0F36  D002      	BRA	label123
0F38  51F3      	MOVF FC_CAL_PWM_0004E_arg_prescaler+D'1', W, 1
0F3A  E00C      	BZ	label126
0F3C            label123
0F3C  0E40      	MOVLW 0x40
0F3E  63F2      	CPFSEQ FC_CAL_PWM_0004E_arg_prescaler, 1
0F40  D00F      	BRA	label128
0F42  51F3      	MOVF FC_CAL_PWM_0004E_arg_prescaler+D'1', W, 1
0F44  E00A      	BZ	label127
0F46  D00C      	BRA	label128
0F48            label124
0F48  0E04      	MOVLW 0x04
0F4A  6ECA      	MOVWF gbl_t2con
0F4C  0012      	RETURN
0F4E            label125
0F4E  0E05      	MOVLW 0x05
0F50  6ECA      	MOVWF gbl_t2con
0F52  0012      	RETURN
0F54            label126
0F54  0E06      	MOVLW 0x06
0F56  6ECA      	MOVWF gbl_t2con
0F58  0012      	RETURN
0F5A            label127
0F5A  0E07      	MOVLW 0x07
0F5C  6ECA      	MOVWF gbl_t2con
0F5E  0012      	RETURN
0F60            label128
0F60  0E05      	MOVLW 0x05
0F62  6ECA      	MOVWF gbl_t2con
0F64  0012      	RETURN
0F66            ; } FC_CAL_PWM_ChangePeriod_1 function end

	ORG 0x00000F66
0F66            FCI_STRING_0004B
0F66            ; { FCI_STRING_TO_INT ; function begin
0F66  6BF3      	CLRF FCI_STRING_0004B_1_bNegative, 1
0F68  6BF4      	CLRF FCI_STRING_0004B_1_idx, 1
0F6A  6BF5      	CLRF FCI_STRING_0004B_1_RetVal, 1
0F6C  6BF6      	CLRF FCI_STRING_0004B_1_RetVal+D'1', 1
0F6E  6BF7      	CLRF FCI_STRING_0004B_1_RetVal+D'2', 1
0F70  6BF8      	CLRF FCI_STRING_0004B_1_RetVal+D'3', 1
0F72            label129
0F72  51F2      	MOVF FCI_STRING_0004B_arg_MSZ_String, W, 1
0F74  61F4      	CPFSLT FCI_STRING_0004B_1_idx, 1
0F76  D021      	BRA	label133
0F78  51F1      	MOVF FCI_STRING_0004B_arg_String+D'1', W, 1
0F7A  6EEA      	MOVWF FSR0H
0F7C  51F0      	MOVF FCI_STRING_0004B_arg_String, W, 1
0F7E  25F4      	ADDWF FCI_STRING_0004B_1_idx, W, 1
0F80  6EE9      	MOVWF FSR0L
0F82  0E30      	MOVLW 0x30
0F84  60EF      	CPFSLT INDF0
0F86  D001      	BRA	label130
0F88  D008      	BRA	label131
0F8A            label130
0F8A  51F1      	MOVF FCI_STRING_0004B_arg_String+D'1', W, 1
0F8C  6EEA      	MOVWF FSR0H
0F8E  51F0      	MOVF FCI_STRING_0004B_arg_String, W, 1
0F90  25F4      	ADDWF FCI_STRING_0004B_1_idx, W, 1
0F92  6EE9      	MOVWF FSR0L
0F94  0E39      	MOVLW 0x39
0F96  64EF      	CPFSGT INDF0
0F98  D010      	BRA	label133
0F9A            label131
0F9A  51F1      	MOVF FCI_STRING_0004B_arg_String+D'1', W, 1
0F9C  6EEA      	MOVWF FSR0H
0F9E  51F0      	MOVF FCI_STRING_0004B_arg_String, W, 1
0FA0  25F4      	ADDWF FCI_STRING_0004B_1_idx, W, 1
0FA2  6EE9      	MOVWF FSR0L
0FA4  0E2D      	MOVLW 0x2D
0FA6  62EF      	CPFSEQ INDF0
0FA8  D005      	BRA	label132
0FAA  0E01      	MOVLW 0x01
0FAC  6FF3      	MOVWF FCI_STRING_0004B_1_bNegative, 1
0FAE  29F4      	INCF FCI_STRING_0004B_1_idx, W, 1
0FB0  6FF4      	MOVWF FCI_STRING_0004B_1_idx, 1
0FB2  D003      	BRA	label133
0FB4            label132
0FB4  29F4      	INCF FCI_STRING_0004B_1_idx, W, 1
0FB6  6FF4      	MOVWF FCI_STRING_0004B_1_idx, 1
0FB8  D7DC      	BRA	label129
0FBA            label133
0FBA  51F2      	MOVF FCI_STRING_0004B_arg_MSZ_String, W, 1
0FBC  61F4      	CPFSLT FCI_STRING_0004B_1_idx, 1
0FBE  D058      	BRA	label135
0FC0  51F1      	MOVF FCI_STRING_0004B_arg_String+D'1', W, 1
0FC2  6EEA      	MOVWF FSR0H
0FC4  51F0      	MOVF FCI_STRING_0004B_arg_String, W, 1
0FC6  25F4      	ADDWF FCI_STRING_0004B_1_idx, W, 1
0FC8  6EE9      	MOVWF FSR0L
0FCA  0E30      	MOVLW 0x30
0FCC  60EF      	CPFSLT INDF0
0FCE  D001      	BRA	label134
0FD0  D04F      	BRA	label135
0FD2            label134
0FD2  51F1      	MOVF FCI_STRING_0004B_arg_String+D'1', W, 1
0FD4  6EEA      	MOVWF FSR0H
0FD6  51F0      	MOVF FCI_STRING_0004B_arg_String, W, 1
0FD8  25F4      	ADDWF FCI_STRING_0004B_1_idx, W, 1
0FDA  6EE9      	MOVWF FSR0L
0FDC  50EF      	MOVF INDF0, W
0FDE  0839      	SUBLW 0x39
0FE0  E347      	BNC	label135
0FE2  51F5      	MOVF FCI_STRING_0004B_1_RetVal, W, 1
0FE4  6FF9      	MOVWF __mul_32_3_00007_arg_a, 1
0FE6  51F6      	MOVF FCI_STRING_0004B_1_RetVal+D'1', W, 1
0FE8  6FFA      	MOVWF __mul_32_3_00007_arg_a+D'1', 1
0FEA  51F7      	MOVF FCI_STRING_0004B_1_RetVal+D'2', W, 1
0FEC  6FFB      	MOVWF __mul_32_3_00007_arg_a+D'2', 1
0FEE  51F8      	MOVF FCI_STRING_0004B_1_RetVal+D'3', W, 1
0FF0  6FFC      	MOVWF __mul_32_3_00007_arg_a+D'3', 1
0FF2  0E0A      	MOVLW 0x0A
0FF4  0102      	MOVLB 0x02
0FF6  6F20      	MOVWF __mul_32_3_00007_arg_b, 1
0FF8  6B21      	CLRF __mul_32_3_00007_arg_b+D'1', 1
0FFA  6B22      	CLRF __mul_32_3_00007_arg_b+D'2', 1
0FFC  6B23      	CLRF __mul_32_3_00007_arg_b+D'3', 1
0FFE  EC07F007  	CALL __mul_32_3_00007
1002  5125      	MOVF CompTempVarRet426, W, 1
1004  0101      	MOVLB 0x01
1006  6FFD      	MOVWF CompTempVar1984, 1
1008  0102      	MOVLB 0x02
100A  5126      	MOVF CompTempVarRet426+D'1', W, 1
100C  0101      	MOVLB 0x01
100E  6FFE      	MOVWF CompTempVar1985, 1
1010  0102      	MOVLB 0x02
1012  5127      	MOVF CompTempVarRet426+D'2', W, 1
1014  0101      	MOVLB 0x01
1016  6FFF      	MOVWF CompTempVar1986, 1
1018  0102      	MOVLB 0x02
101A  5128      	MOVF CompTempVarRet426+D'3', W, 1
101C  6F24      	MOVWF CompTempVar1987, 1
101E  0101      	MOVLB 0x01
1020  51FD      	MOVF CompTempVar1984, W, 1
1022  6FF5      	MOVWF FCI_STRING_0004B_1_RetVal, 1
1024  51FE      	MOVF CompTempVar1985, W, 1
1026  6FF6      	MOVWF FCI_STRING_0004B_1_RetVal+D'1', 1
1028  51FF      	MOVF CompTempVar1986, W, 1
102A  6FF7      	MOVWF FCI_STRING_0004B_1_RetVal+D'2', 1
102C  0102      	MOVLB 0x02
102E  5124      	MOVF CompTempVar1987, W, 1
1030  0101      	MOVLB 0x01
1032  6FF8      	MOVWF FCI_STRING_0004B_1_RetVal+D'3', 1
1034  51F1      	MOVF FCI_STRING_0004B_arg_String+D'1', W, 1
1036  6EEA      	MOVWF FSR0H
1038  51F0      	MOVF FCI_STRING_0004B_arg_String, W, 1
103A  25F4      	ADDWF FCI_STRING_0004B_1_idx, W, 1
103C  6EE9      	MOVWF FSR0L
103E  0E30      	MOVLW 0x30
1040  5CEF      	SUBWF INDF0, W
1042  6FF9      	MOVWF CompTempVar1990, 1
1044  6BFA      	CLRF CompTempVar1991, 1
1046  6BFB      	CLRF CompTempVar1992, 1
1048  6BFC      	CLRF CompTempVar1993, 1
104A  51F5      	MOVF FCI_STRING_0004B_1_RetVal, W, 1
104C  27F9      	ADDWF CompTempVar1990, F, 1
104E  51F6      	MOVF FCI_STRING_0004B_1_RetVal+D'1', W, 1
1050  23FA      	ADDWFC CompTempVar1991, F, 1
1052  51F7      	MOVF FCI_STRING_0004B_1_RetVal+D'2', W, 1
1054  23FB      	ADDWFC CompTempVar1992, F, 1
1056  51F8      	MOVF FCI_STRING_0004B_1_RetVal+D'3', W, 1
1058  23FC      	ADDWFC CompTempVar1993, F, 1
105A  51F9      	MOVF CompTempVar1990, W, 1
105C  6FF5      	MOVWF FCI_STRING_0004B_1_RetVal, 1
105E  51FA      	MOVF CompTempVar1991, W, 1
1060  6FF6      	MOVWF FCI_STRING_0004B_1_RetVal+D'1', 1
1062  51FB      	MOVF CompTempVar1992, W, 1
1064  6FF7      	MOVWF FCI_STRING_0004B_1_RetVal+D'2', 1
1066  51FC      	MOVF CompTempVar1993, W, 1
1068  6FF8      	MOVWF FCI_STRING_0004B_1_RetVal+D'3', 1
106A  29F4      	INCF FCI_STRING_0004B_1_idx, W, 1
106C  6FF4      	MOVWF FCI_STRING_0004B_1_idx, 1
106E  D7A5      	BRA	label133
1070            label135
1070  53F3      	MOVF FCI_STRING_0004B_1_bNegative, F, 1
1072  E017      	BZ	label136
1074  51F5      	MOVF FCI_STRING_0004B_1_RetVal, W, 1
1076  0800      	SUBLW 0x00
1078  6FF9      	MOVWF CompTempVar1995, 1
107A  0E00      	MOVLW 0x00
107C  6FFA      	MOVWF CompTempVar1996, 1
107E  51F6      	MOVF FCI_STRING_0004B_1_RetVal+D'1', W, 1
1080  5BFA      	SUBWFB CompTempVar1996, F, 1
1082  0E00      	MOVLW 0x00
1084  6FFB      	MOVWF CompTempVar1997, 1
1086  51F7      	MOVF FCI_STRING_0004B_1_RetVal+D'2', W, 1
1088  5BFB      	SUBWFB CompTempVar1997, F, 1
108A  0E00      	MOVLW 0x00
108C  6FFC      	MOVWF CompTempVar1998, 1
108E  51F8      	MOVF FCI_STRING_0004B_1_RetVal+D'3', W, 1
1090  5BFC      	SUBWFB CompTempVar1998, F, 1
1092  51F9      	MOVF CompTempVar1995, W, 1
1094  6FF5      	MOVWF FCI_STRING_0004B_1_RetVal, 1
1096  51FA      	MOVF CompTempVar1996, W, 1
1098  6FF6      	MOVWF FCI_STRING_0004B_1_RetVal+D'1', 1
109A  51FB      	MOVF CompTempVar1997, W, 1
109C  6FF7      	MOVWF FCI_STRING_0004B_1_RetVal+D'2', 1
109E  51FC      	MOVF CompTempVar1998, W, 1
10A0  6FF8      	MOVWF FCI_STRING_0004B_1_RetVal+D'3', 1
10A2            label136
10A2  51F5      	MOVF FCI_STRING_0004B_1_RetVal, W, 1
10A4  6FF9      	MOVWF CompTempVarRet1971, 1
10A6  51F6      	MOVF FCI_STRING_0004B_1_RetVal+D'1', W, 1
10A8  6FFA      	MOVWF CompTempVarRet1971+D'1', 1
10AA  51F7      	MOVF FCI_STRING_0004B_1_RetVal+D'2', W, 1
10AC  6FFB      	MOVWF CompTempVarRet1971+D'2', 1
10AE  51F8      	MOVF FCI_STRING_0004B_1_RetVal+D'3', W, 1
10B0  6FFC      	MOVWF CompTempVarRet1971+D'3', 1
10B2  0012      	RETURN
10B4            ; } FCI_STRING_TO_INT function end

	ORG 0x000010B4
10B4            FCI_RIGHTS_00040
10B4            ; { FCI_RIGHTSTRING ; function begin
10B4  53F6      	MOVF FCI_RIGHTS_00040_arg_iDst_len, F, 1
10B6  E105      	BNZ	label137
10B8  51F4      	MOVF FCI_RIGHTS_00040_arg_sDst, W, 1
10BA  6FF9      	MOVWF CompTempVarRet1866, 1
10BC  51F5      	MOVF FCI_RIGHTS_00040_arg_sDst+D'1', W, 1
10BE  6FFA      	MOVWF CompTempVarRet1866+D'1', 1
10C0  0012      	RETURN
10C2            label137
10C2  6BF7      	CLRF FCI_RIGHTS_00040_1_idx, 1
10C4            label138
10C4  51F2      	MOVF FCI_RIGHTS_00040_arg_iSrc_len, W, 1
10C6  61F7      	CPFSLT FCI_RIGHTS_00040_1_idx, 1
10C8  D009      	BRA	label139
10CA  51F1      	MOVF FCI_RIGHTS_00040_arg_sSrc+D'1', W, 1
10CC  6EEA      	MOVWF FSR0H
10CE  51F0      	MOVF FCI_RIGHTS_00040_arg_sSrc, W, 1
10D0  25F7      	ADDWF FCI_RIGHTS_00040_1_idx, W, 1
10D2  6EE9      	MOVWF FSR0L
10D4  52EF      	MOVF INDF0, F
10D6  E002      	BZ	label139
10D8  2BF7      	INCF FCI_RIGHTS_00040_1_idx, F, 1
10DA  D7F4      	BRA	label138
10DC            label139
10DC  51F3      	MOVF FCI_RIGHTS_00040_arg_iCount, W, 1
10DE  61F7      	CPFSLT FCI_RIGHTS_00040_1_idx, 1
10E0  D002      	BRA	label140
10E2  51F7      	MOVF FCI_RIGHTS_00040_1_idx, W, 1
10E4  6FF3      	MOVWF FCI_RIGHTS_00040_arg_iCount, 1
10E6            label140
10E6  51F3      	MOVF FCI_RIGHTS_00040_arg_iCount, W, 1
10E8  5DF7      	SUBWF FCI_RIGHTS_00040_1_idx, W, 1
10EA  6FF8      	MOVWF FCI_RIGHTS_00040_1_delta, 1
10EC  51F3      	MOVF FCI_RIGHTS_00040_arg_iCount, W, 1
10EE  61F6      	CPFSLT FCI_RIGHTS_00040_arg_iDst_len, 1
10F0  D002      	BRA	label141
10F2  51F6      	MOVF FCI_RIGHTS_00040_arg_iDst_len, W, 1
10F4  6FF3      	MOVWF FCI_RIGHTS_00040_arg_iCount, 1
10F6            label141
10F6  51F8      	MOVF FCI_RIGHTS_00040_1_delta, W, 1
10F8  27F0      	ADDWF FCI_RIGHTS_00040_arg_sSrc, F, 1
10FA  B0D8      	BTFSC STATUS,C
10FC  2BF1      	INCF FCI_RIGHTS_00040_arg_sSrc+D'1', F, 1
10FE  6BF7      	CLRF FCI_RIGHTS_00040_1_idx, 1
1100            label142
1100  51F3      	MOVF FCI_RIGHTS_00040_arg_iCount, W, 1
1102  61F7      	CPFSLT FCI_RIGHTS_00040_1_idx, 1
1104  D012      	BRA	label143
1106  51F1      	MOVF FCI_RIGHTS_00040_arg_sSrc+D'1', W, 1
1108  6EEA      	MOVWF FSR0H
110A  51F0      	MOVF FCI_RIGHTS_00040_arg_sSrc, W, 1
110C  6EE9      	MOVWF FSR0L
110E  50EF      	MOVF INDF0, W
1110  6FFB      	MOVWF CompTempVar1868, 1
1112  51F5      	MOVF FCI_RIGHTS_00040_arg_sDst+D'1', W, 1
1114  6EEA      	MOVWF FSR0H
1116  51F4      	MOVF FCI_RIGHTS_00040_arg_sDst, W, 1
1118  6EE9      	MOVWF FSR0L
111A  51FB      	MOVF CompTempVar1868, W, 1
111C  6EEF      	MOVWF INDF0
111E  4BF4      	INFSNZ FCI_RIGHTS_00040_arg_sDst, F, 1
1120  2BF5      	INCF FCI_RIGHTS_00040_arg_sDst+D'1', F, 1
1122  4BF0      	INFSNZ FCI_RIGHTS_00040_arg_sSrc, F, 1
1124  2BF1      	INCF FCI_RIGHTS_00040_arg_sSrc+D'1', F, 1
1126  2BF7      	INCF FCI_RIGHTS_00040_1_idx, F, 1
1128  D7EB      	BRA	label142
112A            label143
112A  51F6      	MOVF FCI_RIGHTS_00040_arg_iDst_len, W, 1
112C  61F7      	CPFSLT FCI_RIGHTS_00040_1_idx, 1
112E  D006      	BRA	label144
1130  51F5      	MOVF FCI_RIGHTS_00040_arg_sDst+D'1', W, 1
1132  6EEA      	MOVWF FSR0H
1134  51F4      	MOVF FCI_RIGHTS_00040_arg_sDst, W, 1
1136  6EE9      	MOVWF FSR0L
1138  0E00      	MOVLW 0x00
113A  6EEF      	MOVWF INDF0
113C            label144
113C  51F4      	MOVF FCI_RIGHTS_00040_arg_sDst, W, 1
113E  6FF9      	MOVWF CompTempVarRet1866, 1
1140  51F5      	MOVF FCI_RIGHTS_00040_arg_sDst+D'1', W, 1
1142  6FFA      	MOVWF CompTempVarRet1866+D'1', 1
1144  0012      	RETURN
1146            ; } FCI_RIGHTSTRING function end

	ORG 0x00001146
1146            FCD_0df41__00058
1146            ; { FCD_0df41_PWM1__SetDutyCycle10Bit ; function begin
1146  53DF      	MOVF gbl_FCV_0df41_PWM1__ENABLED, F, 1
1148  B4D8      	BTFSC STATUS,Z
114A  0012      	RETURN
114C  51F0      	MOVF FCD_0df41__00058_arg_FCL_DUTY, W, 1
114E  6FF2      	MOVWF FC_CAL_PWM_00052_arg_duty, 1
1150  51F1      	MOVF FCD_0df41__00058_arg_FCL_DUTY+D'1', W, 1
1152  6FF3      	MOVWF FC_CAL_PWM_00052_arg_duty+D'1', 1
1154  EC65F007  	CALL FC_CAL_PWM_00052
1158  0012      	RETURN
115A            ; } FCD_0df41_PWM1__SetDutyCycle10Bit function end

	ORG 0x0000115A
115A            FCD_0df41__00057
115A            ; { FCD_0df41_PWM1__Enable ; function begin
115A  0E01      	MOVLW 0x01
115C  0101      	MOVLB 0x01
115E  6FDF      	MOVWF gbl_FCV_0df41_PWM1__ENABLED, 1
1160  69F0      	SETF FC_CAL_PWM_0004E_arg_period, 1
1162  6BF1      	CLRF FC_CAL_PWM_0004E_arg_period+D'1', 1
1164  0E01      	MOVLW 0x01
1166  6FF2      	MOVWF FC_CAL_PWM_0004E_arg_prescaler, 1
1168  6BF3      	CLRF FC_CAL_PWM_0004E_arg_prescaler+D'1', 1
116A  EC8DF007  	CALL FC_CAL_PWM_0004E
116E  EC88F007  	CALL FC_CAL_PWM_00051
1172  0012      	RETURN
1174            ; } FCD_0df41_PWM1__Enable function end

	ORG 0x00001174
1174            FCD_056e1__00088
1174            ; { FCD_056e1_v5__usbserial0__Initialise ; function begin
1174  0101      	MOVLB 0x01
1176  6BF0      	CLRF FCD_056e1__00088_1_FCL_DEL_00089, 1
1178  6BF1      	CLRF FCD_056e1__00088_1_FCL_DEL_00089+D'1', 1
117A  ECB7F005  	CALL usb_config_0007E
117E            label145
117E  9EF2      	BCF gbl_intcon,7
1180  BEF2      	BTFSC gbl_intcon,7
1182  D7FD      	BRA	label145
1184  ECD4F006  	CALL usb_cdc_se_0007C
1188  EC7FF005  	CALL usb_setup_00000
118C  8CF2      	BSF gbl_intcon,6
118E  8EF2      	BSF gbl_intcon,7
1190  ECB1F005  	CALL usb_enable_0005E
1194            label146
1194  53EF      	MOVF gbl_CDC_USB_status, F, 1
1196  E0FE      	BZ	label146
1198  6BF2      	CLRF FCD_056e1__00088_1_FCR_RETVAL, 1
119A  51F2      	MOVF FCD_056e1__00088_1_FCR_RETVAL, W, 1
119C  6FF3      	MOVWF CompTempVarRet2765, 1
119E  0012      	RETURN
11A0            ; } FCD_056e1_v5__usbserial0__Initialise function end

	ORG 0x000011A0
11A0            FCD_056e1__00080
11A0            ; { FCD_056e1_v5__usbserial0__ReadString ; function begin
11A0  6BF6      	CLRF FCD_056e1__00080_1_FCL_WAI_00083, 1
11A2  29F4      	INCF FCD_056e1__00080_arg_FCL_T_00082, W, 1
11A4  E102      	BNZ	label147
11A6  0E01      	MOVLW 0x01
11A8  6FF6      	MOVWF FCD_056e1__00080_1_FCL_WAI_00083, 1
11AA            label147
11AA  53F4      	MOVF FCD_056e1__00080_arg_FCL_T_00082, F, 1
11AC  E103      	BNZ	label148
11AE  53F6      	MOVF FCD_056e1__00080_1_FCL_WAI_00083, F, 1
11B0  B4D8      	BTFSC STATUS,Z
11B2  0012      	RETURN
11B4            label148
11B4  EC02F007  	CALL usb_cdc_rx_00079
11B8  51F8      	MOVF CompTempVarRet2736, W, 1
11BA  6FF7      	MOVWF FCD_056e1__00080_1_Rx_Length, 1
11BC  53F7      	MOVF FCD_056e1__00080_1_Rx_Length, F, 1
11BE  E018      	BZ	label150
11C0  51F7      	MOVF FCD_056e1__00080_1_Rx_Length, W, 1
11C2  61F5      	CPFSLT FCD_056e1__00080_arg_FCL_LENGTH, 1
11C4  D002      	BRA	label149
11C6  51F5      	MOVF FCD_056e1__00080_arg_FCL_LENGTH, W, 1
11C8  6FF7      	MOVWF FCD_056e1__00080_1_Rx_Length, 1
11CA            label149
11CA  51F7      	MOVF FCD_056e1__00080_1_Rx_Length, W, 1
11CC  6FF8      	MOVWF usb_ep_get_0007D_arg_length, 1
11CE  51F0      	MOVF FCD_056e1__00080_arg_FCR_RETVAL, W, 1
11D0  6FF9      	MOVWF usb_ep_get_0007D_arg_buffer, 1
11D2  51F1      	MOVF FCD_056e1__00080_arg_FCR_RETVAL+D'1', W, 1
11D4  6FFA      	MOVWF usb_ep_get_0007D_arg_buffer+D'1', 1
11D6  EC91F005  	CALL usb_ep_get_0007D
11DA  51F5      	MOVF FCD_056e1__00080_arg_FCL_LENGTH, W, 1
11DC  61F7      	CPFSLT FCD_056e1__00080_1_Rx_Length, 1
11DE  0012      	RETURN
11E0  51F1      	MOVF FCD_056e1__00080_arg_FCR_RETVAL+D'1', W, 1
11E2  6EEA      	MOVWF FSR0H
11E4  51F0      	MOVF FCD_056e1__00080_arg_FCR_RETVAL, W, 1
11E6  25F7      	ADDWF FCD_056e1__00080_1_Rx_Length, W, 1
11E8  6EE9      	MOVWF FSR0L
11EA  0E00      	MOVLW 0x00
11EC  6EEF      	MOVWF INDF0
11EE  0012      	RETURN
11F0            label150
11F0  0E01      	MOVLW 0x01
11F2  6FF8      	MOVWF Wdt_Delay__00036_arg_delay, 1
11F4  EC5AF007  	CALL Wdt_Delay__00036
11F8  05F4      	DECF FCD_056e1__00080_arg_FCL_T_00082, W, 1
11FA  6FF4      	MOVWF FCD_056e1__00080_arg_FCL_T_00082, 1
11FC  D7D6      	BRA	label147
11FE            ; } FCD_056e1_v5__usbserial0__ReadString function end

	ORG 0x000011FE
11FE            main
11FE            ; { main ; function begin
11FE  6A7E      	CLRF gbl_ansel
1200  6A7F      	CLRF gbl_anselh
1202  ECADF008  	CALL FCD_0df41__00057
1206  ECBAF008  	CALL FCD_056e1__00088
120A            label151
120A  0E01      	MOVLW HIGH(gbl_FCV_INSTRING+D'0')
120C  6FF1      	MOVWF FCD_056e1__00080_arg_FCR_RETVAL+D'1', 1
120E  0EC6      	MOVLW LOW(gbl_FCV_INSTRING+D'0')
1210  6FF0      	MOVWF FCD_056e1__00080_arg_FCR_RETVAL, 1
1212  0E03      	MOVLW 0x03
1214  6FF2      	MOVWF FCD_056e1__00080_arg_FCRsz_00081, 1
1216  6BF3      	CLRF FCD_056e1__00080_arg_FCRsz_00081+D'1', 1
1218  0E01      	MOVLW 0x01
121A  6FF4      	MOVWF FCD_056e1__00080_arg_FCL_T_00082, 1
121C  0E03      	MOVLW 0x03
121E  6FF5      	MOVWF FCD_056e1__00080_arg_FCL_LENGTH, 1
1220  ECD0F008  	CALL FCD_056e1__00080
1224  0E31      	MOVLW 0x31
1226  63C6      	CPFSEQ gbl_FCV_INSTRING, 1
1228  D7F0      	BRA	label151
122A  0E01      	MOVLW HIGH(gbl_FCV_INSTRING+D'0')
122C  6FF1      	MOVWF FCI_RIGHTS_00040_arg_sSrc+D'1', 1
122E  0EC6      	MOVLW LOW(gbl_FCV_INSTRING+D'0')
1230  6FF0      	MOVWF FCI_RIGHTS_00040_arg_sSrc, 1
1232  0E03      	MOVLW 0x03
1234  6FF2      	MOVWF FCI_RIGHTS_00040_arg_iSrc_len, 1
1236  0E02      	MOVLW 0x02
1238  6FF3      	MOVWF FCI_RIGHTS_00040_arg_iCount, 1
123A  0E01      	MOVLW HIGH(gbl_FCV_INSTRING+D'0')
123C  6FF5      	MOVWF FCI_RIGHTS_00040_arg_sDst+D'1', 1
123E  0EC6      	MOVLW LOW(gbl_FCV_INSTRING+D'0')
1240  6FF4      	MOVWF FCI_RIGHTS_00040_arg_sDst, 1
1242  0E03      	MOVLW 0x03
1244  6FF6      	MOVWF FCI_RIGHTS_00040_arg_iDst_len, 1
1246  EC5AF008  	CALL FCI_RIGHTS_00040
124A  0E01      	MOVLW HIGH(gbl_FCV_INSTRING+D'0')
124C  6FF1      	MOVWF FCI_STRING_0004B_arg_String+D'1', 1
124E  0EC6      	MOVLW LOW(gbl_FCV_INSTRING+D'0')
1250  6FF0      	MOVWF FCI_STRING_0004B_arg_String, 1
1252  0E03      	MOVLW 0x03
1254  6FF2      	MOVWF FCI_STRING_0004B_arg_MSZ_String, 1
1256  ECB3F007  	CALL FCI_STRING_0004B
125A  51F9      	MOVF CompTempVarRet1971, W, 1
125C  6FCB      	MOVWF gbl_FCV_READINPUT, 1
125E  51FA      	MOVF CompTempVarRet1971+D'1', W, 1
1260  6FCC      	MOVWF gbl_FCV_READINPUT+D'1', 1
1262  51CB      	MOVF gbl_FCV_READINPUT, W, 1
1264  6FF0      	MOVWF FCD_0df41__00058_arg_FCL_DUTY, 1
1266  51CC      	MOVF gbl_FCV_READINPUT+D'1', W, 1
1268  6FF1      	MOVWF FCD_0df41__00058_arg_FCL_DUTY+D'1', 1
126A  ECA3F008  	CALL FCD_0df41__00058
126E  D7CD      	BRA	label151
1270            ; } main function end

	ORG 0x00001270
1270            _startup
1270  0ED5      	MOVLW 0xD5
1272  0100      	MOVLB 0x00
1274  6FFC      	MOVWF gbl_14_LSR, 1
1276  0EC4      	MOVLW 0xC4
1278  6FFD      	MOVWF gbl_14_LSR+D'1', 1
127A  0EBB      	MOVLW 0xBB
127C  6FFE      	MOVWF gbl_14_LSR+D'2', 1
127E  0EDC      	MOVLW 0xDC
1280  6FFF      	MOVWF gbl_14_LSR+D'3', 1
1282  0101      	MOVLB 0x01
1284  6BAE      	CLRF gbl_15_gbl_aSig, 1
1286  6BAF      	CLRF gbl_15_gbl_aSig+D'1', 1
1288  6BB0      	CLRF gbl_15_gbl_aSig+D'2', 1
128A  6BB1      	CLRF gbl_15_gbl_aSig+D'3', 1
128C  6BB2      	CLRF gbl_15_gbl_bSig, 1
128E  6BB3      	CLRF gbl_15_gbl_bSig+D'1', 1
1290  6BB4      	CLRF gbl_15_gbl_bSig+D'2', 1
1292  6BB5      	CLRF gbl_15_gbl_bSig+D'3', 1
1294  6BB6      	CLRF gbl_15_gbl_zSig, 1
1296  6BB7      	CLRF gbl_15_gbl_zSig+D'1', 1
1298  6BB8      	CLRF gbl_15_gbl_zSig+D'2', 1
129A  6BB9      	CLRF gbl_15_gbl_zSig+D'3', 1
129C  6BD9      	CLRF gbl_15_gbl_aExp, 1
129E  6BDA      	CLRF gbl_15_gbl_bExp, 1
12A0  6BC9      	CLRF gbl_15_gbl_zExp, 1
12A2  6BCA      	CLRF gbl_15_gbl_zExp+D'1', 1
12A4  6BDB      	CLRF gbl_15_gbl_aSign, 1
12A6  6BDC      	CLRF gbl_15_gbl_bSign, 1
12A8  6BDD      	CLRF gbl_15_gbl_zSign, 1
12AA  6BDE      	CLRF gbl_15_gbl_zSigZero, 1
12AC  6BBA      	CLRF gbl_15_gbl_ret, 1
12AE  6BBB      	CLRF gbl_15_gbl_ret+D'1', 1
12B0  6BBC      	CLRF gbl_15_gbl_ret+D'2', 1
12B2  6BBD      	CLRF gbl_15_gbl_ret+D'3', 1
12B4  6BD7      	CLRF gbl_float_rounding_mode, 1
12B6  6BD8      	CLRF gbl_float_exception_flags, 1
12B8  6A5F      	CLRF gbl_float_detect_tininess
12BA  6BDF      	CLRF gbl_FCV_0df41_PWM1__ENABLED, 1
12BC  0E28      	MOVLW 0x28
12BE  6F2E      	MOVWF gbl_MX_USBNAME, 1
12C0  0E03      	MOVLW 0x03
12C2  6F2F      	MOVWF gbl_MX_USBNAME+D'1', 1
12C4  0E46      	MOVLW 0x46
12C6  6F30      	MOVWF gbl_MX_USBNAME+D'2', 1
12C8  6B31      	CLRF gbl_MX_USBNAME+D'3', 1
12CA  0E6C      	MOVLW 0x6C
12CC  6F32      	MOVWF gbl_MX_USBNAME+D'4', 1
12CE  6B33      	CLRF gbl_MX_USBNAME+D'5', 1
12D0  0E6F      	MOVLW 0x6F
12D2  6F34      	MOVWF gbl_MX_USBNAME+D'6', 1
12D4  6B35      	CLRF gbl_MX_USBNAME+D'7', 1
12D6  0E77      	MOVLW 0x77
12D8  6F36      	MOVWF gbl_MX_USBNAME+D'8', 1
12DA  6B37      	CLRF gbl_MX_USBNAME+D'9', 1
12DC  0E63      	MOVLW 0x63
12DE  6F38      	MOVWF gbl_MX_USBNAME+D'10', 1
12E0  6B39      	CLRF gbl_MX_USBNAME+D'11', 1
12E2  0E6F      	MOVLW 0x6F
12E4  6F3A      	MOVWF gbl_MX_USBNAME+D'12', 1
12E6  6B3B      	CLRF gbl_MX_USBNAME+D'13', 1
12E8  0E64      	MOVLW 0x64
12EA  6F3C      	MOVWF gbl_MX_USBNAME+D'14', 1
12EC  6B3D      	CLRF gbl_MX_USBNAME+D'15', 1
12EE  0E65      	MOVLW 0x65
12F0  6F3E      	MOVWF gbl_MX_USBNAME+D'16', 1
12F2  6B3F      	CLRF gbl_MX_USBNAME+D'17', 1
12F4  0E20      	MOVLW 0x20
12F6  6F40      	MOVWF gbl_MX_USBNAME+D'18', 1
12F8  6B41      	CLRF gbl_MX_USBNAME+D'19', 1
12FA  0E55      	MOVLW 0x55
12FC  6F42      	MOVWF gbl_MX_USBNAME+D'20', 1
12FE  6B43      	CLRF gbl_MX_USBNAME+D'21', 1
1300  0E53      	MOVLW 0x53
1302  6F44      	MOVWF gbl_MX_USBNAME+D'22', 1
1304  6B45      	CLRF gbl_MX_USBNAME+D'23', 1
1306  0E42      	MOVLW 0x42
1308  6F46      	MOVWF gbl_MX_USBNAME+D'24', 1
130A  6B47      	CLRF gbl_MX_USBNAME+D'25', 1
130C  0E20      	MOVLW 0x20
130E  6F48      	MOVWF gbl_MX_USBNAME+D'26', 1
1310  6B49      	CLRF gbl_MX_USBNAME+D'27', 1
1312  0E53      	MOVLW 0x53
1314  6F4A      	MOVWF gbl_MX_USBNAME+D'28', 1
1316  6B4B      	CLRF gbl_MX_USBNAME+D'29', 1
1318  0E65      	MOVLW 0x65
131A  6F4C      	MOVWF gbl_MX_USBNAME+D'30', 1
131C  6B4D      	CLRF gbl_MX_USBNAME+D'31', 1
131E  0E72      	MOVLW 0x72
1320  6F4E      	MOVWF gbl_MX_USBNAME+D'32', 1
1322  6B4F      	CLRF gbl_MX_USBNAME+D'33', 1
1324  0E69      	MOVLW 0x69
1326  6F50      	MOVWF gbl_MX_USBNAME+D'34', 1
1328  6B51      	CLRF gbl_MX_USBNAME+D'35', 1
132A  0E61      	MOVLW 0x61
132C  6F52      	MOVWF gbl_MX_USBNAME+D'36', 1
132E  6B53      	CLRF gbl_MX_USBNAME+D'37', 1
1330  0E6C      	MOVLW 0x6C
1332  6F54      	MOVWF gbl_MX_USBNAME+D'38', 1
1334  6B55      	CLRF gbl_MX_USBNAME+D'39', 1
1336  0E2E      	MOVLW 0x2E
1338  6F00      	MOVWF gbl_MX_USBMFR, 1
133A  0E03      	MOVLW 0x03
133C  6F01      	MOVWF gbl_MX_USBMFR+D'1', 1
133E  0E4D      	MOVLW 0x4D
1340  6F02      	MOVWF gbl_MX_USBMFR+D'2', 1
1342  6B03      	CLRF gbl_MX_USBMFR+D'3', 1
1344  0E61      	MOVLW 0x61
1346  6F04      	MOVWF gbl_MX_USBMFR+D'4', 1
1348  6B05      	CLRF gbl_MX_USBMFR+D'5', 1
134A  0E74      	MOVLW 0x74
134C  6F06      	MOVWF gbl_MX_USBMFR+D'6', 1
134E  6B07      	CLRF gbl_MX_USBMFR+D'7', 1
1350  0E72      	MOVLW 0x72
1352  6F08      	MOVWF gbl_MX_USBMFR+D'8', 1
1354  6B09      	CLRF gbl_MX_USBMFR+D'9', 1
1356  0E69      	MOVLW 0x69
1358  6F0A      	MOVWF gbl_MX_USBMFR+D'10', 1
135A  6B0B      	CLRF gbl_MX_USBMFR+D'11', 1
135C  0E78      	MOVLW 0x78
135E  6F0C      	MOVWF gbl_MX_USBMFR+D'12', 1
1360  6B0D      	CLRF gbl_MX_USBMFR+D'13', 1
1362  0E20      	MOVLW 0x20
1364  6F0E      	MOVWF gbl_MX_USBMFR+D'14', 1
1366  6B0F      	CLRF gbl_MX_USBMFR+D'15', 1
1368  0E4D      	MOVLW 0x4D
136A  6F10      	MOVWF gbl_MX_USBMFR+D'16', 1
136C  6B11      	CLRF gbl_MX_USBMFR+D'17', 1
136E  0E75      	MOVLW 0x75
1370  6F12      	MOVWF gbl_MX_USBMFR+D'18', 1
1372  6B13      	CLRF gbl_MX_USBMFR+D'19', 1
1374  0E6C      	MOVLW 0x6C
1376  6F14      	MOVWF gbl_MX_USBMFR+D'20', 1
1378  6B15      	CLRF gbl_MX_USBMFR+D'21', 1
137A  0E74      	MOVLW 0x74
137C  6F16      	MOVWF gbl_MX_USBMFR+D'22', 1
137E  6B17      	CLRF gbl_MX_USBMFR+D'23', 1
1380  0E69      	MOVLW 0x69
1382  6F18      	MOVWF gbl_MX_USBMFR+D'24', 1
1384  6B19      	CLRF gbl_MX_USBMFR+D'25', 1
1386  0E6D      	MOVLW 0x6D
1388  6F1A      	MOVWF gbl_MX_USBMFR+D'26', 1
138A  6B1B      	CLRF gbl_MX_USBMFR+D'27', 1
138C  0E65      	MOVLW 0x65
138E  6F1C      	MOVWF gbl_MX_USBMFR+D'28', 1
1390  6B1D      	CLRF gbl_MX_USBMFR+D'29', 1
1392  0E64      	MOVLW 0x64
1394  6F1E      	MOVWF gbl_MX_USBMFR+D'30', 1
1396  6B1F      	CLRF gbl_MX_USBMFR+D'31', 1
1398  0E69      	MOVLW 0x69
139A  6F20      	MOVWF gbl_MX_USBMFR+D'32', 1
139C  6B21      	CLRF gbl_MX_USBMFR+D'33', 1
139E  0E61      	MOVLW 0x61
13A0  6F22      	MOVWF gbl_MX_USBMFR+D'34', 1
13A2  6B23      	CLRF gbl_MX_USBMFR+D'35', 1
13A4  0E20      	MOVLW 0x20
13A6  6F24      	MOVWF gbl_MX_USBMFR+D'36', 1
13A8  6B25      	CLRF gbl_MX_USBMFR+D'37', 1
13AA  0E4C      	MOVLW 0x4C
13AC  6F26      	MOVWF gbl_MX_USBMFR+D'38', 1
13AE  6B27      	CLRF gbl_MX_USBMFR+D'39', 1
13B0  0E74      	MOVLW 0x74
13B2  6F28      	MOVWF gbl_MX_USBMFR+D'40', 1
13B4  6B29      	CLRF gbl_MX_USBMFR+D'41', 1
13B6  0E64      	MOVLW 0x64
13B8  6F2A      	MOVWF gbl_MX_USBMFR+D'42', 1
13BA  6B2B      	CLRF gbl_MX_USBMFR+D'43', 1
13BC  0E2E      	MOVLW 0x2E
13BE  6F2C      	MOVWF gbl_MX_USBMFR+D'44', 1
13C0  6B2D      	CLRF gbl_MX_USBMFR+D'45', 1
13C2  0E0A      	MOVLW 0x0A
13C4  0100      	MOVLB 0x00
13C6  6FE0      	MOVWF gbl_MX_SERIAL, 1
13C8  0E03      	MOVLW 0x03
13CA  6FE1      	MOVWF gbl_MX_SERIAL+D'1', 1
13CC  0E30      	MOVLW 0x30
13CE  6FE2      	MOVWF gbl_MX_SERIAL+D'2', 1
13D0  6BE3      	CLRF gbl_MX_SERIAL+D'3', 1
13D2  0E30      	MOVLW 0x30
13D4  6FE4      	MOVWF gbl_MX_SERIAL+D'4', 1
13D6  6BE5      	CLRF gbl_MX_SERIAL+D'5', 1
13D8  0E30      	MOVLW 0x30
13DA  6FE6      	MOVWF gbl_MX_SERIAL+D'6', 1
13DC  6BE7      	CLRF gbl_MX_SERIAL+D'7', 1
13DE  0E31      	MOVLW 0x31
13E0  6FE8      	MOVWF gbl_MX_SERIAL+D'8', 1
13E2  6BE9      	CLRF gbl_MX_SERIAL+D'9', 1
13E4  0E02      	MOVLW HIGH(gbl_buffer_0_in+D'0')
13E6  0101      	MOVLB 0x01
13E8  6FE3      	MOVWF CompGblVar60, 1
13EA  0E88      	MOVLW LOW(gbl_buffer_0_in+D'0')
13EC  6F67      	MOVWF gbl_ep_in_buffer_location, 1
13EE  51E3      	MOVF CompGblVar60, W, 1
13F0  6F68      	MOVWF gbl_ep_in_buffer_location+D'1', 1
13F2  6B69      	CLRF gbl_ep_in_buffer_location+D'2', 1
13F4  6B6A      	CLRF gbl_ep_in_buffer_location+D'3', 1
13F6  0E02      	MOVLW HIGH(gbl_buffer_2_in+D'0')
13F8  6FE4      	MOVWF CompGblVar61, 1
13FA  0E90      	MOVLW LOW(gbl_buffer_2_in+D'0')
13FC  6F6B      	MOVWF gbl_ep_in_buffer_location+D'4', 1
13FE  51E4      	MOVF CompGblVar61, W, 1
1400  6F6C      	MOVWF gbl_ep_in_buffer_location+D'5', 1
1402  0E02      	MOVLW HIGH(gbl_buffer_3_in+D'0')
1404  6FE5      	MOVWF CompGblVar62, 1
1406  0EA0      	MOVLW LOW(gbl_buffer_3_in+D'0')
1408  6F6D      	MOVWF gbl_ep_in_buffer_location+D'6', 1
140A  51E5      	MOVF CompGblVar62, W, 1
140C  6F6E      	MOVWF gbl_ep_in_buffer_location+D'7', 1
140E  0E02      	MOVLW HIGH(gbl_buffer_0_out+D'0')
1410  6FE6      	MOVWF CompGblVar63, 1
1412  0E80      	MOVLW LOW(gbl_buffer_0_out+D'0')
1414  6F6F      	MOVWF gbl_ep_out_buffer_location, 1
1416  51E6      	MOVF CompGblVar63, W, 1
1418  6F70      	MOVWF gbl_ep_out_buffer_location+D'1', 1
141A  6B71      	CLRF gbl_ep_out_buffer_location+D'2', 1
141C  6B72      	CLRF gbl_ep_out_buffer_location+D'3', 1
141E  6B73      	CLRF gbl_ep_out_buffer_location+D'4', 1
1420  6B74      	CLRF gbl_ep_out_buffer_location+D'5', 1
1422  0E02      	MOVLW HIGH(gbl_buffer_3_out+D'0')
1424  6FE7      	MOVWF CompGblVar64, 1
1426  0E98      	MOVLW LOW(gbl_buffer_3_out+D'0')
1428  6F75      	MOVWF gbl_ep_out_buffer_location+D'6', 1
142A  51E7      	MOVF CompGblVar64, W, 1
142C  6F76      	MOVWF gbl_ep_out_buffer_location+D'7', 1
142E  0E08      	MOVLW 0x08
1430  6F77      	MOVWF gbl_ep_in_buffer_size, 1
1432  6B78      	CLRF gbl_ep_in_buffer_size+D'1', 1
1434  6B79      	CLRF gbl_ep_in_buffer_size+D'2', 1
1436  6B7A      	CLRF gbl_ep_in_buffer_size+D'3', 1
1438  0E08      	MOVLW 0x08
143A  6F7B      	MOVWF gbl_ep_in_buffer_size+D'4', 1
143C  6B7C      	CLRF gbl_ep_in_buffer_size+D'5', 1
143E  0E08      	MOVLW 0x08
1440  6F7D      	MOVWF gbl_ep_in_buffer_size+D'6', 1
1442  6B7E      	CLRF gbl_ep_in_buffer_size+D'7', 1
1444  0E08      	MOVLW 0x08
1446  6F7F      	MOVWF gbl_ep_out_buffer_size, 1
1448  6B80      	CLRF gbl_ep_out_buffer_size+D'1', 1
144A  6B81      	CLRF gbl_ep_out_buffer_size+D'2', 1
144C  6B82      	CLRF gbl_ep_out_buffer_size+D'3', 1
144E  6B83      	CLRF gbl_ep_out_buffer_size+D'4', 1
1450  6B84      	CLRF gbl_ep_out_buffer_size+D'5', 1
1452  0E08      	MOVLW 0x08
1454  6F85      	MOVWF gbl_ep_out_buffer_size+D'6', 1
1456  6B86      	CLRF gbl_ep_out_buffer_size+D'7', 1
1458  6BE0      	CLRF gbl_usb_state, 1
145A  6BEB      	CLRF gbl_cdc_tx_start, 1
145C  6BEC      	CLRF gbl_cdc_tx_end, 1
145E  6BED      	CLRF gbl_cdc_rx_start, 1
1460  6BEE      	CLRF gbl_cdc_rx_end, 1
1462  0E04      	MOVLW 0x04
1464  6FC2      	MOVWF gbl_string_00, 1
1466  0E03      	MOVLW 0x03
1468  6FC3      	MOVWF gbl_string_00+D'1', 1
146A  0E09      	MOVLW 0x09
146C  6FC4      	MOVWF gbl_string_00+D'2', 1
146E  0E04      	MOVLW 0x04
1470  6FC5      	MOVWF gbl_string_00+D'3', 1
1472  6BEF      	CLRF gbl_CDC_USB_status, 1
1474  EFFFF008  	GOTO	main
	ORG 0x00001478
1478            interrupt
1478            ; { interrupt ; function begin
1478  CFEAF001  	MOVFF FSR0H,  Int1Context
147C  CFE9F002  	MOVFF FSR0L,  Int1Context+D'1'
1480  CFF4F003  	MOVFF PRODH,  Int1Context+D'2'
1484  CFF3F004  	MOVFF PRODL,  Int1Context+D'3'
1488  0E99      	MOVLW 0x99
148A  EF5CF005  	GOTO	usb_handle_00059
148E            label153
148E  C004FFF3  	MOVFF Int1Context+D'3',  PRODL
1492  C003FFF4  	MOVFF Int1Context+D'2',  PRODH
1496  C002FFE9  	MOVFF Int1Context+D'1',  FSR0L
149A  C001FFEA  	MOVFF Int1Context,  FSR0H
149E  0011      	RETFIE 1
14A0            ; } interrupt function end

	ORG 0x00300000
300000  3238      	DW 0x3238
300002  1E1F      	DW 0x1E1F
300004  8808      	DW 0x8808
300006  C003      	DW 0xC003
300008  E003      	DW 0xE003
30000A  FFFF      	DW 0xFFFF
30000C  FFFF      	DW 0xFFFF
