;/////////////////////////////////////////////////////////////////////////////////
;// Code Generator: BoostC Compiler - http://www.sourceboost.com
;// Version       : 7.03
;// License Type  : Pro License
;// Limitations   : PIC18 max code size:Unlimited, max RAM banks:Unlimited
;/////////////////////////////////////////////////////////////////////////////////

	ORG 0x00000000
0000  EFF5F007  	GOTO	_startup
	ORG 0x00000008
0008  EF11F009  	GOTO	interrupt
	ORG 0x0000000C
000C            delay_us_00000
000C            ; { delay_us ; function begin
000C            label1
000C  2F6F      	DECFSZ delay_us_00000_arg_del, F, 1
000E  D7FE      	BRA	label1
0010  0012      	RETURN
0012            ; } delay_us function end

	ORG 0x00000012
0012            delay_ms_00000
0012            ; { delay_ms ; function begin
0012  536E      	MOVF delay_ms_00000_arg_del, F, 1
0014  0000      	NOP
0016  E101      	BNZ	label2
0018  0012      	RETURN
001A            label2
001A  0EF9      	MOVLW 0xF9
001C            label3
001C  0000      	NOP
001E  0000      	NOP
0020  0000      	NOP
0022  0000      	NOP
0024  0000      	NOP
0026  0000      	NOP
0028  0000      	NOP
002A  0000      	NOP
002C  0FFF      	ADDLW 0xFF
002E  A4D8      	BTFSS STATUS,Z
0030  D7F5      	BRA	label3
0032  0000      	NOP
0034  0000      	NOP
0036  0000      	NOP
0038  0000      	NOP
003A  0000      	NOP
003C  0000      	NOP
003E  0000      	NOP
0040  0000      	NOP
0042  0000      	NOP
0044  2F6E      	DECFSZ delay_ms_00000_arg_del, F, 1
0046  D7E9      	BRA	label2
0048  0012      	RETURN
004A            ; } delay_ms function end

	ORG 0x0000004A
004A            usb_send_d_00054
004A            ; { usb_send_data_chunk ; function begin
004A  0102      	MOVLB 0x02
004C  6BAA      	CLRF usb_send_d_00054_1_count, 1
004E            label4
004E  515C      	MOVF gbl_delivery_buffer_size, W, 1
0050  61AA      	CPFSLT usb_send_d_00054_1_count, 1
0052  D01F      	BRA	label7
0054  513D      	MOVF gbl_delivery_bytes_to_send+D'1', W, 1
0056  5D41      	SUBWF gbl_delivery_bytes_sent+D'1', W, 1
0058  E102      	BNZ	label5
005A  513C      	MOVF gbl_delivery_bytes_to_send, W, 1
005C  5D40      	SUBWF gbl_delivery_bytes_sent, W, 1
005E            label5
005E  E219      	BC	label7
0060  513F      	MOVF gbl_delivery_bytes_max_send+D'1', W, 1
0062  5D41      	SUBWF gbl_delivery_bytes_sent+D'1', W, 1
0064  E102      	BNZ	label6
0066  513E      	MOVF gbl_delivery_bytes_max_send, W, 1
0068  5D40      	SUBWF gbl_delivery_bytes_sent, W, 1
006A            label6
006A  E213      	BC	label7
006C  5143      	MOVF gbl_delivery_ptr+D'1', W, 1
006E  6EEA      	MOVWF FSR0H
0070  5142      	MOVF gbl_delivery_ptr, W, 1
0072  6EE9      	MOVWF FSR0L
0074  50EF      	MOVF INDF0, W
0076  6FAB      	MOVWF CompTempVar2258, 1
0078  5145      	MOVF gbl_delivery_buffer+D'1', W, 1
007A  6EEA      	MOVWF FSR0H
007C  5144      	MOVF gbl_delivery_buffer, W, 1
007E  25AA      	ADDWF usb_send_d_00054_1_count, W, 1
0080  6EE9      	MOVWF FSR0L
0082  51AB      	MOVF CompTempVar2258, W, 1
0084  6EEF      	MOVWF INDF0
0086  4B42      	INFSNZ gbl_delivery_ptr, F, 1
0088  2B43      	INCF gbl_delivery_ptr+D'1', F, 1
008A  4B40      	INFSNZ gbl_delivery_bytes_sent, F, 1
008C  2B41      	INCF gbl_delivery_bytes_sent+D'1', F, 1
008E  2BAA      	INCF usb_send_d_00054_1_count, F, 1
0090  D7DE      	BRA	label4
0092            label7
0092  515C      	MOVF gbl_delivery_buffer_size, W, 1
0094  61AA      	CPFSLT usb_send_d_00054_1_count, 1
0096  D00F      	BRA	label10
0098  513E      	MOVF gbl_delivery_bytes_max_send, W, 1
009A  6340      	CPFSEQ gbl_delivery_bytes_sent, 1
009C  D004      	BRA	label8
009E  513F      	MOVF gbl_delivery_bytes_max_send+D'1', W, 1
00A0  6341      	CPFSEQ gbl_delivery_bytes_sent+D'1', 1
00A2  D001      	BRA	label8
00A4  D006      	BRA	label9
00A6            label8
00A6  513C      	MOVF gbl_delivery_bytes_to_send, W, 1
00A8  6340      	CPFSEQ gbl_delivery_bytes_sent, 1
00AA  D005      	BRA	label10
00AC  513D      	MOVF gbl_delivery_bytes_to_send+D'1', W, 1
00AE  6341      	CPFSEQ gbl_delivery_bytes_sent+D'1', 1
00B0  D002      	BRA	label10
00B2            label9
00B2  0E05      	MOVLW 0x05
00B4  6F56      	MOVWF gbl_control_mode, 1
00B6            label10
00B6  51AA      	MOVF usb_send_d_00054_1_count, W, 1
00B8  6F05      	MOVWF gbl_bd0in+D'1', 1
00BA  0E02      	MOVLW HIGH(gbl_buffer_0_in+D'0')
00BC  6F07      	MOVWF gbl_bd0in+D'3', 1
00BE  0E88      	MOVLW LOW(gbl_buffer_0_in+D'0')
00C0  6F06      	MOVWF gbl_bd0in+D'2', 1
00C2  AD04      	BTFSS gbl_bd0in,6, 1
00C4  D002      	BRA	label11
00C6  9D04      	BCF gbl_bd0in,6, 1
00C8  D001      	BRA	label12
00CA            label11
00CA  8D04      	BSF gbl_bd0in,6, 1
00CC            label12
00CC  9B04      	BCF gbl_bd0in,5, 1
00CE  9904      	BCF gbl_bd0in,4, 1
00D0  8704      	BSF gbl_bd0in,3, 1
00D2  9504      	BCF gbl_bd0in,2, 1
00D4  9304      	BCF gbl_bd0in,1, 1
00D6  9104      	BCF gbl_bd0in,0, 1
00D8  8F04      	BSF gbl_bd0in,7, 1
00DA  0012      	RETURN
00DC            ; } usb_send_data_chunk function end

	ORG 0x000000DC
00DC            usb_stall__00055
00DC            ; { usb_stall_ep0 ; function begin
00DC  0102      	MOVLB 0x02
00DE  8504      	BSF gbl_bd0in,2, 1
00E0  8F04      	BSF gbl_bd0in,7, 1
00E2  8500      	BSF gbl_bd0out,2, 1
00E4  8F00      	BSF gbl_bd0out,7, 1
00E6  0012      	RETURN
00E8            ; } usb_stall_ep0 function end

	ORG 0x000000E8
00E8            usb_send_o_00066
00E8            ; { usb_send_one_byte ; function begin
00E8  0E08      	MOVLW 0x08
00EA  6F5C      	MOVWF gbl_delivery_buffer_size, 1
00EC  6B40      	CLRF gbl_delivery_bytes_sent, 1
00EE  6B41      	CLRF gbl_delivery_bytes_sent+D'1', 1
00F0  0E01      	MOVLW 0x01
00F2  6F3C      	MOVWF gbl_delivery_bytes_to_send, 1
00F4  6B3D      	CLRF gbl_delivery_bytes_to_send+D'1', 1
00F6  6B3E      	CLRF gbl_delivery_bytes_max_send, 1
00F8  6B3F      	CLRF gbl_delivery_bytes_max_send+D'1', 1
00FA  51A9      	MOVF usb_send_o_00066_arg_data, W, 1
00FC  6F5E      	MOVWF gbl_buffer_byte, 1
00FE  0E02      	MOVLW HIGH(gbl_buffer_byte+D'0')
0100  6F43      	MOVWF gbl_delivery_ptr+D'1', 1
0102  0E5E      	MOVLW LOW(gbl_buffer_byte+D'0')
0104  6F42      	MOVWF gbl_delivery_ptr, 1
0106  0E02      	MOVLW HIGH(gbl_bd0in+D'0')
0108  6F47      	MOVWF gbl_delivery_bd+D'1', 1
010A  0E04      	MOVLW LOW(gbl_bd0in+D'0')
010C  6F46      	MOVWF gbl_delivery_bd, 1
010E  0E02      	MOVLW HIGH(gbl_buffer_0_in+D'0')
0110  6F45      	MOVWF gbl_delivery_buffer+D'1', 1
0112  0E88      	MOVLW LOW(gbl_buffer_0_in+D'0')
0114  6F44      	MOVWF gbl_delivery_buffer, 1
0116  9D04      	BCF gbl_bd0in,6, 1
0118  EC25F000  	CALL usb_send_d_00054
011C  0012      	RETURN
011E            ; } usb_send_one_byte function end

	ORG 0x0000011E
011E            usb_send_e_00053
011E            ; { usb_send_empty_data_pkt ; function begin
011E  0E08      	MOVLW 0x08
0120  0102      	MOVLB 0x02
0122  6F5C      	MOVWF gbl_delivery_buffer_size, 1
0124  0E02      	MOVLW HIGH(gbl_bd0in+D'0')
0126  6F47      	MOVWF gbl_delivery_bd+D'1', 1
0128  0E04      	MOVLW LOW(gbl_bd0in+D'0')
012A  6F46      	MOVWF gbl_delivery_bd, 1
012C  0E02      	MOVLW HIGH(gbl_buffer_0_in+D'0')
012E  6F45      	MOVWF gbl_delivery_buffer+D'1', 1
0130  0E88      	MOVLW LOW(gbl_buffer_0_in+D'0')
0132  6F44      	MOVWF gbl_delivery_buffer, 1
0134  6B40      	CLRF gbl_delivery_bytes_sent, 1
0136  6B41      	CLRF gbl_delivery_bytes_sent+D'1', 1
0138  6B3C      	CLRF gbl_delivery_bytes_to_send, 1
013A  6B3D      	CLRF gbl_delivery_bytes_to_send+D'1', 1
013C  6B3E      	CLRF gbl_delivery_bytes_max_send, 1
013E  6B3F      	CLRF gbl_delivery_bytes_max_send+D'1', 1
0140  6B42      	CLRF gbl_delivery_ptr, 1
0142  6B43      	CLRF gbl_delivery_ptr+D'1', 1
0144  9D04      	BCF gbl_bd0in,6, 1
0146  EC25F000  	CALL usb_send_d_00054
014A  0012      	RETURN
014C            ; } usb_send_empty_data_pkt function end

	ORG 0x0000014C
014C            usb_send_d_00052
014C            ; { usb_send_data ; function begin
014C  0101      	MOVLB 0x01
014E  EE01F0B7  	LFSR 0x00, gbl_ep_in_buffer_location
0152  50E9      	MOVF FSR0L, W
0154  0102      	MOVLB 0x02
0156  517F      	MOVF usb_send_d_00052_arg_ep, W, 1
0158  6FB1      	MOVWF CompTempVar2242, 1
015A  90D8      	BCF STATUS,C
015C  35B1      	RLCF CompTempVar2242, W, 1
015E  26E9      	ADDWF FSR0L, F
0160  50EE      	MOVF POSTINC0, W
0162  6FAF      	MOVWF usb_send_d_00052_1_buffer, 1
0164  50EF      	MOVF INDF0, W
0166  6FB0      	MOVWF usb_send_d_00052_1_buffer+D'1', 1
0168  0101      	MOVLB 0x01
016A  EE01F0A7  	LFSR 0x00, gbl_ep_in_bd_location
016E  50E9      	MOVF FSR0L, W
0170  0102      	MOVLB 0x02
0172  517F      	MOVF usb_send_d_00052_arg_ep, W, 1
0174  6FB1      	MOVWF CompTempVar2245, 1
0176  90D8      	BCF STATUS,C
0178  35B1      	RLCF CompTempVar2245, W, 1
017A  26E9      	ADDWF FSR0L, F
017C  50EE      	MOVF POSTINC0, W
017E  6FAD      	MOVWF usb_send_d_00052_1_bd, 1
0180  50EF      	MOVF INDF0, W
0182  6FAE      	MOVWF usb_send_d_00052_1_bd+D'1', 1
0184  51AE      	MOVF usb_send_d_00052_1_bd+D'1', W, 1
0186  6EEA      	MOVWF FSR0H
0188  51AD      	MOVF usb_send_d_00052_1_bd, W, 1
018A  6EE9      	MOVWF FSR0L
018C  BEEF      	BTFSC INDF0,7
018E  0012      	RETURN
0190  6BAC      	CLRF usb_send_d_00052_1_count, 1
0192            label13
0192  51AA      	MOVF usb_send_d_00052_arg_send_count, W, 1
0194  61AC      	CPFSLT usb_send_d_00052_1_count, 1
0196  D013      	BRA	label14
0198  51A9      	MOVF usb_send_d_00052_arg_data+D'1', W, 1
019A  6EEA      	MOVWF FSR0H
019C  51A8      	MOVF usb_send_d_00052_arg_data, W, 1
019E  6EE9      	MOVWF FSR0L
01A0  51AC      	MOVF usb_send_d_00052_1_count, W, 1
01A2  6FB1      	MOVWF CompTempVar2248, 1
01A4  51B1      	MOVF CompTempVar2248, W, 1
01A6  26E9      	ADDWF FSR0L, F
01A8  50EF      	MOVF INDF0, W
01AA  6FB2      	MOVWF CompTempVar2249, 1
01AC  51B0      	MOVF usb_send_d_00052_1_buffer+D'1', W, 1
01AE  6EEA      	MOVWF FSR0H
01B0  51AF      	MOVF usb_send_d_00052_1_buffer, W, 1
01B2  25AC      	ADDWF usb_send_d_00052_1_count, W, 1
01B4  6EE9      	MOVWF FSR0L
01B6  51B2      	MOVF CompTempVar2249, W, 1
01B8  6EEF      	MOVWF INDF0
01BA  2BAC      	INCF usb_send_d_00052_1_count, F, 1
01BC  D7EA      	BRA	label13
01BE            label14
01BE  51AE      	MOVF usb_send_d_00052_1_bd+D'1', W, 1
01C0  6EEA      	MOVWF FSR0H
01C2  29AD      	INCF usb_send_d_00052_1_bd, W, 1
01C4  6EE9      	MOVWF FSR0L
01C6  51AC      	MOVF usb_send_d_00052_1_count, W, 1
01C8  6EEF      	MOVWF INDF0
01CA  06E9      	DECF FSR0L, F
01CC  0E02      	MOVLW 0x02
01CE  26E9      	ADDWF FSR0L, F
01D0  2AE9      	INCF FSR0L, F
01D2  51AF      	MOVF usb_send_d_00052_1_buffer, W, 1
01D4  6FB1      	MOVWF CompTempVar2250, 1
01D6  51B0      	MOVF usb_send_d_00052_1_buffer+D'1', W, 1
01D8  6EEF      	MOVWF INDF0
01DA  06E9      	DECF FSR0L, F
01DC  51B1      	MOVF CompTempVar2250, W, 1
01DE  6EEF      	MOVWF INDF0
01E0  A1AB      	BTFSS usb_send_d_00052_arg_first,0, 1
01E2  D005      	BRA	label15
01E4  51AE      	MOVF usb_send_d_00052_1_bd+D'1', W, 1
01E6  6EEA      	MOVWF FSR0H
01E8  51AD      	MOVF usb_send_d_00052_1_bd, W, 1
01EA  6EE9      	MOVWF FSR0L
01EC  9CEF      	BCF INDF0,6
01EE            label15
01EE  51AE      	MOVF usb_send_d_00052_1_bd+D'1', W, 1
01F0  6EEA      	MOVWF FSR0H
01F2  51AD      	MOVF usb_send_d_00052_1_bd, W, 1
01F4  6EE9      	MOVWF FSR0L
01F6  ACEF      	BTFSS INDF0,6
01F8  D006      	BRA	label16
01FA  51AE      	MOVF usb_send_d_00052_1_bd+D'1', W, 1
01FC  6EEA      	MOVWF FSR0H
01FE  51AD      	MOVF usb_send_d_00052_1_bd, W, 1
0200  6EE9      	MOVWF FSR0L
0202  9CEF      	BCF INDF0,6
0204  D005      	BRA	label17
0206            label16
0206  51AE      	MOVF usb_send_d_00052_1_bd+D'1', W, 1
0208  6EEA      	MOVWF FSR0H
020A  51AD      	MOVF usb_send_d_00052_1_bd, W, 1
020C  6EE9      	MOVWF FSR0L
020E  8CEF      	BSF INDF0,6
0210            label17
0210  51AE      	MOVF usb_send_d_00052_1_bd+D'1', W, 1
0212  6EEA      	MOVWF FSR0H
0214  51AD      	MOVF usb_send_d_00052_1_bd, W, 1
0216  6EE9      	MOVWF FSR0L
0218  9AEF      	BCF INDF0,5
021A  98EF      	BCF INDF0,4
021C  86EF      	BSF INDF0,3
021E  94EF      	BCF INDF0,2
0220  92EF      	BCF INDF0,1
0222  90EF      	BCF INDF0,0
0224  8EEF      	BSF INDF0,7
0226  0012      	RETURN
0228            ; } usb_send_data function end

	ORG 0x00000228
0228            usb_get_de_0005A
0228            ; { usb_get_descriptor_callback ; function begin
0228  6BAF      	CLRF usb_get_de_0005A_1_descrip_0005F, 1
022A  6BB0      	CLRF usb_get_de_0005A_1_descrip_0005F+D'1', 1
022C  05A9      	DECF usb_get_de_0005A_arg_descr_0005B, W, 1
022E  E00C      	BZ	label20
0230  0E02      	MOVLW 0x02
0232  63A9      	CPFSEQ usb_get_de_0005A_arg_descr_0005B, 1
0234  D001      	BRA	label18
0236  D012      	BRA	label21
0238            label18
0238  0E03      	MOVLW 0x03
023A  63A9      	CPFSEQ usb_get_de_0005A_arg_descr_0005B, 1
023C  D001      	BRA	label19
023E  D018      	BRA	label22
0240            label19
0240  0E06      	MOVLW 0x06
0242  63A9      	CPFSEQ usb_get_de_0005A_arg_descr_0005B, 1
0244  D03A      	BRA	label26
0246  D039      	BRA	label26
0248            label20
0248  0E00      	MOVLW HIGH(gbl_my_device_descriptor+D'0')
024A  6FB3      	MOVWF CompTempVar2265, 1
024C  0E48      	MOVLW LOW(gbl_my_device_descriptor+D'0')
024E  6FAF      	MOVWF usb_get_de_0005A_1_descrip_0005F, 1
0250  51B3      	MOVF CompTempVar2265, W, 1
0252  6FB0      	MOVWF usb_get_de_0005A_1_descrip_0005F+D'1', 1
0254  0E12      	MOVLW 0x12
0256  6FB1      	MOVWF usb_get_de_0005A_1_descrip_00060, 1
0258  6BB2      	CLRF usb_get_de_0005A_1_descrip_00060+D'1', 1
025A  D02F      	BRA	label26
025C            label21
025C  0E00      	MOVLW HIGH(gbl_complete_serial_config_00000+D'0')
025E  6FB3      	MOVWF CompTempVar2266, 1
0260  0E05      	MOVLW LOW(gbl_complete_serial_config_00000+D'0')
0262  6FAF      	MOVWF usb_get_de_0005A_1_descrip_0005F, 1
0264  51B3      	MOVF CompTempVar2266, W, 1
0266  6FB0      	MOVWF usb_get_de_0005A_1_descrip_0005F+D'1', 1
0268  0E43      	MOVLW 0x43
026A  6FB1      	MOVWF usb_get_de_0005A_1_descrip_00060, 1
026C  6BB2      	CLRF usb_get_de_0005A_1_descrip_00060+D'1', 1
026E  D025      	BRA	label26
0270            label22
0270  53AA      	MOVF usb_get_de_0005A_arg_descr_0005C, F, 1
0272  E006      	BZ	label23
0274  05AA      	DECF usb_get_de_0005A_arg_descr_0005C, W, 1
0276  E00E      	BZ	label24
0278  0E02      	MOVLW 0x02
027A  63AA      	CPFSEQ usb_get_de_0005A_arg_descr_0005C, 1
027C  D01E      	BRA	label26
027E  D014      	BRA	label25
0280            label23
0280  0E04      	MOVLW 0x04
0282  6FB1      	MOVWF usb_get_de_0005A_1_descrip_00060, 1
0284  6BB2      	CLRF usb_get_de_0005A_1_descrip_00060+D'1', 1
0286  0E02      	MOVLW HIGH(gbl_string_00+D'0')
0288  6FB3      	MOVWF CompTempVar2267, 1
028A  0E34      	MOVLW LOW(gbl_string_00+D'0')
028C  6FAF      	MOVWF usb_get_de_0005A_1_descrip_0005F, 1
028E  51B3      	MOVF CompTempVar2267, W, 1
0290  6FB0      	MOVWF usb_get_de_0005A_1_descrip_0005F+D'1', 1
0292  D013      	BRA	label26
0294            label24
0294  0E2E      	MOVLW 0x2E
0296  6FB1      	MOVWF usb_get_de_0005A_1_descrip_00060, 1
0298  6BB2      	CLRF usb_get_de_0005A_1_descrip_00060+D'1', 1
029A  0E01      	MOVLW HIGH(gbl_MX_USBMFR+D'0')
029C  6FB3      	MOVWF CompTempVar2268, 1
029E  0E40      	MOVLW LOW(gbl_MX_USBMFR+D'0')
02A0  6FAF      	MOVWF usb_get_de_0005A_1_descrip_0005F, 1
02A2  51B3      	MOVF CompTempVar2268, W, 1
02A4  6FB0      	MOVWF usb_get_de_0005A_1_descrip_0005F+D'1', 1
02A6  D009      	BRA	label26
02A8            label25
02A8  0E28      	MOVLW 0x28
02AA  6FB1      	MOVWF usb_get_de_0005A_1_descrip_00060, 1
02AC  6BB2      	CLRF usb_get_de_0005A_1_descrip_00060+D'1', 1
02AE  0E01      	MOVLW HIGH(gbl_MX_USBNAME+D'0')
02B0  6FB3      	MOVWF CompTempVar2269, 1
02B2  0E6E      	MOVLW LOW(gbl_MX_USBNAME+D'0')
02B4  6FAF      	MOVWF usb_get_de_0005A_1_descrip_0005F, 1
02B6  51B3      	MOVF CompTempVar2269, W, 1
02B8  6FB0      	MOVWF usb_get_de_0005A_1_descrip_0005F+D'1', 1
02BA            label26
02BA  51AC      	MOVF usb_get_de_0005A_arg_rtn_d_0005D+D'1', W, 1
02BC  6EEA      	MOVWF FSR0H
02BE  51AB      	MOVF usb_get_de_0005A_arg_rtn_d_0005D, W, 1
02C0  6EE9      	MOVWF FSR0L
02C2  2AE9      	INCF FSR0L, F
02C4  51AF      	MOVF usb_get_de_0005A_1_descrip_0005F, W, 1
02C6  6FB3      	MOVWF CompTempVar2270, 1
02C8  51B0      	MOVF usb_get_de_0005A_1_descrip_0005F+D'1', W, 1
02CA  6EEF      	MOVWF INDF0
02CC  06E9      	DECF FSR0L, F
02CE  51B3      	MOVF CompTempVar2270, W, 1
02D0  6EEF      	MOVWF INDF0
02D2  51AE      	MOVF usb_get_de_0005A_arg_rtn_d_0005E+D'1', W, 1
02D4  6EEA      	MOVWF FSR0H
02D6  51AD      	MOVF usb_get_de_0005A_arg_rtn_d_0005E, W, 1
02D8  6EE9      	MOVWF FSR0L
02DA  2AE9      	INCF FSR0L, F
02DC  51B1      	MOVF usb_get_de_0005A_1_descrip_00060, W, 1
02DE  6FB3      	MOVWF CompTempVar2271, 1
02E0  51B2      	MOVF usb_get_de_0005A_1_descrip_00060+D'1', W, 1
02E2  6EEF      	MOVWF INDF0
02E4  06E9      	DECF FSR0L, F
02E6  51B3      	MOVF CompTempVar2271, W, 1
02E8  6EEF      	MOVWF INDF0
02EA  0012      	RETURN
02EC            ; } usb_get_descriptor_callback function end

	ORG 0x000002EC
02EC            usb_device_00064
02EC            ; { usb_device_configured_callback ; function begin
02EC  0E01      	MOVLW 0x01
02EE  0102      	MOVLB 0x02
02F0  6F63      	MOVWF gbl_CDC_USB_status, 1
02F2  0012      	RETURN
02F4            ; } usb_device_configured_callback function end

	ORG 0x000002F4
02F4            usb_config_00065
02F4            ; { usb_configure_endpoints ; function begin
02F4  010F      	MOVLB 0x0F
02F6  8955      	BSF gbl_uep2,4, 1
02F8  9555      	BCF gbl_uep2,2, 1
02FA  8355      	BSF gbl_uep2,1, 1
02FC  8755      	BSF gbl_uep2,3, 1
02FE  0102      	MOVLB 0x02
0300  8D14      	BSF gbl_bd2in,6, 1
0302  9B14      	BCF gbl_bd2in,5, 1
0304  9914      	BCF gbl_bd2in,4, 1
0306  9714      	BCF gbl_bd2in,3, 1
0308  9514      	BCF gbl_bd2in,2, 1
030A  9314      	BCF gbl_bd2in,1, 1
030C  9114      	BCF gbl_bd2in,0, 1
030E  9F14      	BCF gbl_bd2in,7, 1
0310  010F      	MOVLB 0x0F
0312  8956      	BSF gbl_uep3,4, 1
0314  8556      	BSF gbl_uep3,2, 1
0316  8356      	BSF gbl_uep3,1, 1
0318  8756      	BSF gbl_uep3,3, 1
031A  0102      	MOVLB 0x02
031C  8D1C      	BSF gbl_bd3in,6, 1
031E  9B1C      	BCF gbl_bd3in,5, 1
0320  991C      	BCF gbl_bd3in,4, 1
0322  971C      	BCF gbl_bd3in,3, 1
0324  951C      	BCF gbl_bd3in,2, 1
0326  931C      	BCF gbl_bd3in,1, 1
0328  911C      	BCF gbl_bd3in,0, 1
032A  9F1C      	BCF gbl_bd3in,7, 1
032C  0E08      	MOVLW 0x08
032E  6F19      	MOVWF gbl_bd3out+D'1', 1
0330  0E98      	MOVLW 0x98
0332  6F1A      	MOVWF gbl_bd3out+D'2', 1
0334  0E02      	MOVLW 0x02
0336  6F1B      	MOVWF gbl_bd3out+D'3', 1
0338  9D18      	BCF gbl_bd3out,6, 1
033A  9B18      	BCF gbl_bd3out,5, 1
033C  9918      	BCF gbl_bd3out,4, 1
033E  9718      	BCF gbl_bd3out,3, 1
0340  9518      	BCF gbl_bd3out,2, 1
0342  9318      	BCF gbl_bd3out,1, 1
0344  9118      	BCF gbl_bd3out,0, 1
0346  8F18      	BSF gbl_bd3out,7, 1
0348  0012      	RETURN
034A            ; } usb_configure_endpoints function end

	ORG 0x0000034A
034A            usb_cdc_ha_00063
034A            ; { usb_cdc_handle_tx ; function begin
034A  0101      	MOVLB 0x01
034C  51AD      	MOVF gbl_ep_in_bd_location+D'6', W, 1
034E  0102      	MOVLB 0x02
0350  6FAA      	MOVWF usb_cdc_ha_00063_1_bd, 1
0352  0101      	MOVLB 0x01
0354  51AE      	MOVF gbl_ep_in_bd_location+D'7', W, 1
0356  0102      	MOVLB 0x02
0358  6FAB      	MOVWF usb_cdc_ha_00063_1_bd+D'1', 1
035A  51AB      	MOVF usb_cdc_ha_00063_1_bd+D'1', W, 1
035C  6EEA      	MOVWF FSR0H
035E  51AA      	MOVF usb_cdc_ha_00063_1_bd, W, 1
0360  6EE9      	MOVWF FSR0L
0362  BEEF      	BTFSC INDF0,7
0364  0012      	RETURN
0366  0101      	MOVLB 0x01
0368  51CD      	MOVF gbl_ep_in_buffer_size+D'6', W, 1
036A  0102      	MOVLB 0x02
036C  6F7E      	MOVWF usb_cdc_ha_00063_1_buffer_size, 1
036E  0101      	MOVLB 0x01
0370  51CE      	MOVF gbl_ep_in_buffer_size+D'7', W, 1
0372  0102      	MOVLB 0x02
0374  6F7F      	MOVWF usb_cdc_ha_00063_1_buffer_size+D'1', 1
0376  0101      	MOVLB 0x01
0378  51BD      	MOVF gbl_ep_in_buffer_location+D'6', W, 1
037A  0102      	MOVLB 0x02
037C  6FA8      	MOVWF usb_cdc_ha_00063_1_buffer, 1
037E  0101      	MOVLB 0x01
0380  51BE      	MOVF gbl_ep_in_buffer_location+D'7', W, 1
0382  0102      	MOVLB 0x02
0384  6FA9      	MOVWF usb_cdc_ha_00063_1_buffer+D'1', 1
0386  515F      	MOVF gbl_cdc_tx_start, W, 1
0388  6360      	CPFSEQ gbl_cdc_tx_end, 1
038A  D001      	BRA	label27
038C  0012      	RETURN
038E            label27
038E  91AC      	BCF usb_cdc_ha_00063_1_store_gie,0, 1
0390  BEF2      	BTFSC gbl_intcon,7
0392  81AC      	BSF usb_cdc_ha_00063_1_store_gie,0, 1
0394            label28
0394  9EF2      	BCF gbl_intcon,7
0396  BEF2      	BTFSC gbl_intcon,7
0398  D7FD      	BRA	label28
039A  6B7D      	CLRF usb_cdc_ha_00063_1_count, 1
039C            label29
039C  515F      	MOVF gbl_cdc_tx_start, W, 1
039E  6360      	CPFSEQ gbl_cdc_tx_end, 1
03A0  635F      	CPFSEQ gbl_cdc_tx_start, 1
03A2  D020      	BRA	label31
03A4  517E      	MOVF usb_cdc_ha_00063_1_buffer_size, W, 1
03A6  617D      	CPFSLT usb_cdc_ha_00063_1_count, 1
03A8  517F      	MOVF usb_cdc_ha_00063_1_buffer_size+D'1', W, 1
03AA  E01C      	BZ	label31
03AC  295F      	INCF gbl_cdc_tx_start, W, 1
03AE  6F7C      	MOVWF usb_cdc_ha_00063_1_cdc_tx_next, 1
03B0  0E40      	MOVLW 0x40
03B2  637C      	CPFSEQ usb_cdc_ha_00063_1_cdc_tx_next, 1
03B4  D001      	BRA	label30
03B6  6B7C      	CLRF usb_cdc_ha_00063_1_cdc_tx_next, 1
03B8            label30
03B8  0100      	MOVLB 0x00
03BA  EE00F060  	LFSR 0x00, gbl_cdc_tx_buffer
03BE  50E9      	MOVF FSR0L, W
03C0  0102      	MOVLB 0x02
03C2  515F      	MOVF gbl_cdc_tx_start, W, 1
03C4  6FAD      	MOVWF CompTempVar2281, 1
03C6  51AD      	MOVF CompTempVar2281, W, 1
03C8  26E9      	ADDWF FSR0L, F
03CA  50EF      	MOVF INDF0, W
03CC  6FAE      	MOVWF CompTempVar2282, 1
03CE  51A9      	MOVF usb_cdc_ha_00063_1_buffer+D'1', W, 1
03D0  6EEA      	MOVWF FSR0H
03D2  51A8      	MOVF usb_cdc_ha_00063_1_buffer, W, 1
03D4  257D      	ADDWF usb_cdc_ha_00063_1_count, W, 1
03D6  6EE9      	MOVWF FSR0L
03D8  51AE      	MOVF CompTempVar2282, W, 1
03DA  6EEF      	MOVWF INDF0
03DC  2B7D      	INCF usb_cdc_ha_00063_1_count, F, 1
03DE  517C      	MOVF usb_cdc_ha_00063_1_cdc_tx_next, W, 1
03E0  6F5F      	MOVWF gbl_cdc_tx_start, 1
03E2  D7DC      	BRA	label29
03E4            label31
03E4  0E00      	MOVLW 0x00
03E6  657D      	CPFSGT usb_cdc_ha_00063_1_count, 1
03E8  D02B      	BRA	label34
03EA  51AB      	MOVF usb_cdc_ha_00063_1_bd+D'1', W, 1
03EC  6EEA      	MOVWF FSR0H
03EE  29AA      	INCF usb_cdc_ha_00063_1_bd, W, 1
03F0  6EE9      	MOVWF FSR0L
03F2  517D      	MOVF usb_cdc_ha_00063_1_count, W, 1
03F4  6EEF      	MOVWF INDF0
03F6  06E9      	DECF FSR0L, F
03F8  0E02      	MOVLW 0x02
03FA  26E9      	ADDWF FSR0L, F
03FC  2AE9      	INCF FSR0L, F
03FE  51A8      	MOVF usb_cdc_ha_00063_1_buffer, W, 1
0400  6FAD      	MOVWF CompTempVar2283, 1
0402  51A9      	MOVF usb_cdc_ha_00063_1_buffer+D'1', W, 1
0404  6EEF      	MOVWF INDF0
0406  06E9      	DECF FSR0L, F
0408  51AD      	MOVF CompTempVar2283, W, 1
040A  6EEF      	MOVWF INDF0
040C  51AA      	MOVF usb_cdc_ha_00063_1_bd, W, 1
040E  6EE9      	MOVWF FSR0L
0410  ACEF      	BTFSS INDF0,6
0412  D006      	BRA	label32
0414  51AB      	MOVF usb_cdc_ha_00063_1_bd+D'1', W, 1
0416  6EEA      	MOVWF FSR0H
0418  51AA      	MOVF usb_cdc_ha_00063_1_bd, W, 1
041A  6EE9      	MOVWF FSR0L
041C  9CEF      	BCF INDF0,6
041E  D005      	BRA	label33
0420            label32
0420  51AB      	MOVF usb_cdc_ha_00063_1_bd+D'1', W, 1
0422  6EEA      	MOVWF FSR0H
0424  51AA      	MOVF usb_cdc_ha_00063_1_bd, W, 1
0426  6EE9      	MOVWF FSR0L
0428  8CEF      	BSF INDF0,6
042A            label33
042A  51AB      	MOVF usb_cdc_ha_00063_1_bd+D'1', W, 1
042C  6EEA      	MOVWF FSR0H
042E  51AA      	MOVF usb_cdc_ha_00063_1_bd, W, 1
0430  6EE9      	MOVWF FSR0L
0432  9AEF      	BCF INDF0,5
0434  98EF      	BCF INDF0,4
0436  86EF      	BSF INDF0,3
0438  94EF      	BCF INDF0,2
043A  92EF      	BCF INDF0,1
043C  90EF      	BCF INDF0,0
043E  8EEF      	BSF INDF0,7
0440            label34
0440  B1AC      	BTFSC usb_cdc_ha_00063_1_store_gie,0, 1
0442  8EF2      	BSF gbl_intcon,7
0444  A1AC      	BTFSS usb_cdc_ha_00063_1_store_gie,0, 1
0446  9EF2      	BCF gbl_intcon,7
0448  0012      	RETURN
044A            ; } usb_cdc_handle_tx function end

	ORG 0x0000044A
044A            memcpy8_00000
044A            ; { memcpy8 ; function begin
044A  517D      	MOVF memcpy8_00000_arg_dst, W, 1
044C  6FAA      	MOVWF memcpy8_00000_1_dst2, 1
044E  517E      	MOVF memcpy8_00000_arg_dst+D'1', W, 1
0450  6FAB      	MOVWF memcpy8_00000_1_dst2+D'1', 1
0452  51A8      	MOVF memcpy8_00000_arg_src, W, 1
0454  6FAC      	MOVWF memcpy8_00000_1_src2, 1
0456  51A9      	MOVF memcpy8_00000_arg_src+D'1', W, 1
0458  6FAD      	MOVWF memcpy8_00000_1_src2+D'1', 1
045A            label35
045A  0E00      	MOVLW 0x00
045C  657F      	CPFSGT memcpy8_00000_arg_len, 1
045E  D012      	BRA	label36
0460  51AD      	MOVF memcpy8_00000_1_src2+D'1', W, 1
0462  6EEA      	MOVWF FSR0H
0464  51AC      	MOVF memcpy8_00000_1_src2, W, 1
0466  6EE9      	MOVWF FSR0L
0468  4BAC      	INFSNZ memcpy8_00000_1_src2, F, 1
046A  2BAD      	INCF memcpy8_00000_1_src2+D'1', F, 1
046C  50EF      	MOVF INDF0, W
046E  6FAE      	MOVWF CompTempVar413, 1
0470  51AB      	MOVF memcpy8_00000_1_dst2+D'1', W, 1
0472  6EEA      	MOVWF FSR0H
0474  51AA      	MOVF memcpy8_00000_1_dst2, W, 1
0476  6EE9      	MOVWF FSR0L
0478  4BAA      	INFSNZ memcpy8_00000_1_dst2, F, 1
047A  2BAB      	INCF memcpy8_00000_1_dst2+D'1', F, 1
047C  51AE      	MOVF CompTempVar413, W, 1
047E  6EEF      	MOVWF INDF0
0480  077F      	DECF memcpy8_00000_arg_len, F, 1
0482  D7EB      	BRA	label35
0484            label36
0484  517D      	MOVF memcpy8_00000_arg_dst, W, 1
0486  6FAE      	MOVWF CompTempVarRet412, 1
0488  517E      	MOVF memcpy8_00000_arg_dst+D'1', W, 1
048A  6FAF      	MOVWF CompTempVarRet412+D'1', 1
048C  0012      	RETURN
048E            ; } memcpy8 function end

	ORG 0x0000048E
048E            usb_prime__00067
048E            ; { usb_prime_ep0_out ; function begin
048E  0E08      	MOVLW 0x08
0490  0102      	MOVLB 0x02
0492  6F01      	MOVWF gbl_bd0out+D'1', 1
0494  0E80      	MOVLW 0x80
0496  6F02      	MOVWF gbl_bd0out+D'2', 1
0498  0E02      	MOVLW 0x02
049A  6F03      	MOVWF gbl_bd0out+D'3', 1
049C  8D00      	BSF gbl_bd0out,6, 1
049E  9B00      	BCF gbl_bd0out,5, 1
04A0  9900      	BCF gbl_bd0out,4, 1
04A2  8700      	BSF gbl_bd0out,3, 1
04A4  9500      	BCF gbl_bd0out,2, 1
04A6  9300      	BCF gbl_bd0out,1, 1
04A8  9100      	BCF gbl_bd0out,0, 1
04AA  8F00      	BSF gbl_bd0out,7, 1
04AC  0012      	RETURN
04AE            ; } usb_prime_ep0_out function end

	ORG 0x000004AE
04AE            usb_handle_00068
04AE            ; { usb_handle_standard_request ; function begin
04AE  0E06      	MOVLW 0x06
04B0  6378      	CPFSEQ usb_handle_00068_arg_sdp+D'1', 1
04B2  D001      	BRA	label37
04B4  D00F      	BRA	label41
04B6            label37
04B6  0E05      	MOVLW 0x05
04B8  6378      	CPFSEQ usb_handle_00068_arg_sdp+D'1', 1
04BA  D001      	BRA	label38
04BC  D03A      	BRA	label44
04BE            label38
04BE  0E09      	MOVLW 0x09
04C0  6378      	CPFSEQ usb_handle_00068_arg_sdp+D'1', 1
04C2  D001      	BRA	label39
04C4  D03F      	BRA	label45
04C6            label39
04C6  0E0A      	MOVLW 0x0A
04C8  6378      	CPFSEQ usb_handle_00068_arg_sdp+D'1', 1
04CA  D001      	BRA	label40
04CC  D046      	BRA	label46
04CE            label40
04CE  5378      	MOVF usb_handle_00068_arg_sdp+D'1', F, 1
04D0  E04A      	BZ	label47
04D2  D04D      	BRA	label48
04D4            label41
04D4  517A      	MOVF usb_handle_00068_arg_sdp+D'3', W, 1
04D6  6F7F      	MOVWF usb_handle_00068_1_descrip_00069, 1
04D8  5179      	MOVF usb_handle_00068_arg_sdp+D'2', W, 1
04DA  6FA8      	MOVWF usb_handle_00068_1_descrip_0006A, 1
04DC  517F      	MOVF usb_handle_00068_1_descrip_00069, W, 1
04DE  6FA9      	MOVWF usb_get_de_0005A_arg_descr_0005B, 1
04E0  51A8      	MOVF usb_handle_00068_1_descrip_0006A, W, 1
04E2  6FAA      	MOVWF usb_get_de_0005A_arg_descr_0005C, 1
04E4  0E02      	MOVLW HIGH(gbl_delivery_ptr+D'0')
04E6  6FAC      	MOVWF usb_get_de_0005A_arg_rtn_d_0005D+D'1', 1
04E8  0E42      	MOVLW LOW(gbl_delivery_ptr+D'0')
04EA  6FAB      	MOVWF usb_get_de_0005A_arg_rtn_d_0005D, 1
04EC  0E02      	MOVLW HIGH(gbl_delivery_bytes_to_send+D'0')
04EE  6FAE      	MOVWF usb_get_de_0005A_arg_rtn_d_0005E+D'1', 1
04F0  0E3C      	MOVLW LOW(gbl_delivery_bytes_to_send+D'0')
04F2  6FAD      	MOVWF usb_get_de_0005A_arg_rtn_d_0005E, 1
04F4  EC14F001  	CALL usb_get_de_0005A
04F8  5342      	MOVF gbl_delivery_ptr, F, 1
04FA  E102      	BNZ	label42
04FC  5343      	MOVF gbl_delivery_ptr+D'1', F, 1
04FE  E016      	BZ	label43
0500            label42
0500  0E03      	MOVLW 0x03
0502  6F56      	MOVWF gbl_control_mode, 1
0504  517D      	MOVF usb_handle_00068_arg_sdp+D'6', W, 1
0506  6F3E      	MOVWF gbl_delivery_bytes_max_send, 1
0508  517E      	MOVF usb_handle_00068_arg_sdp+D'7', W, 1
050A  6F3F      	MOVWF gbl_delivery_bytes_max_send+D'1', 1
050C  6B40      	CLRF gbl_delivery_bytes_sent, 1
050E  6B41      	CLRF gbl_delivery_bytes_sent+D'1', 1
0510  0E08      	MOVLW 0x08
0512  6F5C      	MOVWF gbl_delivery_buffer_size, 1
0514  0E02      	MOVLW HIGH(gbl_bd0in+D'0')
0516  6F47      	MOVWF gbl_delivery_bd+D'1', 1
0518  0E04      	MOVLW LOW(gbl_bd0in+D'0')
051A  6F46      	MOVWF gbl_delivery_bd, 1
051C  0E88      	MOVLW 0x88
051E  6F44      	MOVWF gbl_delivery_buffer, 1
0520  0E02      	MOVLW 0x02
0522  6F45      	MOVWF gbl_delivery_buffer+D'1', 1
0524  9D04      	BCF gbl_bd0in,6, 1
0526  EC25F000  	CALL usb_send_d_00054
052A  0012      	RETURN
052C            label43
052C  EC6EF000  	CALL usb_stall__00055
0530  0012      	RETURN
0532            label44
0532  5179      	MOVF usb_handle_00068_arg_sdp+D'2', W, 1
0534  6F55      	MOVWF gbl_usb_address, 1
0536  0E01      	MOVLW 0x01
0538  6F5D      	MOVWF gbl_usb_status, 1
053A  EC8FF000  	CALL usb_send_e_00053
053E  0E06      	MOVLW 0x06
0540  6F56      	MOVWF gbl_control_mode, 1
0542  0012      	RETURN
0544            label45
0544  0E06      	MOVLW 0x06
0546  6F56      	MOVWF gbl_control_mode, 1
0548  EC8FF000  	CALL usb_send_e_00053
054C  0E03      	MOVLW 0x03
054E  6F54      	MOVWF gbl_usb_state, 1
0550  EC7AF001  	CALL usb_config_00065
0554  EC76F001  	CALL usb_device_00064
0558  0012      	RETURN
055A            label46
055A  0E03      	MOVLW 0x03
055C  6F56      	MOVWF gbl_control_mode, 1
055E  0E01      	MOVLW 0x01
0560  6FA9      	MOVWF usb_send_o_00066_arg_data, 1
0562  EC74F000  	CALL usb_send_o_00066
0566            label47
0566  6BA9      	CLRF usb_send_o_00066_arg_data, 1
0568  EC74F000  	CALL usb_send_o_00066
056C  0012      	RETURN
056E            label48
056E  EC6EF000  	CALL usb_stall__00055
0572  0012      	RETURN
0574            ; } usb_handle_standard_request function end

	ORG 0x00000574
0574            usb_handle_00059
0574            ; { usb_handle_class_request ; function begin
0574  0E20      	MOVLW 0x20
0576  6378      	CPFSEQ usb_handle_00059_arg_sdp+D'1', 1
0578  D001      	BRA	label49
057A  D008      	BRA	label51
057C            label49
057C  0E21      	MOVLW 0x21
057E  6378      	CPFSEQ usb_handle_00059_arg_sdp+D'1', 1
0580  D001      	BRA	label50
0582  D007      	BRA	label52
0584            label50
0584  0E22      	MOVLW 0x22
0586  6378      	CPFSEQ usb_handle_00059_arg_sdp+D'1', 1
0588  0012      	RETURN
058A  D010      	BRA	label53
058C            label51
058C  0E02      	MOVLW 0x02
058E  6F56      	MOVWF gbl_control_mode, 1
0590  0012      	RETURN
0592            label52
0592  0E04      	MOVLW 0x04
0594  6F56      	MOVWF gbl_control_mode, 1
0596  6B7F      	CLRF usb_send_d_00052_arg_ep, 1
0598  0E01      	MOVLW HIGH(gbl_class_data+D'0')
059A  6FA9      	MOVWF usb_send_d_00052_arg_data+D'1', 1
059C  0ED7      	MOVLW LOW(gbl_class_data+D'0')
059E  6FA8      	MOVWF usb_send_d_00052_arg_data, 1
05A0  0E08      	MOVLW 0x08
05A2  6FAA      	MOVWF usb_send_d_00052_arg_send_count, 1
05A4  81AB      	BSF usb_send_d_00052_arg_first,0, 1
05A6  ECA6F000  	CALL usb_send_d_00052
05AA  0012      	RETURN
05AC            label53
05AC  0E06      	MOVLW 0x06
05AE  6F56      	MOVWF gbl_control_mode, 1
05B0  EC8FF000  	CALL usb_send_e_00053
05B4  0012      	RETURN
05B6            ; } usb_handle_class_request function end

	ORG 0x000005B6
05B6            usb_handle_00058
05B6            ; { usb_handle_ctrl_write_class ; function begin
05B6  0E20      	MOVLW 0x20
05B8  0101      	MOVLB 0x01
05BA  63A0      	CPFSEQ gbl_usb_sdp+D'1', 1
05BC  0012      	RETURN
05BE  0E01      	MOVLW HIGH(gbl_class_data+D'0')
05C0  0102      	MOVLB 0x02
05C2  6F7E      	MOVWF memcpy8_00000_arg_dst+D'1', 1
05C4  0ED7      	MOVLW LOW(gbl_class_data+D'0')
05C6  6F7D      	MOVWF memcpy8_00000_arg_dst, 1
05C8  5177      	MOVF usb_handle_00058_arg_data, W, 1
05CA  6FA8      	MOVWF memcpy8_00000_arg_src, 1
05CC  5178      	MOVF usb_handle_00058_arg_data+D'1', W, 1
05CE  6FA9      	MOVWF memcpy8_00000_arg_src+D'1', 1
05D0  5179      	MOVF usb_handle_00058_arg_count, W, 1
05D2  6F7F      	MOVWF memcpy8_00000_arg_len, 1
05D4  EC25F002  	CALL memcpy8_00000
05D8  0E06      	MOVLW 0x06
05DA  6F56      	MOVWF gbl_control_mode, 1
05DC  EC8FF000  	CALL usb_send_e_00053
05E0  0E01      	MOVLW HIGH(gbl_class_data+D'0')
05E2  6F7C      	MOVWF usb_handle_00058_1_my_lc+D'1', 1
05E4  0ED7      	MOVLW LOW(gbl_class_data+D'0')
05E6  6F7B      	MOVWF usb_handle_00058_1_my_lc, 1
05E8  0012      	RETURN
05EA            ; } usb_handle_ctrl_write_class function end

	ORG 0x000005EA
05EA            usb_handle_00057
05EA            ; { usb_handle_ctrl_read_class ; function begin
05EA  0E21      	MOVLW 0x21
05EC  0101      	MOVLB 0x01
05EE  63A0      	CPFSEQ gbl_usb_sdp+D'1', 1
05F0  0012      	RETURN
05F2  0E05      	MOVLW 0x05
05F4  0102      	MOVLB 0x02
05F6  6F56      	MOVWF gbl_control_mode, 1
05F8  0012      	RETURN
05FA            ; } usb_handle_ctrl_read_class function end

	ORG 0x000005FA
05FA            usb_ep_dat_00062
05FA            ; { usb_ep_data_in_callback ; function begin
05FA  ECA5F001  	CALL usb_cdc_ha_00063
05FE  0012      	RETURN
0600            ; } usb_ep_data_in_callback function end

	ORG 0x00000600
0600            usb_ep_dat_00061
0600            ; { usb_ep_data_out_callback ; function begin
0600  0E03      	MOVLW 0x03
0602  6379      	CPFSEQ usb_ep_dat_00061_arg_end_point, 1
0604  0012      	RETURN
0606  6B7F      	CLRF usb_ep_dat_00061_2_count, 1
0608            label54
0608  517C      	MOVF usb_ep_dat_00061_arg_byte_count, W, 1
060A  617F      	CPFSLT usb_ep_dat_00061_2_count, 1
060C  517D      	MOVF usb_ep_dat_00061_arg_byte_count+D'1', W, 1
060E  B4D8      	BTFSC STATUS,Z
0610  0012      	RETURN
0612  2962      	INCF gbl_cdc_rx_end, W, 1
0614  6F7E      	MOVWF usb_ep_dat_00061_1_cdc_rx_next, 1
0616  0E40      	MOVLW 0x40
0618  637E      	CPFSEQ usb_ep_dat_00061_1_cdc_rx_next, 1
061A  D001      	BRA	label55
061C  6B7E      	CLRF usb_ep_dat_00061_1_cdc_rx_next, 1
061E            label55
061E  5161      	MOVF gbl_cdc_rx_start, W, 1
0620  637E      	CPFSEQ usb_ep_dat_00061_1_cdc_rx_next, 1
0622  6361      	CPFSEQ gbl_cdc_rx_start, 1
0624  D015      	BRA	label56
0626  517B      	MOVF usb_ep_dat_00061_arg_buffer+D'1', W, 1
0628  6EEA      	MOVWF FSR0H
062A  517A      	MOVF usb_ep_dat_00061_arg_buffer, W, 1
062C  6EE9      	MOVWF FSR0L
062E  517F      	MOVF usb_ep_dat_00061_2_count, W, 1
0630  6FA8      	MOVWF CompTempVar2274, 1
0632  51A8      	MOVF CompTempVar2274, W, 1
0634  26E9      	ADDWF FSR0L, F
0636  50EF      	MOVF INDF0, W
0638  6FA9      	MOVWF CompTempVar2275, 1
063A  0100      	MOVLB 0x00
063C  EE00F0A0  	LFSR 0x00, gbl_cdc_rx_buffer
0640  50E9      	MOVF FSR0L, W
0642  0102      	MOVLB 0x02
0644  5162      	MOVF gbl_cdc_rx_end, W, 1
0646  26E9      	ADDWF FSR0L, F
0648  51A9      	MOVF CompTempVar2275, W, 1
064A  6EEF      	MOVWF INDF0
064C  517E      	MOVF usb_ep_dat_00061_1_cdc_rx_next, W, 1
064E  6F62      	MOVWF gbl_cdc_rx_end, 1
0650            label56
0650  2B7F      	INCF usb_ep_dat_00061_2_count, F, 1
0652  D7DA      	BRA	label54
0654            ; } usb_ep_data_out_callback function end

	ORG 0x00000654
0654            usb_handle_0004F
0654            ; { usb_handle_stall ; function begin
0654  0012      	RETURN
0656            ; } usb_handle_stall function end

	ORG 0x00000656
0656            usb_handle_0004E
0656            ; { usb_handle_reset ; function begin
0656  0102      	MOVLB 0x02
0658  6B55      	CLRF gbl_usb_address, 1
065A  6B56      	CLRF gbl_control_mode, 1
065C  6B5D      	CLRF gbl_usb_status, 1
065E  9662      	BCF gbl_uir,3
0660  9662      	BCF gbl_uir,3
0662  9662      	BCF gbl_uir,3
0664  9662      	BCF gbl_uir,3
0666  0E08      	MOVLW 0x08
0668  6F01      	MOVWF gbl_bd0out+D'1', 1
066A  0E80      	MOVLW 0x80
066C  6F02      	MOVWF gbl_bd0out+D'2', 1
066E  0E02      	MOVLW 0x02
0670  6F03      	MOVWF gbl_bd0out+D'3', 1
0672  9D00      	BCF gbl_bd0out,6, 1
0674  9B00      	BCF gbl_bd0out,5, 1
0676  9900      	BCF gbl_bd0out,4, 1
0678  9700      	BCF gbl_bd0out,3, 1
067A  9500      	BCF gbl_bd0out,2, 1
067C  9300      	BCF gbl_bd0out,1, 1
067E  9100      	BCF gbl_bd0out,0, 1
0680  8F00      	BSF gbl_bd0out,7, 1
0682  0E08      	MOVLW 0x08
0684  6F05      	MOVWF gbl_bd0in+D'1', 1
0686  0E88      	MOVLW 0x88
0688  6F06      	MOVWF gbl_bd0in+D'2', 1
068A  0E02      	MOVLW 0x02
068C  6F07      	MOVWF gbl_bd0in+D'3', 1
068E  9D04      	BCF gbl_bd0in,6, 1
0690  9B04      	BCF gbl_bd0in,5, 1
0692  9904      	BCF gbl_bd0in,4, 1
0694  9504      	BCF gbl_bd0in,2, 1
0696  9304      	BCF gbl_bd0in,1, 1
0698  9104      	BCF gbl_bd0in,0, 1
069A  9F04      	BCF gbl_bd0in,7, 1
069C  0012      	RETURN
069E            ; } usb_handle_reset function end

	ORG 0x0000069E
069E            usb_handle_0004D
069E            ; { usb_handle_transaction ; function begin
069E  3063      	RRCF gbl_ustat, W
06A0  0102      	MOVLB 0x02
06A2  6F75      	MOVWF usb_handle_0004D_1_end_point, 1
06A4  3375      	RRCF usb_handle_0004D_1_end_point, F, 1
06A6  3375      	RRCF usb_handle_0004D_1_end_point, F, 1
06A8  0E1F      	MOVLW 0x1F
06AA  1775      	ANDWF usb_handle_0004D_1_end_point, F, 1
06AC  A463      	BTFSS gbl_ustat,2
06AE  D008      	BRA	label57
06B0  3104      	RRCF gbl_bd0in, W, 1
06B2  6F76      	MOVWF usb_handle_0004D_1_pid, 1
06B4  3376      	RRCF usb_handle_0004D_1_pid, F, 1
06B6  0E3F      	MOVLW 0x3F
06B8  1776      	ANDWF usb_handle_0004D_1_pid, F, 1
06BA  0E0F      	MOVLW 0x0F
06BC  1776      	ANDWF usb_handle_0004D_1_pid, F, 1
06BE  D008      	BRA	label58
06C0            label57
06C0  3100      	RRCF gbl_bd0out, W, 1
06C2  6F77      	MOVWF CompTempVar2215, 1
06C4  3377      	RRCF CompTempVar2215, F, 1
06C6  0E3F      	MOVLW 0x3F
06C8  1777      	ANDWF CompTempVar2215, F, 1
06CA  0E0F      	MOVLW 0x0F
06CC  1577      	ANDWF CompTempVar2215, W, 1
06CE  6F76      	MOVWF usb_handle_0004D_1_pid, 1
06D0            label58
06D0  5375      	MOVF usb_handle_0004D_1_end_point, F, 1
06D2  A4D8      	BTFSS STATUS,Z
06D4  D0B2      	BRA	label72
06D6  0E0D      	MOVLW 0x0D
06D8  6376      	CPFSEQ usb_handle_0004D_1_pid, 1
06DA  D05C      	BRA	label61
06DC  0E01      	MOVLW HIGH(gbl_usb_sdp+D'0')
06DE  6F7E      	MOVWF memcpy8_00000_arg_dst+D'1', 1
06E0  0E9F      	MOVLW LOW(gbl_usb_sdp+D'0')
06E2  6F7D      	MOVWF memcpy8_00000_arg_dst, 1
06E4  0E02      	MOVLW HIGH(gbl_buffer_0_out+D'0')
06E6  6FA9      	MOVWF memcpy8_00000_arg_src+D'1', 1
06E8  0E80      	MOVLW LOW(gbl_buffer_0_out+D'0')
06EA  6FA8      	MOVWF memcpy8_00000_arg_src, 1
06EC  0E08      	MOVLW 0x08
06EE  6F7F      	MOVWF memcpy8_00000_arg_len, 1
06F0  EC25F002  	CALL memcpy8_00000
06F4  EC47F002  	CALL usb_prime__00067
06F8  0101      	MOVLB 0x01
06FA  BD9F      	BTFSC gbl_usb_sdp,6, 1
06FC  D024      	BRA	label59
06FE  BB9F      	BTFSC gbl_usb_sdp,5, 1
0700  D022      	BRA	label59
0702  51A6      	MOVF gbl_usb_sdp+D'7', W, 1
0704  0102      	MOVLB 0x02
0706  6F7E      	MOVWF usb_handle_00068_arg_sdp+D'7', 1
0708  0101      	MOVLB 0x01
070A  51A5      	MOVF gbl_usb_sdp+D'6', W, 1
070C  0102      	MOVLB 0x02
070E  6F7D      	MOVWF usb_handle_00068_arg_sdp+D'6', 1
0710  0101      	MOVLB 0x01
0712  51A4      	MOVF gbl_usb_sdp+D'5', W, 1
0714  0102      	MOVLB 0x02
0716  6F7C      	MOVWF usb_handle_00068_arg_sdp+D'5', 1
0718  0101      	MOVLB 0x01
071A  51A3      	MOVF gbl_usb_sdp+D'4', W, 1
071C  0102      	MOVLB 0x02
071E  6F7B      	MOVWF usb_handle_00068_arg_sdp+D'4', 1
0720  0101      	MOVLB 0x01
0722  51A2      	MOVF gbl_usb_sdp+D'3', W, 1
0724  0102      	MOVLB 0x02
0726  6F7A      	MOVWF usb_handle_00068_arg_sdp+D'3', 1
0728  0101      	MOVLB 0x01
072A  51A1      	MOVF gbl_usb_sdp+D'2', W, 1
072C  0102      	MOVLB 0x02
072E  6F79      	MOVWF usb_handle_00068_arg_sdp+D'2', 1
0730  0101      	MOVLB 0x01
0732  51A0      	MOVF gbl_usb_sdp+D'1', W, 1
0734  0102      	MOVLB 0x02
0736  6F78      	MOVWF usb_handle_00068_arg_sdp+D'1', 1
0738  0101      	MOVLB 0x01
073A  519F      	MOVF gbl_usb_sdp, W, 1
073C  0102      	MOVLB 0x02
073E  6F77      	MOVWF usb_handle_00068_arg_sdp, 1
0740  EC57F002  	CALL usb_handle_00068
0744  D025      	BRA	label60
0746            label59
0746  BD9F      	BTFSC gbl_usb_sdp,6, 1
0748  D023      	BRA	label60
074A  AB9F      	BTFSS gbl_usb_sdp,5, 1
074C  D021      	BRA	label60
074E  51A6      	MOVF gbl_usb_sdp+D'7', W, 1
0750  0102      	MOVLB 0x02
0752  6F7E      	MOVWF usb_handle_00059_arg_sdp+D'7', 1
0754  0101      	MOVLB 0x01
0756  51A5      	MOVF gbl_usb_sdp+D'6', W, 1
0758  0102      	MOVLB 0x02
075A  6F7D      	MOVWF usb_handle_00059_arg_sdp+D'6', 1
075C  0101      	MOVLB 0x01
075E  51A4      	MOVF gbl_usb_sdp+D'5', W, 1
0760  0102      	MOVLB 0x02
0762  6F7C      	MOVWF usb_handle_00059_arg_sdp+D'5', 1
0764  0101      	MOVLB 0x01
0766  51A3      	MOVF gbl_usb_sdp+D'4', W, 1
0768  0102      	MOVLB 0x02
076A  6F7B      	MOVWF usb_handle_00059_arg_sdp+D'4', 1
076C  0101      	MOVLB 0x01
076E  51A2      	MOVF gbl_usb_sdp+D'3', W, 1
0770  0102      	MOVLB 0x02
0772  6F7A      	MOVWF usb_handle_00059_arg_sdp+D'3', 1
0774  0101      	MOVLB 0x01
0776  51A1      	MOVF gbl_usb_sdp+D'2', W, 1
0778  0102      	MOVLB 0x02
077A  6F79      	MOVWF usb_handle_00059_arg_sdp+D'2', 1
077C  0101      	MOVLB 0x01
077E  51A0      	MOVF gbl_usb_sdp+D'1', W, 1
0780  0102      	MOVLB 0x02
0782  6F78      	MOVWF usb_handle_00059_arg_sdp+D'1', 1
0784  0101      	MOVLB 0x01
0786  519F      	MOVF gbl_usb_sdp, W, 1
0788  0102      	MOVLB 0x02
078A  6F77      	MOVWF usb_handle_00059_arg_sdp, 1
078C  ECBAF002  	CALL usb_handle_00059
0790            label60
0790  9864      	BCF gbl_ucon,4
0792  0012      	RETURN
0794            label61
0794  0E09      	MOVLW 0x09
0796  6376      	CPFSEQ usb_handle_0004D_1_pid, 1
0798  D020      	BRA	label65
079A  0E03      	MOVLW 0x03
079C  6356      	CPFSEQ gbl_control_mode, 1
079E  D003      	BRA	label62
07A0  EC25F000  	CALL usb_send_d_00054
07A4  0012      	RETURN
07A6            label62
07A6  0E06      	MOVLW 0x06
07A8  6356      	CPFSEQ gbl_control_mode, 1
07AA  D00C      	BRA	label63
07AC  6B56      	CLRF gbl_control_mode, 1
07AE  055D      	DECF gbl_usb_status, W, 1
07B0  A4D8      	BTFSS STATUS,Z
07B2  0012      	RETURN
07B4  0E02      	MOVLW 0x02
07B6  6F54      	MOVWF gbl_usb_state, 1
07B8  5155      	MOVF gbl_usb_address, W, 1
07BA  010F      	MOVLB 0x0F
07BC  6F5C      	MOVWF gbl_uaddr, 1
07BE  0102      	MOVLB 0x02
07C0  6B5D      	CLRF gbl_usb_status, 1
07C2  0012      	RETURN
07C4            label63
07C4  0E05      	MOVLW 0x05
07C6  6356      	CPFSEQ gbl_control_mode, 1
07C8  D002      	BRA	label64
07CA  0000      	NOP
07CC  0012      	RETURN
07CE            label64
07CE  0E04      	MOVLW 0x04
07D0  6356      	CPFSEQ gbl_control_mode, 1
07D2  0012      	RETURN
07D4  ECF5F002  	CALL usb_handle_00057
07D8  0012      	RETURN
07DA            label65
07DA  0E02      	MOVLW 0x02
07DC  6376      	CPFSEQ usb_handle_0004D_1_pid, 1
07DE  D011      	BRA	label68
07E0  0E03      	MOVLW 0x03
07E2  6356      	CPFSEQ gbl_control_mode, 1
07E4  D003      	BRA	label66
07E6  EC25F000  	CALL usb_send_d_00054
07EA  0012      	RETURN
07EC            label66
07EC  0E04      	MOVLW 0x04
07EE  6356      	CPFSEQ gbl_control_mode, 1
07F0  D003      	BRA	label67
07F2  ECF5F002  	CALL usb_handle_00057
07F6  0012      	RETURN
07F8            label67
07F8  0E06      	MOVLW 0x06
07FA  6356      	CPFSEQ gbl_control_mode, 1
07FC  0012      	RETURN
07FE  6B56      	CLRF gbl_control_mode, 1
0800  0012      	RETURN
0802            label68
0802  0576      	DECF usb_handle_0004D_1_pid, W, 1
0804  A4D8      	BTFSS STATUS,Z
0806  0012      	RETURN
0808  0E05      	MOVLW 0x05
080A  6356      	CPFSEQ gbl_control_mode, 1
080C  D002      	BRA	label69
080E  6B56      	CLRF gbl_control_mode, 1
0810  D011      	BRA	label71
0812            label69
0812  0E02      	MOVLW 0x02
0814  6356      	CPFSEQ gbl_control_mode, 1
0816  D00A      	BRA	label70
0818  0E02      	MOVLW HIGH(gbl_buffer_0_out+D'0')
081A  6F78      	MOVWF usb_handle_00058_arg_data+D'1', 1
081C  0E80      	MOVLW LOW(gbl_buffer_0_out+D'0')
081E  6F77      	MOVWF usb_handle_00058_arg_data, 1
0820  5101      	MOVF gbl_bd0out+D'1', W, 1
0822  6F79      	MOVWF usb_handle_00058_arg_count, 1
0824  6B7A      	CLRF usb_handle_00058_arg_count+D'1', 1
0826  ECDBF002  	CALL usb_handle_00058
082A  D004      	BRA	label71
082C            label70
082C  0E03      	MOVLW 0x03
082E  6356      	CPFSEQ gbl_control_mode, 1
0830  D001      	BRA	label71
0832  6B56      	CLRF gbl_control_mode, 1
0834            label71
0834  EC47F002  	CALL usb_prime__00067
0838  0012      	RETURN
083A            label72
083A  A463      	BTFSS gbl_ustat,2
083C  D01A      	BRA	label73
083E  0101      	MOVLB 0x01
0840  EE01F0A7  	LFSR 0x00, gbl_ep_in_bd_location
0844  50E9      	MOVF FSR0L, W
0846  0102      	MOVLB 0x02
0848  5175      	MOVF usb_handle_0004D_1_end_point, W, 1
084A  6F79      	MOVWF CompTempVar2224, 1
084C  90D8      	BCF STATUS,C
084E  3579      	RLCF CompTempVar2224, W, 1
0850  26E9      	ADDWF FSR0L, F
0852  50EE      	MOVF POSTINC0, W
0854  6F77      	MOVWF usb_handle_0004D_64_bd, 1
0856  50EF      	MOVF INDF0, W
0858  6F78      	MOVWF usb_handle_0004D_64_bd+D'1', 1
085A  5175      	MOVF usb_handle_0004D_1_end_point, W, 1
085C  6F79      	MOVWF usb_ep_dat_00062_arg_end_point, 1
085E  5178      	MOVF usb_handle_0004D_64_bd+D'1', W, 1
0860  6EEA      	MOVWF FSR0H
0862  5177      	MOVF usb_handle_0004D_64_bd, W, 1
0864  6EE9      	MOVWF FSR0L
0866  50EC      	MOVF PREINC0, W
0868  6F7A      	MOVWF usb_ep_dat_00062_arg_byte_count, 1
086A  6B7B      	CLRF usb_ep_dat_00062_arg_byte_count+D'1', 1
086C  ECFDF002  	CALL usb_ep_dat_00062
0870  0012      	RETURN
0872            label73
0872  0101      	MOVLB 0x01
0874  EE01F0AF  	LFSR 0x00, gbl_ep_out_bd_location
0878  50E9      	MOVF FSR0L, W
087A  0102      	MOVLB 0x02
087C  5175      	MOVF usb_handle_0004D_1_end_point, W, 1
087E  6F79      	MOVWF CompTempVar2227, 1
0880  90D8      	BCF STATUS,C
0882  3579      	RLCF CompTempVar2227, W, 1
0884  26E9      	ADDWF FSR0L, F
0886  50EE      	MOVF POSTINC0, W
0888  6F77      	MOVWF usb_handle_0004D_64_bd, 1
088A  50EF      	MOVF INDF0, W
088C  6F78      	MOVWF usb_handle_0004D_64_bd+D'1', 1
088E  5175      	MOVF usb_handle_0004D_1_end_point, W, 1
0890  6F79      	MOVWF usb_ep_dat_00061_arg_end_point, 1
0892  0101      	MOVLB 0x01
0894  EE01F0BF  	LFSR 0x00, gbl_ep_out_buffer_location
0898  50E9      	MOVF FSR0L, W
089A  0102      	MOVLB 0x02
089C  5175      	MOVF usb_handle_0004D_1_end_point, W, 1
089E  6F7E      	MOVWF CompTempVar2234, 1
08A0  90D8      	BCF STATUS,C
08A2  357E      	RLCF CompTempVar2234, W, 1
08A4  26E9      	ADDWF FSR0L, F
08A6  50EE      	MOVF POSTINC0, W
08A8  6F7A      	MOVWF usb_ep_dat_00061_arg_buffer, 1
08AA  50EF      	MOVF INDF0, W
08AC  6F7B      	MOVWF usb_ep_dat_00061_arg_buffer+D'1', 1
08AE  5178      	MOVF usb_handle_0004D_64_bd+D'1', W, 1
08B0  6EEA      	MOVWF FSR0H
08B2  5177      	MOVF usb_handle_0004D_64_bd, W, 1
08B4  6EE9      	MOVWF FSR0L
08B6  50EC      	MOVF PREINC0, W
08B8  6F7C      	MOVWF usb_ep_dat_00061_arg_byte_count, 1
08BA  6B7D      	CLRF usb_ep_dat_00061_arg_byte_count+D'1', 1
08BC  EC00F003  	CALL usb_ep_dat_00061
08C0  0101      	MOVLB 0x01
08C2  EE01F0CF  	LFSR 0x00, gbl_ep_out_buffer_size
08C6  50E9      	MOVF FSR0L, W
08C8  0102      	MOVLB 0x02
08CA  5175      	MOVF usb_handle_0004D_1_end_point, W, 1
08CC  6F79      	MOVWF CompTempVar2237, 1
08CE  90D8      	BCF STATUS,C
08D0  3779      	RLCF CompTempVar2237, F, 1
08D2  5179      	MOVF CompTempVar2237, W, 1
08D4  26E9      	ADDWF FSR0L, F
08D6  50EE      	MOVF POSTINC0, W
08D8  6F7A      	MOVWF CompTempVar2239, 1
08DA  50EF      	MOVF INDF0, W
08DC  6F7B      	MOVWF CompTempVar2239+D'1', 1
08DE  5178      	MOVF usb_handle_0004D_64_bd+D'1', W, 1
08E0  6EEA      	MOVWF FSR0H
08E2  2977      	INCF usb_handle_0004D_64_bd, W, 1
08E4  6EE9      	MOVWF FSR0L
08E6  517A      	MOVF CompTempVar2239, W, 1
08E8  6EEF      	MOVWF INDF0
08EA  06E9      	DECF FSR0L, F
08EC  9CEF      	BCF INDF0,6
08EE  9AEF      	BCF INDF0,5
08F0  98EF      	BCF INDF0,4
08F2  96EF      	BCF INDF0,3
08F4  94EF      	BCF INDF0,2
08F6  92EF      	BCF INDF0,1
08F8  90EF      	BCF INDF0,0
08FA  8EEF      	BSF INDF0,7
08FC  0012      	RETURN
08FE            ; } usb_handle_transaction function end

	ORG 0x000008FE
08FE            usb_SOF_ca_00050
08FE            ; { usb_SOF_callback ; function begin
08FE  ECA5F001  	CALL usb_cdc_ha_00063
0902  0012      	RETURN
0904            ; } usb_SOF_callback function end

	ORG 0x00000904
0904            usb_handle_0004C
0904            ; { usb_handle_isr ; function begin
0904  A4A1      	BTFSS gbl_pir2,2
0906  0012      	RETURN
0908  94A1      	BCF gbl_pir2,2
090A  B862      	BTFSC gbl_uir,4
090C  9862      	BCF gbl_uir,4
090E  A662      	BTFSS gbl_uir,3
0910  D003      	BRA	label74
0912  EC4FF003  	CALL usb_handle_0004D
0916  9662      	BCF gbl_uir,3
0918            label74
0918  A062      	BTFSS gbl_uir,0
091A  D003      	BRA	label75
091C  EC2BF003  	CALL usb_handle_0004E
0920  9062      	BCF gbl_uir,0
0922            label75
0922  AA62      	BTFSS gbl_uir,5
0924  D003      	BRA	label76
0926  EC2AF003  	CALL usb_handle_0004F
092A  9A62      	BCF gbl_uir,5
092C            label76
092C  AC62      	BTFSS gbl_uir,6
092E  0012      	RETURN
0930  010F      	MOVLB 0x0F
0932  515D      	MOVF gbl_ufrml, W, 1
0934  0102      	MOVLB 0x02
0936  6F75      	MOVWF usb_SOF_ca_00050_arg_frame, 1
0938  6B76      	CLRF usb_SOF_ca_00050_arg_frame+D'1', 1
093A  EC7FF004  	CALL usb_SOF_ca_00050
093E  9C62      	BCF gbl_uir,6
0940  0012      	RETURN
0942            ; } usb_handle_isr function end

	ORG 0x00000942
0942            usb_setup_00000
0942            ; { usb_setup ; function begin
0942  0102      	MOVLB 0x02
0944  6B54      	CLRF gbl_usb_state, 1
0946  9661      	BCF gbl_ucfg,3
0948  8461      	BSF gbl_ucfg,2
094A  8861      	BSF gbl_ucfg,4
094C  9261      	BCF gbl_ucfg,1
094E  9061      	BCF gbl_ucfg,0
0950  0E02      	MOVLW HIGH(gbl_bd0in+D'0')
0952  0101      	MOVLB 0x01
0954  6FA8      	MOVWF gbl_ep_in_bd_location+D'1', 1
0956  0E04      	MOVLW LOW(gbl_bd0in+D'0')
0958  6FA7      	MOVWF gbl_ep_in_bd_location, 1
095A  0E02      	MOVLW HIGH(gbl_bd1in+D'0')
095C  6FAA      	MOVWF gbl_ep_in_bd_location+D'3', 1
095E  0E0C      	MOVLW LOW(gbl_bd1in+D'0')
0960  6FA9      	MOVWF gbl_ep_in_bd_location+D'2', 1
0962  0E02      	MOVLW HIGH(gbl_bd2in+D'0')
0964  6FAC      	MOVWF gbl_ep_in_bd_location+D'5', 1
0966  0E14      	MOVLW LOW(gbl_bd2in+D'0')
0968  6FAB      	MOVWF gbl_ep_in_bd_location+D'4', 1
096A  0E02      	MOVLW HIGH(gbl_bd3in+D'0')
096C  6FAE      	MOVWF gbl_ep_in_bd_location+D'7', 1
096E  0E1C      	MOVLW LOW(gbl_bd3in+D'0')
0970  6FAD      	MOVWF gbl_ep_in_bd_location+D'6', 1
0972  0E02      	MOVLW HIGH(gbl_bd0out+D'0')
0974  6FB0      	MOVWF gbl_ep_out_bd_location+D'1', 1
0976  0E00      	MOVLW LOW(gbl_bd0out+D'0')
0978  6FAF      	MOVWF gbl_ep_out_bd_location, 1
097A  0E02      	MOVLW HIGH(gbl_bd1out+D'0')
097C  6FB2      	MOVWF gbl_ep_out_bd_location+D'3', 1
097E  0E08      	MOVLW LOW(gbl_bd1out+D'0')
0980  6FB1      	MOVWF gbl_ep_out_bd_location+D'2', 1
0982  0E02      	MOVLW HIGH(gbl_bd2out+D'0')
0984  6FB4      	MOVWF gbl_ep_out_bd_location+D'5', 1
0986  0E10      	MOVLW LOW(gbl_bd2out+D'0')
0988  6FB3      	MOVWF gbl_ep_out_bd_location+D'4', 1
098A  0E02      	MOVLW HIGH(gbl_bd3out+D'0')
098C  6FB6      	MOVWF gbl_ep_out_bd_location+D'7', 1
098E  0E18      	MOVLW LOW(gbl_bd3out+D'0')
0990  6FB5      	MOVWF gbl_ep_out_bd_location+D'6', 1
0992  010F      	MOVLB 0x0F
0994  8953      	BSF gbl_uep0,4, 1
0996  8553      	BSF gbl_uep0,2, 1
0998  8353      	BSF gbl_uep0,1, 1
099A  9753      	BCF gbl_uep0,3, 1
099C  8A60      	BSF gbl_uie,5
099E  8660      	BSF gbl_uie,3
09A0  8060      	BSF gbl_uie,0
09A2  84A0      	BSF gbl_pie2,2
09A4  8C60      	BSF gbl_uie,6
09A6  0012      	RETURN
09A8            ; } usb_setup function end

	ORG 0x000009A8
09A8            usb_cdc_se_0006F
09A8            ; { usb_cdc_setup ; function begin
09A8  0E01      	MOVLW HIGH(gbl_class_data+D'0')
09AA  0102      	MOVLB 0x02
09AC  6F6A      	MOVWF usb_cdc_se_0006F_1_my_lc+D'1', 1
09AE  0ED7      	MOVLW LOW(gbl_class_data+D'0')
09B0  6F69      	MOVWF usb_cdc_se_0006F_1_my_lc, 1
09B2  516A      	MOVF usb_cdc_se_0006F_1_my_lc+D'1', W, 1
09B4  6EEA      	MOVWF FSR0H
09B6  5169      	MOVF usb_cdc_se_0006F_1_my_lc, W, 1
09B8  6EE9      	MOVWF FSR0L
09BA  0E03      	MOVLW 0x03
09BC  26E9      	ADDWF FSR0L, F
09BE  0E00      	MOVLW 0x00
09C0  6F6B      	MOVWF CompTempVar2300, 1
09C2  6F6C      	MOVWF CompTempVar2300+D'1', 1
09C4  0E09      	MOVLW 0x09
09C6  6F6D      	MOVWF CompTempVar2300+D'2', 1
09C8  0E60      	MOVLW 0x60
09CA  6EEF      	MOVWF INDF0
09CC  06E9      	DECF FSR0L, F
09CE  516D      	MOVF CompTempVar2300+D'2', W, 1
09D0  6EEF      	MOVWF INDF0
09D2  06E9      	DECF FSR0L, F
09D4  516C      	MOVF CompTempVar2300+D'1', W, 1
09D6  6EEF      	MOVWF INDF0
09D8  06E9      	DECF FSR0L, F
09DA  516B      	MOVF CompTempVar2300, W, 1
09DC  6EEF      	MOVWF INDF0
09DE  5169      	MOVF usb_cdc_se_0006F_1_my_lc, W, 1
09E0  6EE9      	MOVWF FSR0L
09E2  0E04      	MOVLW 0x04
09E4  26E9      	ADDWF FSR0L, F
09E6  0E00      	MOVLW 0x00
09E8  6EEF      	MOVWF INDF0
09EA  5169      	MOVF usb_cdc_se_0006F_1_my_lc, W, 1
09EC  6EE9      	MOVWF FSR0L
09EE  0E06      	MOVLW 0x06
09F0  26E9      	ADDWF FSR0L, F
09F2  0E08      	MOVLW 0x08
09F4  6EEF      	MOVWF INDF0
09F6  5169      	MOVF usb_cdc_se_0006F_1_my_lc, W, 1
09F8  6EE9      	MOVWF FSR0L
09FA  0E05      	MOVLW 0x05
09FC  26E9      	ADDWF FSR0L, F
09FE  0E00      	MOVLW 0x00
0A00  6EEF      	MOVWF INDF0
0A02  0012      	RETURN
0A04            ; } usb_cdc_setup function end

	ORG 0x00000A04
0A04            usb_cdc_pu_0006B
0A04            ; { usb_cdc_putc ; function begin
0A04  2960      	INCF gbl_cdc_tx_end, W, 1
0A06  6F73      	MOVWF usb_cdc_pu_0006B_1_cdc_tx_next, 1
0A08  0E40      	MOVLW 0x40
0A0A  6373      	CPFSEQ usb_cdc_pu_0006B_1_cdc_tx_next, 1
0A0C  D001      	BRA	label77
0A0E  6B73      	CLRF usb_cdc_pu_0006B_1_cdc_tx_next, 1
0A10            label77
0A10  BEF2      	BTFSC gbl_intcon,7
0A12  D004      	BRA	label78
0A14  515F      	MOVF gbl_cdc_tx_start, W, 1
0A16  6373      	CPFSEQ usb_cdc_pu_0006B_1_cdc_tx_next, 1
0A18  D001      	BRA	label78
0A1A  0012      	RETURN
0A1C            label78
0A1C  515F      	MOVF gbl_cdc_tx_start, W, 1
0A1E  6373      	CPFSEQ usb_cdc_pu_0006B_1_cdc_tx_next, 1
0A20  D001      	BRA	label79
0A22  D7FC      	BRA	label78
0A24            label79
0A24  9174      	BCF usb_cdc_pu_0006B_1_my_store_gie,0, 1
0A26  BEF2      	BTFSC gbl_intcon,7
0A28  8174      	BSF usb_cdc_pu_0006B_1_my_store_gie,0, 1
0A2A            label80
0A2A  9EF2      	BCF gbl_intcon,7
0A2C  BEF2      	BTFSC gbl_intcon,7
0A2E  D7FD      	BRA	label80
0A30  0100      	MOVLB 0x00
0A32  EE00F060  	LFSR 0x00, gbl_cdc_tx_buffer
0A36  50E9      	MOVF FSR0L, W
0A38  0102      	MOVLB 0x02
0A3A  5160      	MOVF gbl_cdc_tx_end, W, 1
0A3C  26E9      	ADDWF FSR0L, F
0A3E  5172      	MOVF usb_cdc_pu_0006B_arg_c, W, 1
0A40  6EEF      	MOVWF INDF0
0A42  5173      	MOVF usb_cdc_pu_0006B_1_cdc_tx_next, W, 1
0A44  6F60      	MOVWF gbl_cdc_tx_end, 1
0A46  B174      	BTFSC usb_cdc_pu_0006B_1_my_store_gie,0, 1
0A48  8EF2      	BSF gbl_intcon,7
0A4A  A174      	BTFSS usb_cdc_pu_0006B_1_my_store_gie,0, 1
0A4C  9EF2      	BCF gbl_intcon,7
0A4E  0012      	RETURN
0A50            ; } usb_cdc_putc function end

	ORG 0x00000A50
0A50            usb_ep_get_00070
0A50            ; { usb_ep_get_rx_buffer ; function begin
0A50  0E40      	MOVLW 0x40
0A52  656D      	CPFSGT usb_ep_get_00070_arg_length, 1
0A54  D002      	BRA	label81
0A56  0E40      	MOVLW 0x40
0A58  6F6D      	MOVWF usb_ep_get_00070_arg_length, 1
0A5A            label81
0A5A  6B70      	CLRF usb_ep_get_00070_1_count, 1
0A5C            label82
0A5C  516D      	MOVF usb_ep_get_00070_arg_length, W, 1
0A5E  6170      	CPFSLT usb_ep_get_00070_1_count, 1
0A60  D014      	BRA	label83
0A62  0100      	MOVLB 0x00
0A64  EE00F0A0  	LFSR 0x00, gbl_cdc_rx_buffer
0A68  50E9      	MOVF FSR0L, W
0A6A  0102      	MOVLB 0x02
0A6C  5170      	MOVF usb_ep_get_00070_1_count, W, 1
0A6E  6F71      	MOVWF CompTempVar2303, 1
0A70  5171      	MOVF CompTempVar2303, W, 1
0A72  26E9      	ADDWF FSR0L, F
0A74  50EF      	MOVF INDF0, W
0A76  6F72      	MOVWF CompTempVar2304, 1
0A78  516F      	MOVF usb_ep_get_00070_arg_buffer+D'1', W, 1
0A7A  6EEA      	MOVWF FSR0H
0A7C  516E      	MOVF usb_ep_get_00070_arg_buffer, W, 1
0A7E  2570      	ADDWF usb_ep_get_00070_1_count, W, 1
0A80  6EE9      	MOVWF FSR0L
0A82  5172      	MOVF CompTempVar2304, W, 1
0A84  6EEF      	MOVWF INDF0
0A86  2B70      	INCF usb_ep_get_00070_1_count, F, 1
0A88  D7E9      	BRA	label82
0A8A            label83
0A8A  5161      	MOVF gbl_cdc_rx_start, W, 1
0A8C  6F62      	MOVWF gbl_cdc_rx_end, 1
0A8E  0012      	RETURN
0A90            ; } usb_ep_get_rx_buffer function end

	ORG 0x00000A90
0A90            usb_enable_00051
0A90            ; { usb_enable_module ; function begin
0A90  6A62      	CLRF gbl_uir
0A92  8664      	BSF gbl_ucon,3
0A94  0E01      	MOVLW 0x01
0A96  0102      	MOVLB 0x02
0A98  6F54      	MOVWF gbl_usb_state, 1
0A9A  0012      	RETURN
0A9C            ; } usb_enable_module function end

	ORG 0x00000A9C
0A9C            usb_config_00071
0A9C            ; { usb_configure_structures ; function begin
0A9C  0E12      	MOVLW 0x12
0A9E  6E48      	MOVWF gbl_my_device_descriptor
0AA0  0E01      	MOVLW 0x01
0AA2  6E49      	MOVWF gbl_my_device_descriptor+D'1'
0AA4  0E10      	MOVLW 0x10
0AA6  6E4A      	MOVWF gbl_my_device_descriptor+D'2'
0AA8  0E01      	MOVLW 0x01
0AAA  6E4B      	MOVWF gbl_my_device_descriptor+D'3'
0AAC  0E02      	MOVLW 0x02
0AAE  6E4C      	MOVWF gbl_my_device_descriptor+D'4'
0AB0  6A4D      	CLRF gbl_my_device_descriptor+D'5'
0AB2  6A4E      	CLRF gbl_my_device_descriptor+D'6'
0AB4  0E08      	MOVLW 0x08
0AB6  6E4F      	MOVWF gbl_my_device_descriptor+D'7'
0AB8  0EBF      	MOVLW 0xBF
0ABA  6E50      	MOVWF gbl_my_device_descriptor+D'8'
0ABC  0E12      	MOVLW 0x12
0ABE  6E51      	MOVWF gbl_my_device_descriptor+D'9'
0AC0  0E10      	MOVLW 0x10
0AC2  6E52      	MOVWF gbl_my_device_descriptor+D'10'
0AC4  0EF0      	MOVLW 0xF0
0AC6  6E53      	MOVWF gbl_my_device_descriptor+D'11'
0AC8  6A54      	CLRF gbl_my_device_descriptor+D'12'
0ACA  0E01      	MOVLW 0x01
0ACC  6E55      	MOVWF gbl_my_device_descriptor+D'13'
0ACE  6E56      	MOVWF gbl_my_device_descriptor+D'14'
0AD0  0E02      	MOVLW 0x02
0AD2  6E57      	MOVWF gbl_my_device_descriptor+D'15'
0AD4  6A58      	CLRF gbl_my_device_descriptor+D'16'
0AD6  0E01      	MOVLW 0x01
0AD8  6E59      	MOVWF gbl_my_device_descriptor+D'17'
0ADA  0E09      	MOVLW 0x09
0ADC  0100      	MOVLB 0x00
0ADE  6FEA      	MOVWF gbl_my_config, 1
0AE0  0E02      	MOVLW 0x02
0AE2  6FEB      	MOVWF gbl_my_config+D'1', 1
0AE4  0E43      	MOVLW 0x43
0AE6  6FEC      	MOVWF gbl_my_config+D'2', 1
0AE8  6BED      	CLRF gbl_my_config+D'3', 1
0AEA  0E02      	MOVLW 0x02
0AEC  6FEE      	MOVWF gbl_my_config+D'4', 1
0AEE  0E01      	MOVLW 0x01
0AF0  6FEF      	MOVWF gbl_my_config+D'5', 1
0AF2  6BF0      	CLRF gbl_my_config+D'6', 1
0AF4  0E80      	MOVLW 0x80
0AF6  6FF1      	MOVWF gbl_my_config+D'7', 1
0AF8  0E64      	MOVLW 0x64
0AFA  6FF2      	MOVWF gbl_my_config+D'8', 1
0AFC  0E09      	MOVLW 0x09
0AFE  6FF3      	MOVWF gbl_my_comm_interface, 1
0B00  0E04      	MOVLW 0x04
0B02  6FF4      	MOVWF gbl_my_comm_interface+D'1', 1
0B04  6BF5      	CLRF gbl_my_comm_interface+D'2', 1
0B06  6BF6      	CLRF gbl_my_comm_interface+D'3', 1
0B08  0E01      	MOVLW 0x01
0B0A  6FF7      	MOVWF gbl_my_comm_interface+D'4', 1
0B0C  0E02      	MOVLW 0x02
0B0E  6FF8      	MOVWF gbl_my_comm_interface+D'5', 1
0B10  6FF9      	MOVWF gbl_my_comm_interface+D'6', 1
0B12  0E01      	MOVLW 0x01
0B14  6FFA      	MOVWF gbl_my_comm_interface+D'7', 1
0B16  6BFB      	CLRF gbl_my_comm_interface+D'8', 1
0B18  0E05      	MOVLW 0x05
0B1A  6E5A      	MOVWF gbl_my_header
0B1C  0E24      	MOVLW 0x24
0B1E  6E5B      	MOVWF gbl_my_header+D'1'
0B20  6A5C      	CLRF gbl_my_header+D'2'
0B22  0E10      	MOVLW 0x10
0B24  6E5D      	MOVWF gbl_my_header+D'3'
0B26  0E01      	MOVLW 0x01
0B28  6E5E      	MOVWF gbl_my_header+D'4'
0B2A  0E04      	MOVLW 0x04
0B2C  0102      	MOVLB 0x02
0B2E  6F30      	MOVWF gbl_my_ACM, 1
0B30  0E24      	MOVLW 0x24
0B32  6F31      	MOVWF gbl_my_ACM+D'1', 1
0B34  0E02      	MOVLW 0x02
0B36  6F32      	MOVWF gbl_my_ACM+D'2', 1
0B38  6F33      	MOVWF gbl_my_ACM+D'3', 1
0B3A  0E05      	MOVLW 0x05
0B3C  0101      	MOVLB 0x01
0B3E  6FF4      	MOVWF gbl_my_union, 1
0B40  0E24      	MOVLW 0x24
0B42  6FF5      	MOVWF gbl_my_union+D'1', 1
0B44  0E06      	MOVLW 0x06
0B46  6FF6      	MOVWF gbl_my_union+D'2', 1
0B48  6BF7      	CLRF gbl_my_union+D'3', 1
0B4A  0E01      	MOVLW 0x01
0B4C  6FF8      	MOVWF gbl_my_union+D'4', 1
0B4E  0E05      	MOVLW 0x05
0B50  6FF9      	MOVWF gbl_my_call_mgt, 1
0B52  0E24      	MOVLW 0x24
0B54  6FFA      	MOVWF gbl_my_call_mgt+D'1', 1
0B56  0E01      	MOVLW 0x01
0B58  6FFB      	MOVWF gbl_my_call_mgt+D'2', 1
0B5A  6BFC      	CLRF gbl_my_call_mgt+D'3', 1
0B5C  0E01      	MOVLW 0x01
0B5E  6FFD      	MOVWF gbl_my_call_mgt+D'4', 1
0B60  0E07      	MOVLW 0x07
0B62  6FDF      	MOVWF gbl_my_notification_ep, 1
0B64  0E05      	MOVLW 0x05
0B66  6FE0      	MOVWF gbl_my_notification_ep+D'1', 1
0B68  0E82      	MOVLW 0x82
0B6A  6FE1      	MOVWF gbl_my_notification_ep+D'2', 1
0B6C  0E03      	MOVLW 0x03
0B6E  6FE2      	MOVWF gbl_my_notification_ep+D'3', 1
0B70  0E08      	MOVLW 0x08
0B72  6FE3      	MOVWF gbl_my_notification_ep+D'4', 1
0B74  6BE4      	CLRF gbl_my_notification_ep+D'5', 1
0B76  0E02      	MOVLW 0x02
0B78  6FE5      	MOVWF gbl_my_notification_ep+D'6', 1
0B7A  0E09      	MOVLW 0x09
0B7C  6F96      	MOVWF gbl_my_data_interface, 1
0B7E  0E04      	MOVLW 0x04
0B80  6F97      	MOVWF gbl_my_data_interface+D'1', 1
0B82  0E01      	MOVLW 0x01
0B84  6F98      	MOVWF gbl_my_data_interface+D'2', 1
0B86  6B99      	CLRF gbl_my_data_interface+D'3', 1
0B88  0E02      	MOVLW 0x02
0B8A  6F9A      	MOVWF gbl_my_data_interface+D'4', 1
0B8C  0E0A      	MOVLW 0x0A
0B8E  6F9B      	MOVWF gbl_my_data_interface+D'5', 1
0B90  6B9C      	CLRF gbl_my_data_interface+D'6', 1
0B92  6B9D      	CLRF gbl_my_data_interface+D'7', 1
0B94  6B9E      	CLRF gbl_my_data_interface+D'8', 1
0B96  0E07      	MOVLW 0x07
0B98  6FE6      	MOVWF gbl_my_data_out_ep, 1
0B9A  0E05      	MOVLW 0x05
0B9C  6FE7      	MOVWF gbl_my_data_out_ep+D'1', 1
0B9E  0E03      	MOVLW 0x03
0BA0  6FE8      	MOVWF gbl_my_data_out_ep+D'2', 1
0BA2  0E02      	MOVLW 0x02
0BA4  6FE9      	MOVWF gbl_my_data_out_ep+D'3', 1
0BA6  0E08      	MOVLW 0x08
0BA8  6FEA      	MOVWF gbl_my_data_out_ep+D'4', 1
0BAA  6BEB      	CLRF gbl_my_data_out_ep+D'5', 1
0BAC  6BEC      	CLRF gbl_my_data_out_ep+D'6', 1
0BAE  0E07      	MOVLW 0x07
0BB0  6FED      	MOVWF gbl_my_data_in_ep, 1
0BB2  0E05      	MOVLW 0x05
0BB4  6FEE      	MOVWF gbl_my_data_in_ep+D'1', 1
0BB6  0E83      	MOVLW 0x83
0BB8  6FEF      	MOVWF gbl_my_data_in_ep+D'2', 1
0BBA  0E02      	MOVLW 0x02
0BBC  6FF0      	MOVWF gbl_my_data_in_ep+D'3', 1
0BBE  0E08      	MOVLW 0x08
0BC0  6FF1      	MOVWF gbl_my_data_in_ep+D'4', 1
0BC2  6BF2      	CLRF gbl_my_data_in_ep+D'5', 1
0BC4  6BF3      	CLRF gbl_my_data_in_ep+D'6', 1
0BC6  0100      	MOVLB 0x00
0BC8  51F2      	MOVF gbl_my_config+D'8', W, 1
0BCA  6E0D      	MOVWF gbl_complete_serial_config_00000+D'8'
0BCC  51F1      	MOVF gbl_my_config+D'7', W, 1
0BCE  6E0C      	MOVWF gbl_complete_serial_config_00000+D'7'
0BD0  51F0      	MOVF gbl_my_config+D'6', W, 1
0BD2  6E0B      	MOVWF gbl_complete_serial_config_00000+D'6'
0BD4  51EF      	MOVF gbl_my_config+D'5', W, 1
0BD6  6E0A      	MOVWF gbl_complete_serial_config_00000+D'5'
0BD8  51EE      	MOVF gbl_my_config+D'4', W, 1
0BDA  6E09      	MOVWF gbl_complete_serial_config_00000+D'4'
0BDC  51ED      	MOVF gbl_my_config+D'3', W, 1
0BDE  6E08      	MOVWF gbl_complete_serial_config_00000+D'3'
0BE0  51EC      	MOVF gbl_my_config+D'2', W, 1
0BE2  6E07      	MOVWF gbl_complete_serial_config_00000+D'2'
0BE4  51EB      	MOVF gbl_my_config+D'1', W, 1
0BE6  6E06      	MOVWF gbl_complete_serial_config_00000+D'1'
0BE8  51EA      	MOVF gbl_my_config, W, 1
0BEA  6E05      	MOVWF gbl_complete_serial_config_00000
0BEC  51FB      	MOVF gbl_my_comm_interface+D'8', W, 1
0BEE  6E16      	MOVWF gbl_complete_serial_config_00000+D'17'
0BF0  51FA      	MOVF gbl_my_comm_interface+D'7', W, 1
0BF2  6E15      	MOVWF gbl_complete_serial_config_00000+D'16'
0BF4  51F9      	MOVF gbl_my_comm_interface+D'6', W, 1
0BF6  6E14      	MOVWF gbl_complete_serial_config_00000+D'15'
0BF8  51F8      	MOVF gbl_my_comm_interface+D'5', W, 1
0BFA  6E13      	MOVWF gbl_complete_serial_config_00000+D'14'
0BFC  51F7      	MOVF gbl_my_comm_interface+D'4', W, 1
0BFE  6E12      	MOVWF gbl_complete_serial_config_00000+D'13'
0C00  51F6      	MOVF gbl_my_comm_interface+D'3', W, 1
0C02  6E11      	MOVWF gbl_complete_serial_config_00000+D'12'
0C04  51F5      	MOVF gbl_my_comm_interface+D'2', W, 1
0C06  6E10      	MOVWF gbl_complete_serial_config_00000+D'11'
0C08  51F4      	MOVF gbl_my_comm_interface+D'1', W, 1
0C0A  6E0F      	MOVWF gbl_complete_serial_config_00000+D'10'
0C0C  51F3      	MOVF gbl_my_comm_interface, W, 1
0C0E  6E0E      	MOVWF gbl_complete_serial_config_00000+D'9'
0C10  505E      	MOVF gbl_my_header+D'4', W
0C12  6E1B      	MOVWF gbl_complete_serial_config_00000+D'22'
0C14  505D      	MOVF gbl_my_header+D'3', W
0C16  6E1A      	MOVWF gbl_complete_serial_config_00000+D'21'
0C18  505C      	MOVF gbl_my_header+D'2', W
0C1A  6E19      	MOVWF gbl_complete_serial_config_00000+D'20'
0C1C  505B      	MOVF gbl_my_header+D'1', W
0C1E  6E18      	MOVWF gbl_complete_serial_config_00000+D'19'
0C20  505A      	MOVF gbl_my_header, W
0C22  6E17      	MOVWF gbl_complete_serial_config_00000+D'18'
0C24  0102      	MOVLB 0x02
0C26  5133      	MOVF gbl_my_ACM+D'3', W, 1
0C28  6E1F      	MOVWF gbl_complete_serial_config_00000+D'26'
0C2A  5132      	MOVF gbl_my_ACM+D'2', W, 1
0C2C  6E1E      	MOVWF gbl_complete_serial_config_00000+D'25'
0C2E  5131      	MOVF gbl_my_ACM+D'1', W, 1
0C30  6E1D      	MOVWF gbl_complete_serial_config_00000+D'24'
0C32  5130      	MOVF gbl_my_ACM, W, 1
0C34  6E1C      	MOVWF gbl_complete_serial_config_00000+D'23'
0C36  0101      	MOVLB 0x01
0C38  51F8      	MOVF gbl_my_union+D'4', W, 1
0C3A  6E24      	MOVWF gbl_complete_serial_config_00000+D'31'
0C3C  51F7      	MOVF gbl_my_union+D'3', W, 1
0C3E  6E23      	MOVWF gbl_complete_serial_config_00000+D'30'
0C40  51F6      	MOVF gbl_my_union+D'2', W, 1
0C42  6E22      	MOVWF gbl_complete_serial_config_00000+D'29'
0C44  51F5      	MOVF gbl_my_union+D'1', W, 1
0C46  6E21      	MOVWF gbl_complete_serial_config_00000+D'28'
0C48  51F4      	MOVF gbl_my_union, W, 1
0C4A  6E20      	MOVWF gbl_complete_serial_config_00000+D'27'
0C4C  51FD      	MOVF gbl_my_call_mgt+D'4', W, 1
0C4E  6E29      	MOVWF gbl_complete_serial_config_00000+D'36'
0C50  51FC      	MOVF gbl_my_call_mgt+D'3', W, 1
0C52  6E28      	MOVWF gbl_complete_serial_config_00000+D'35'
0C54  51FB      	MOVF gbl_my_call_mgt+D'2', W, 1
0C56  6E27      	MOVWF gbl_complete_serial_config_00000+D'34'
0C58  51FA      	MOVF gbl_my_call_mgt+D'1', W, 1
0C5A  6E26      	MOVWF gbl_complete_serial_config_00000+D'33'
0C5C  51F9      	MOVF gbl_my_call_mgt, W, 1
0C5E  6E25      	MOVWF gbl_complete_serial_config_00000+D'32'
0C60  51E5      	MOVF gbl_my_notification_ep+D'6', W, 1
0C62  6E30      	MOVWF gbl_complete_serial_config_00000+D'43'
0C64  51E4      	MOVF gbl_my_notification_ep+D'5', W, 1
0C66  6E2F      	MOVWF gbl_complete_serial_config_00000+D'42'
0C68  51E3      	MOVF gbl_my_notification_ep+D'4', W, 1
0C6A  6E2E      	MOVWF gbl_complete_serial_config_00000+D'41'
0C6C  51E2      	MOVF gbl_my_notification_ep+D'3', W, 1
0C6E  6E2D      	MOVWF gbl_complete_serial_config_00000+D'40'
0C70  51E1      	MOVF gbl_my_notification_ep+D'2', W, 1
0C72  6E2C      	MOVWF gbl_complete_serial_config_00000+D'39'
0C74  51E0      	MOVF gbl_my_notification_ep+D'1', W, 1
0C76  6E2B      	MOVWF gbl_complete_serial_config_00000+D'38'
0C78  51DF      	MOVF gbl_my_notification_ep, W, 1
0C7A  6E2A      	MOVWF gbl_complete_serial_config_00000+D'37'
0C7C  519E      	MOVF gbl_my_data_interface+D'8', W, 1
0C7E  6E39      	MOVWF gbl_complete_serial_config_00000+D'52'
0C80  519D      	MOVF gbl_my_data_interface+D'7', W, 1
0C82  6E38      	MOVWF gbl_complete_serial_config_00000+D'51'
0C84  519C      	MOVF gbl_my_data_interface+D'6', W, 1
0C86  6E37      	MOVWF gbl_complete_serial_config_00000+D'50'
0C88  519B      	MOVF gbl_my_data_interface+D'5', W, 1
0C8A  6E36      	MOVWF gbl_complete_serial_config_00000+D'49'
0C8C  519A      	MOVF gbl_my_data_interface+D'4', W, 1
0C8E  6E35      	MOVWF gbl_complete_serial_config_00000+D'48'
0C90  5199      	MOVF gbl_my_data_interface+D'3', W, 1
0C92  6E34      	MOVWF gbl_complete_serial_config_00000+D'47'
0C94  5198      	MOVF gbl_my_data_interface+D'2', W, 1
0C96  6E33      	MOVWF gbl_complete_serial_config_00000+D'46'
0C98  5197      	MOVF gbl_my_data_interface+D'1', W, 1
0C9A  6E32      	MOVWF gbl_complete_serial_config_00000+D'45'
0C9C  5196      	MOVF gbl_my_data_interface, W, 1
0C9E  6E31      	MOVWF gbl_complete_serial_config_00000+D'44'
0CA0  51EC      	MOVF gbl_my_data_out_ep+D'6', W, 1
0CA2  6E40      	MOVWF gbl_complete_serial_config_00000+D'59'
0CA4  51EB      	MOVF gbl_my_data_out_ep+D'5', W, 1
0CA6  6E3F      	MOVWF gbl_complete_serial_config_00000+D'58'
0CA8  51EA      	MOVF gbl_my_data_out_ep+D'4', W, 1
0CAA  6E3E      	MOVWF gbl_complete_serial_config_00000+D'57'
0CAC  51E9      	MOVF gbl_my_data_out_ep+D'3', W, 1
0CAE  6E3D      	MOVWF gbl_complete_serial_config_00000+D'56'
0CB0  51E8      	MOVF gbl_my_data_out_ep+D'2', W, 1
0CB2  6E3C      	MOVWF gbl_complete_serial_config_00000+D'55'
0CB4  51E7      	MOVF gbl_my_data_out_ep+D'1', W, 1
0CB6  6E3B      	MOVWF gbl_complete_serial_config_00000+D'54'
0CB8  51E6      	MOVF gbl_my_data_out_ep, W, 1
0CBA  6E3A      	MOVWF gbl_complete_serial_config_00000+D'53'
0CBC  51F3      	MOVF gbl_my_data_in_ep+D'6', W, 1
0CBE  6E47      	MOVWF gbl_complete_serial_config_00000+D'66'
0CC0  51F2      	MOVF gbl_my_data_in_ep+D'5', W, 1
0CC2  6E46      	MOVWF gbl_complete_serial_config_00000+D'65'
0CC4  51F1      	MOVF gbl_my_data_in_ep+D'4', W, 1
0CC6  6E45      	MOVWF gbl_complete_serial_config_00000+D'64'
0CC8  51F0      	MOVF gbl_my_data_in_ep+D'3', W, 1
0CCA  6E44      	MOVWF gbl_complete_serial_config_00000+D'63'
0CCC  51EF      	MOVF gbl_my_data_in_ep+D'2', W, 1
0CCE  6E43      	MOVWF gbl_complete_serial_config_00000+D'62'
0CD0  51EE      	MOVF gbl_my_data_in_ep+D'1', W, 1
0CD2  6E42      	MOVWF gbl_complete_serial_config_00000+D'61'
0CD4  51ED      	MOVF gbl_my_data_in_ep, W, 1
0CD6  6E41      	MOVWF gbl_complete_serial_config_00000+D'60'
0CD8  0012      	RETURN
0CDA            ; } usb_configure_structures function end

	ORG 0x00000CDA
0CDA            usb_cdc_tx_0006D
0CDA            ; { usb_cdc_tx_empty ; function begin
0CDA  0102      	MOVLB 0x02
0CDC  6B6E      	CLRF CompTempVarRet2292, 1
0CDE  5160      	MOVF gbl_cdc_tx_end, W, 1
0CE0  635F      	CPFSEQ gbl_cdc_tx_start, 1
0CE2  0012      	RETURN
0CE4  2B6E      	INCF CompTempVarRet2292, F, 1
0CE6  0012      	RETURN
0CE8            ; } usb_cdc_tx_empty function end

	ORG 0x00000CE8
0CE8            usb_cdc_rx_0006C
0CE8            ; { usb_cdc_rx_avail ; function begin
0CE8  0102      	MOVLB 0x02
0CEA  5161      	MOVF gbl_cdc_rx_start, W, 1
0CEC  5D62      	SUBWF gbl_cdc_rx_end, W, 1
0CEE  6F6C      	MOVWF CompTempVarRet2291, 1
0CF0  0012      	RETURN
0CF2            ; } usb_cdc_rx_avail function end

	ORG 0x00000CF2
0CF2            usb_cdc_pr_0006E
0CF2            ; { usb_cdc_print_str ; function begin
0CF2  6B71      	CLRF usb_cdc_pr_0006E_1_count, 1
0CF4            label84
0CF4  5170      	MOVF usb_cdc_pr_0006E_arg_str+D'1', W, 1
0CF6  6EEA      	MOVWF FSR0H
0CF8  516F      	MOVF usb_cdc_pr_0006E_arg_str, W, 1
0CFA  2571      	ADDWF usb_cdc_pr_0006E_1_count, W, 1
0CFC  6EE9      	MOVWF FSR0L
0CFE  52EF      	MOVF INDF0, F
0D00  B4D8      	BTFSC STATUS,Z
0D02  0012      	RETURN
0D04  5170      	MOVF usb_cdc_pr_0006E_arg_str+D'1', W, 1
0D06  6EEA      	MOVWF FSR0H
0D08  516F      	MOVF usb_cdc_pr_0006E_arg_str, W, 1
0D0A  2571      	ADDWF usb_cdc_pr_0006E_1_count, W, 1
0D0C  6EE9      	MOVWF FSR0L
0D0E  50EF      	MOVF INDF0, W
0D10  6F72      	MOVWF usb_cdc_pu_0006B_arg_c, 1
0D12  EC02F005  	CALL usb_cdc_pu_0006B
0D16  2B71      	INCF usb_cdc_pr_0006E_1_count, F, 1
0D18  D7ED      	BRA	label84
0D1A            ; } usb_cdc_print_str function end

	ORG 0x00000D1A
0D1A            Wdt_Delay__00039
0D1A            ; { Wdt_Delay_Ms ; function begin
0D1A  6B6D      	CLRF Wdt_Delay__00039_1_i, 1
0D1C            label85
0D1C  516C      	MOVF Wdt_Delay__00039_arg_delay, W, 1
0D1E  616D      	CPFSLT Wdt_Delay__00039_1_i, 1
0D20  0012      	RETURN
0D22  0004      	CLRWDT
0D24  0E01      	MOVLW 0x01
0D26  6F6E      	MOVWF delay_ms_00000_arg_del, 1
0D28  EC09F000  	CALL delay_ms_00000
0D2C  2B6D      	INCF Wdt_Delay__00039_1_i, F, 1
0D2E  D7F6      	BRA	label85
0D30            ; } Wdt_Delay_Ms function end

	ORG 0x00000D30
0D30            FC_CAL_Sam_0007A
0D30            ; { FC_CAL_Sample_ADC ; function begin
0D30  0E02      	MOVLW 0x02
0D32  10C2      	IORWF gbl_adcon0, W
0D34  6EC2      	MOVWF gbl_adcon0
0D36            label86
0D36  B2C2      	BTFSC gbl_adcon0,1
0D38  D7FE      	BRA	label86
0D3A  536B      	MOVF FC_CAL_Sam_0007A_arg_Sample_Mode, F, 1
0D3C  E012      	BZ	label87
0D3E  50C4      	MOVF gbl_adresh, W
0D40  6F6C      	MOVWF FC_CAL_Sam_0007A_1_iRetVal, 1
0D42  6B6D      	CLRF FC_CAL_Sam_0007A_1_iRetVal+D'1', 1
0D44  376C      	RLCF FC_CAL_Sam_0007A_1_iRetVal, F, 1
0D46  376D      	RLCF FC_CAL_Sam_0007A_1_iRetVal+D'1', F, 1
0D48  376C      	RLCF FC_CAL_Sam_0007A_1_iRetVal, F, 1
0D4A  376D      	RLCF FC_CAL_Sam_0007A_1_iRetVal+D'1', F, 1
0D4C  0EFC      	MOVLW 0xFC
0D4E  176C      	ANDWF FC_CAL_Sam_0007A_1_iRetVal, F, 1
0D50  30C3      	RRCF gbl_adresl, W
0D52  6F6E      	MOVWF CompTempVar2323, 1
0D54  336E      	RRCF CompTempVar2323, F, 1
0D56  3B6E      	SWAPF CompTempVar2323, F, 1
0D58  0E03      	MOVLW 0x03
0D5A  156E      	ANDWF CompTempVar2323, W, 1
0D5C  136C      	IORWF FC_CAL_Sam_0007A_1_iRetVal, F, 1
0D5E  536D      	MOVF FC_CAL_Sam_0007A_1_iRetVal+D'1', F, 1
0D60  D003      	BRA	label88
0D62            label87
0D62  50C4      	MOVF gbl_adresh, W
0D64  6F6C      	MOVWF FC_CAL_Sam_0007A_1_iRetVal, 1
0D66  6B6D      	CLRF FC_CAL_Sam_0007A_1_iRetVal+D'1', 1
0D68            label88
0D68  516C      	MOVF FC_CAL_Sam_0007A_1_iRetVal, W, 1
0D6A  6F6E      	MOVWF CompTempVarRet2320, 1
0D6C  516D      	MOVF FC_CAL_Sam_0007A_1_iRetVal+D'1', W, 1
0D6E  6F6F      	MOVWF CompTempVarRet2320+D'1', 1
0D70  0012      	RETURN
0D72            ; } FC_CAL_Sample_ADC function end

	ORG 0x00000D72
0D72            FC_CAL_Ena_00079
0D72            ; { FC_CAL_Enable_ADC ; function begin
0D72  6AC1      	CLRF gbl_adcon1
0D74  0E03      	MOVLW 0x03
0D76  636B      	CPFSEQ FC_CAL_Ena_00079_arg_Channel, 1
0D78  D001      	BRA	label89
0D7A  D004      	BRA	label90
0D7C            label89
0D7C  0E04      	MOVLW 0x04
0D7E  636B      	CPFSEQ FC_CAL_Ena_00079_arg_Channel, 1
0D80  D013      	BRA	label92
0D82  D008      	BRA	label91
0D84            label90
0D84  0E10      	MOVLW 0x10
0D86  6F66      	MOVWF gbl_tris_mask, 1
0D88  0E0F      	MOVLW HIGH(gbl_trisa+D'0')
0D8A  6F49      	MOVWF gbl_tris_reg+D'1', 1
0D8C  0E92      	MOVLW LOW(gbl_trisa+D'0')
0D8E  6F48      	MOVWF gbl_tris_reg, 1
0D90  0E08      	MOVLW 0x08
0D92  6E7E      	MOVWF gbl_ansel
0D94            label91
0D94  0E01      	MOVLW 0x01
0D96  6F66      	MOVWF gbl_tris_mask, 1
0D98  0E0F      	MOVLW HIGH(gbl_trisc+D'0')
0D9A  6F6F      	MOVWF CompTempVar2317, 1
0D9C  0E94      	MOVLW LOW(gbl_trisc+D'0')
0D9E  6F48      	MOVWF gbl_tris_reg, 1
0DA0  516F      	MOVF CompTempVar2317, W, 1
0DA2  6F49      	MOVWF gbl_tris_reg+D'1', 1
0DA4  0E10      	MOVLW 0x10
0DA6  6E7E      	MOVWF gbl_ansel
0DA8            label92
0DA8  0E07      	MOVLW 0x07
0DAA  156C      	ANDWF FC_CAL_Ena_00079_arg_Conv_Speed, W, 1
0DAC  6EC0      	MOVWF gbl_adcon2
0DAE  536D      	MOVF FC_CAL_Ena_00079_arg_Vref, F, 1
0DB0  A4D8      	BTFSS STATUS,Z
0DB2  84C1      	BSF gbl_adcon1,2
0DB4  5149      	MOVF gbl_tris_reg+D'1', W, 1
0DB6  6EEA      	MOVWF FSR0H
0DB8  5148      	MOVF gbl_tris_reg, W, 1
0DBA  6EE9      	MOVWF FSR0L
0DBC  50EF      	MOVF INDF0, W
0DBE  6F65      	MOVWF gbl_old_tris, 1
0DC0  5166      	MOVF gbl_tris_mask, W, 1
0DC2  1165      	IORWF gbl_old_tris, W, 1
0DC4  6F6F      	MOVWF CompTempVar2318, 1
0DC6  6EEF      	MOVWF INDF0
0DC8  516B      	MOVF FC_CAL_Ena_00079_arg_Channel, W, 1
0DCA  6F6F      	MOVWF CompTempVar2319, 1
0DCC  376F      	RLCF CompTempVar2319, F, 1
0DCE  376F      	RLCF CompTempVar2319, F, 1
0DD0  0EFC      	MOVLW 0xFC
0DD2  156F      	ANDWF CompTempVar2319, W, 1
0DD4  0901      	IORLW 0x01
0DD6  6EC2      	MOVWF gbl_adcon0
0DD8  516E      	MOVF FC_CAL_Ena_00079_arg_T_Charge, W, 1
0DDA  6F6F      	MOVWF delay_us_00000_arg_del, 1
0DDC  EC06F000  	CALL delay_us_00000
0DE0  0012      	RETURN
0DE2            ; } FC_CAL_Enable_ADC function end

	ORG 0x00000DE2
0DE2            FC_CAL_Dis_0007B
0DE2            ; { FC_CAL_Disable_ADC ; function begin
0DE2  0102      	MOVLB 0x02
0DE4  5149      	MOVF gbl_tris_reg+D'1', W, 1
0DE6  6EEA      	MOVWF FSR0H
0DE8  5148      	MOVF gbl_tris_reg, W, 1
0DEA  6EE9      	MOVWF FSR0L
0DEC  5165      	MOVF gbl_old_tris, W, 1
0DEE  6EEF      	MOVWF INDF0
0DF0  6A7E      	CLRF gbl_ansel
0DF2  6AC2      	CLRF gbl_adcon0
0DF4  6A7F      	CLRF gbl_anselh
0DF6  0012      	RETURN
0DF8            ; } FC_CAL_Disable_ADC function end

	ORG 0x00000DF8
0DF8            FCD_USBSer_00072
0DF8            ; { FCD_USBSerial0_configure_system ; function begin
0DF8            label93
0DF8  9EF2      	BCF gbl_intcon,7
0DFA  BEF2      	BTFSC gbl_intcon,7
0DFC  D7FD      	BRA	label93
0DFE  ECD4F004  	CALL usb_cdc_se_0006F
0E02  ECA1F004  	CALL usb_setup_00000
0E06  8CF2      	BSF gbl_intcon,6
0E08  8EF2      	BSF gbl_intcon,7
0E0A  0012      	RETURN
0E0C            ; } FCD_USBSerial0_configure_system function end

	ORG 0x00000E0C
0E0C            FCD_USBSer_00076
0E0C            ; { FCD_USBSerial0_ReadByte ; function begin
0E0C  6B6A      	CLRF FCD_USBSer_00076_1_waitforever, 1
0E0E  B164      	BTFSC CompGblVar65,0, 1
0E10  D002      	BRA	label94
0E12  6B67      	CLRF FCD_USBSer_00076_1_position, 1
0E14  8164      	BSF CompGblVar65,0, 1
0E16            label94
0E16  B364      	BTFSC CompGblVar66,1, 1
0E18  D002      	BRA	label95
0E1A  6B68      	CLRF FCD_USBSer_00076_1_length, 1
0E1C  8364      	BSF CompGblVar66,1, 1
0E1E            label95
0E1E  696B      	SETF FCD_USBSer_00076_1_retval, 1
0E20  2969      	INCF FCD_USBSer_00076_arg_timeout_ms, W, 1
0E22  E102      	BNZ	label96
0E24  0E01      	MOVLW 0x01
0E26  6F6A      	MOVWF FCD_USBSer_00076_1_waitforever, 1
0E28            label96
0E28  5168      	MOVF FCD_USBSer_00076_1_length, W, 1
0E2A  6367      	CPFSEQ FCD_USBSer_00076_1_position, 1
0E2C  D023      	BRA	label101
0E2E  6B67      	CLRF FCD_USBSer_00076_1_position, 1
0E30  EC74F006  	CALL usb_cdc_rx_0006C
0E34  516C      	MOVF CompTempVarRet2291, W, 1
0E36  6F68      	MOVWF FCD_USBSer_00076_1_length, 1
0E38            label97
0E38  5368      	MOVF FCD_USBSer_00076_1_length, F, 1
0E3A  E10F      	BNZ	label99
0E3C  5369      	MOVF FCD_USBSer_00076_arg_timeout_ms, F, 1
0E3E  E102      	BNZ	label98
0E40  536A      	MOVF FCD_USBSer_00076_1_waitforever, F, 1
0E42  E00B      	BZ	label99
0E44            label98
0E44  0E01      	MOVLW 0x01
0E46  6F6C      	MOVWF Wdt_Delay__00039_arg_delay, 1
0E48  EC8DF006  	CALL Wdt_Delay__00039
0E4C  EC74F006  	CALL usb_cdc_rx_0006C
0E50  516C      	MOVF CompTempVarRet2291, W, 1
0E52  6F68      	MOVWF FCD_USBSer_00076_1_length, 1
0E54  0569      	DECF FCD_USBSer_00076_arg_timeout_ms, W, 1
0E56  6F69      	MOVWF FCD_USBSer_00076_arg_timeout_ms, 1
0E58  D7EF      	BRA	label97
0E5A            label99
0E5A  5368      	MOVF FCD_USBSer_00076_1_length, F, 1
0E5C  E103      	BNZ	label100
0E5E  516B      	MOVF FCD_USBSer_00076_1_retval, W, 1
0E60  6F6C      	MOVWF CompTempVarRet2312, 1
0E62  0012      	RETURN
0E64            label100
0E64  5168      	MOVF FCD_USBSer_00076_1_length, W, 1
0E66  6F6D      	MOVWF usb_ep_get_00070_arg_length, 1
0E68  0E01      	MOVLW HIGH(gbl_CDC_USB_Rx_String+D'0')
0E6A  6F6F      	MOVWF usb_ep_get_00070_arg_buffer+D'1', 1
0E6C  0E00      	MOVLW LOW(gbl_CDC_USB_Rx_String+D'0')
0E6E  6F6E      	MOVWF usb_ep_get_00070_arg_buffer, 1
0E70  EC28F005  	CALL usb_ep_get_00070
0E74            label101
0E74  0101      	MOVLB 0x01
0E76  EE01F000  	LFSR 0x00, gbl_CDC_USB_Rx_String
0E7A  50E9      	MOVF FSR0L, W
0E7C  0102      	MOVLB 0x02
0E7E  5167      	MOVF FCD_USBSer_00076_1_position, W, 1
0E80  26E9      	ADDWF FSR0L, F
0E82  50EF      	MOVF INDF0, W
0E84  6F6B      	MOVWF FCD_USBSer_00076_1_retval, 1
0E86  2967      	INCF FCD_USBSer_00076_1_position, W, 1
0E88  6F67      	MOVWF FCD_USBSer_00076_1_position, 1
0E8A  516B      	MOVF FCD_USBSer_00076_1_retval, W, 1
0E8C  6F6C      	MOVWF CompTempVarRet2312, 1
0E8E  0012      	RETURN
0E90            ; } FCD_USBSerial0_ReadByte function end

	ORG 0x00000E90
0E90            FCD_USBSer_00075
0E90            ; { FCD_USBSerial0_SendString ; function begin
0E90  6B6C      	CLRF FCD_USBSer_00075_1_timeout, 1
0E92  6B6D      	CLRF FCD_USBSer_00075_1_timeout+D'1', 1
0E94            label102
0E94  EC6DF006  	CALL usb_cdc_tx_0006D
0E98  536E      	MOVF CompTempVarRet2292, F, 1
0E9A  E10C      	BNZ	label104
0E9C  0E7D      	MOVLW 0x7D
0E9E  5D6D      	SUBWF FCD_USBSer_00075_1_timeout+D'1', W, 1
0EA0  E102      	BNZ	label103
0EA2  0E00      	MOVLW 0x00
0EA4  5D6C      	SUBWF FCD_USBSer_00075_1_timeout, W, 1
0EA6            label103
0EA6  E206      	BC	label104
0EA8  536C      	MOVF FCD_USBSer_00075_1_timeout, F, 1
0EAA  536D      	MOVF FCD_USBSer_00075_1_timeout+D'1', F, 1
0EAC  2B6C      	INCF FCD_USBSer_00075_1_timeout, F, 1
0EAE  B4D8      	BTFSC STATUS,Z
0EB0  2B6D      	INCF FCD_USBSer_00075_1_timeout+D'1', F, 1
0EB2  D7F0      	BRA	label102
0EB4            label104
0EB4  0E00      	MOVLW 0x00
0EB6  636C      	CPFSEQ FCD_USBSer_00075_1_timeout, 1
0EB8  D006      	BRA	label105
0EBA  0E7D      	MOVLW 0x7D
0EBC  636D      	CPFSEQ FCD_USBSer_00075_1_timeout+D'1', 1
0EBE  D003      	BRA	label105
0EC0  0E01      	MOVLW 0x01
0EC2  6F6E      	MOVWF CompTempVarRet2309, 1
0EC4  0012      	RETURN
0EC6            label105
0EC6  5169      	MOVF FCD_USBSer_00075_arg_String, W, 1
0EC8  6F6F      	MOVWF usb_cdc_pr_0006E_arg_str, 1
0ECA  516A      	MOVF FCD_USBSer_00075_arg_String+D'1', W, 1
0ECC  6F70      	MOVWF usb_cdc_pr_0006E_arg_str+D'1', 1
0ECE  EC79F006  	CALL usb_cdc_pr_0006E
0ED2  6B6E      	CLRF CompTempVarRet2309, 1
0ED4  0012      	RETURN
0ED6            ; } FCD_USBSerial0_SendString function end

	ORG 0x00000ED6
0ED6            FCD_USBSer_00074
0ED6            ; { FCD_USBSerial0_SendByte ; function begin
0ED6  6B6A      	CLRF FCD_USBSer_00074_1_timeout, 1
0ED8  6B6B      	CLRF FCD_USBSer_00074_1_timeout+D'1', 1
0EDA            label106
0EDA  EC6DF006  	CALL usb_cdc_tx_0006D
0EDE  536E      	MOVF CompTempVarRet2292, F, 1
0EE0  E10C      	BNZ	label108
0EE2  0E7D      	MOVLW 0x7D
0EE4  5D6B      	SUBWF FCD_USBSer_00074_1_timeout+D'1', W, 1
0EE6  E102      	BNZ	label107
0EE8  0E00      	MOVLW 0x00
0EEA  5D6A      	SUBWF FCD_USBSer_00074_1_timeout, W, 1
0EEC            label107
0EEC  E206      	BC	label108
0EEE  536A      	MOVF FCD_USBSer_00074_1_timeout, F, 1
0EF0  536B      	MOVF FCD_USBSer_00074_1_timeout+D'1', F, 1
0EF2  2B6A      	INCF FCD_USBSer_00074_1_timeout, F, 1
0EF4  B4D8      	BTFSC STATUS,Z
0EF6  2B6B      	INCF FCD_USBSer_00074_1_timeout+D'1', F, 1
0EF8  D7F0      	BRA	label106
0EFA            label108
0EFA  0E00      	MOVLW 0x00
0EFC  636A      	CPFSEQ FCD_USBSer_00074_1_timeout, 1
0EFE  D006      	BRA	label109
0F00  0E7D      	MOVLW 0x7D
0F02  636B      	CPFSEQ FCD_USBSer_00074_1_timeout+D'1', 1
0F04  D003      	BRA	label109
0F06  0E01      	MOVLW 0x01
0F08  6F6C      	MOVWF CompTempVarRet2306, 1
0F0A  0012      	RETURN
0F0C            label109
0F0C  5169      	MOVF FCD_USBSer_00074_arg_byte, W, 1
0F0E  6F72      	MOVWF usb_cdc_pu_0006B_arg_c, 1
0F10  EC02F005  	CALL usb_cdc_pu_0006B
0F14  6B6C      	CLRF CompTempVarRet2306, 1
0F16  0012      	RETURN
0F18            ; } FCD_USBSerial0_SendByte function end

	ORG 0x00000F18
0F18            FCD_USBSer_00073
0F18            ; { FCD_USBSerial0_Initialise_Serial ; function begin
0F18  EC4EF005  	CALL usb_config_00071
0F1C  ECFCF006  	CALL FCD_USBSer_00072
0F20  EC48F005  	CALL usb_enable_00051
0F24            label110
0F24  5363      	MOVF gbl_CDC_USB_status, F, 1
0F26  E0FE      	BZ	label110
0F28  6B69      	CLRF CompTempVarRet2305, 1
0F2A  0012      	RETURN
0F2C            ; } FCD_USBSerial0_Initialise_Serial function end

	ORG 0x00000F2C
0F2C            FCD_ADC1_R_00089
0F2C            ; { FCD_ADC1_ReadAsByte ; function begin
0F2C  0E04      	MOVLW 0x04
0F2E  0102      	MOVLB 0x02
0F30  6F6B      	MOVWF FC_CAL_Ena_00079_arg_Channel, 1
0F32  0E03      	MOVLW 0x03
0F34  6F6C      	MOVWF FC_CAL_Ena_00079_arg_Conv_Speed, 1
0F36  6B6D      	CLRF FC_CAL_Ena_00079_arg_Vref, 1
0F38  0E28      	MOVLW 0x28
0F3A  6F6E      	MOVWF FC_CAL_Ena_00079_arg_T_Charge, 1
0F3C  ECB9F006  	CALL FC_CAL_Ena_00079
0F40  6B6B      	CLRF FC_CAL_Sam_0007A_arg_Sample_Mode, 1
0F42  EC98F006  	CALL FC_CAL_Sam_0007A
0F46  516E      	MOVF CompTempVarRet2320, W, 1
0F48  6F69      	MOVWF FCD_ADC1_R_00089_1_retVal, 1
0F4A  ECF1F006  	CALL FC_CAL_Dis_0007B
0F4E  5169      	MOVF FCD_ADC1_R_00089_1_retVal, W, 1
0F50  6F6A      	MOVWF CompTempVarRet2354, 1
0F52  0012      	RETURN
0F54            ; } FCD_ADC1_ReadAsByte function end

	ORG 0x00000F54
0F54            FCD_ADC0_R_0007E
0F54            ; { FCD_ADC0_ReadAsInt ; function begin
0F54  0E03      	MOVLW 0x03
0F56  0102      	MOVLB 0x02
0F58  6F6B      	MOVWF FC_CAL_Ena_00079_arg_Channel, 1
0F5A  6F6C      	MOVWF FC_CAL_Ena_00079_arg_Conv_Speed, 1
0F5C  6B6D      	CLRF FC_CAL_Ena_00079_arg_Vref, 1
0F5E  0E28      	MOVLW 0x28
0F60  6F6E      	MOVWF FC_CAL_Ena_00079_arg_T_Charge, 1
0F62  ECB9F006  	CALL FC_CAL_Ena_00079
0F66  0E01      	MOVLW 0x01
0F68  6F6B      	MOVWF FC_CAL_Sam_0007A_arg_Sample_Mode, 1
0F6A  EC98F006  	CALL FC_CAL_Sam_0007A
0F6E  516E      	MOVF CompTempVarRet2320, W, 1
0F70  6F69      	MOVWF FCD_ADC0_R_0007E_1_retVal, 1
0F72  516F      	MOVF CompTempVarRet2320+D'1', W, 1
0F74  6F6A      	MOVWF FCD_ADC0_R_0007E_1_retVal+D'1', 1
0F76  ECF1F006  	CALL FC_CAL_Dis_0007B
0F7A  5169      	MOVF FCD_ADC0_R_0007E_1_retVal, W, 1
0F7C  6F6B      	MOVWF CompTempVarRet2327, 1
0F7E  516A      	MOVF FCD_ADC0_R_0007E_1_retVal+D'1', W, 1
0F80  6F6C      	MOVWF CompTempVarRet2327+D'1', 1
0F82  0012      	RETURN
0F84            ; } FCD_ADC0_ReadAsInt function end

	ORG 0x00000F84
0F84            main
0F84            ; { main ; function begin
0F84  6A7E      	CLRF gbl_ansel
0F86  6A7F      	CLRF gbl_anselh
0F88  EC8CF007  	CALL FCD_USBSer_00073
0F8C            label111
0F8C  0E0A      	MOVLW 0x0A
0F8E  6F69      	MOVWF FCD_USBSer_00076_arg_timeout_ms, 1
0F90  EC06F007  	CALL FCD_USBSer_00076
0F94  516C      	MOVF CompTempVarRet2312, W, 1
0F96  6F53      	MOVWF gbl_FCV_OPERATION, 1
0F98  0E31      	MOVLW 0x31
0F9A  6353      	CPFSEQ gbl_FCV_OPERATION, 1
0F9C  D001      	BRA	label112
0F9E  D004      	BRA	label113
0FA0            label112
0FA0  0E32      	MOVLW 0x32
0FA2  6353      	CPFSEQ gbl_FCV_OPERATION, 1
0FA4  D7F3      	BRA	label111
0FA6  D018      	BRA	label114
0FA8            label113
0FA8  ECAAF007  	CALL FCD_ADC0_R_0007E
0FAC  516B      	MOVF CompTempVarRet2327, W, 1
0FAE  6F38      	MOVWF gbl_FCV_READINPUT, 1
0FB0  516C      	MOVF CompTempVarRet2327+D'1', W, 1
0FB2  6F39      	MOVWF gbl_FCV_READINPUT+D'1', 1
0FB4  0E01      	MOVLW 0x01
0FB6  1338      	IORWF gbl_FCV_READINPUT, F, 1
0FB8  5139      	MOVF gbl_FCV_READINPUT+D'1', W, 1
0FBA  0910      	IORLW 0x10
0FBC  6F39      	MOVWF gbl_FCV_READINPUT+D'1', 1
0FBE  5138      	MOVF gbl_FCV_READINPUT, W, 1
0FC0  6F3A      	MOVWF gbl_FCV_OUTSTRING, 1
0FC2  5139      	MOVF gbl_FCV_READINPUT+D'1', W, 1
0FC4  6F3B      	MOVWF gbl_FCV_OUTSTRING+D'1', 1
0FC6  0E02      	MOVLW HIGH(gbl_FCV_OUTSTRING+D'0')
0FC8  6F6A      	MOVWF FCD_USBSer_00075_arg_String+D'1', 1
0FCA  0E3A      	MOVLW LOW(gbl_FCV_OUTSTRING+D'0')
0FCC  6F69      	MOVWF FCD_USBSer_00075_arg_String, 1
0FCE  0E02      	MOVLW 0x02
0FD0  6F6B      	MOVWF FCD_USBSer_00075_arg_MSZ_String, 1
0FD2  EC48F007  	CALL FCD_USBSer_00075
0FD6  D7DA      	BRA	label111
0FD8            label114
0FD8  EC96F007  	CALL FCD_ADC1_R_00089
0FDC  516A      	MOVF CompTempVarRet2354, W, 1
0FDE  6F52      	MOVWF gbl_FCV_OUTSTR, 1
0FE0  5152      	MOVF gbl_FCV_OUTSTR, W, 1
0FE2  6F69      	MOVWF FCD_USBSer_00074_arg_byte, 1
0FE4  EC6BF007  	CALL FCD_USBSer_00074
0FE8  D7D1      	BRA	label111
0FEA            ; } main function end

	ORG 0x00000FEA
0FEA            _startup
0FEA  0ED5      	MOVLW 0xD5
0FEC  0100      	MOVLB 0x00
0FEE  6FFC      	MOVWF gbl_14_LSR, 1
0FF0  0EC4      	MOVLW 0xC4
0FF2  6FFD      	MOVWF gbl_14_LSR+D'1', 1
0FF4  0EBB      	MOVLW 0xBB
0FF6  6FFE      	MOVWF gbl_14_LSR+D'2', 1
0FF8  0EDC      	MOVLW 0xDC
0FFA  6FFF      	MOVWF gbl_14_LSR+D'3', 1
0FFC  0102      	MOVLB 0x02
0FFE  6B20      	CLRF gbl_15_gbl_aSig, 1
1000  6B21      	CLRF gbl_15_gbl_aSig+D'1', 1
1002  6B22      	CLRF gbl_15_gbl_aSig+D'2', 1
1004  6B23      	CLRF gbl_15_gbl_aSig+D'3', 1
1006  6B24      	CLRF gbl_15_gbl_bSig, 1
1008  6B25      	CLRF gbl_15_gbl_bSig+D'1', 1
100A  6B26      	CLRF gbl_15_gbl_bSig+D'2', 1
100C  6B27      	CLRF gbl_15_gbl_bSig+D'3', 1
100E  6B28      	CLRF gbl_15_gbl_zSig, 1
1010  6B29      	CLRF gbl_15_gbl_zSig+D'1', 1
1012  6B2A      	CLRF gbl_15_gbl_zSig+D'2', 1
1014  6B2B      	CLRF gbl_15_gbl_zSig+D'3', 1
1016  6B4C      	CLRF gbl_15_gbl_aExp, 1
1018  6B4D      	CLRF gbl_15_gbl_bExp, 1
101A  0101      	MOVLB 0x01
101C  6BFE      	CLRF gbl_15_gbl_zExp, 1
101E  6BFF      	CLRF gbl_15_gbl_zExp+D'1', 1
1020  0102      	MOVLB 0x02
1022  6B4E      	CLRF gbl_15_gbl_aSign, 1
1024  6B4F      	CLRF gbl_15_gbl_bSign, 1
1026  6B50      	CLRF gbl_15_gbl_zSign, 1
1028  6B51      	CLRF gbl_15_gbl_zSigZero, 1
102A  6B2C      	CLRF gbl_15_gbl_ret, 1
102C  6B2D      	CLRF gbl_15_gbl_ret+D'1', 1
102E  6B2E      	CLRF gbl_15_gbl_ret+D'2', 1
1030  6B2F      	CLRF gbl_15_gbl_ret+D'3', 1
1032  6B4A      	CLRF gbl_float_rounding_mode, 1
1034  6B4B      	CLRF gbl_float_exception_flags, 1
1036  6A5F      	CLRF gbl_float_detect_tininess
1038  9164      	BCF CompGblVar65,0, 1
103A  9364      	BCF CompGblVar66,1, 1
103C  0E28      	MOVLW 0x28
103E  0101      	MOVLB 0x01
1040  6F6E      	MOVWF gbl_MX_USBNAME, 1
1042  0E03      	MOVLW 0x03
1044  6F6F      	MOVWF gbl_MX_USBNAME+D'1', 1
1046  0E46      	MOVLW 0x46
1048  6F70      	MOVWF gbl_MX_USBNAME+D'2', 1
104A  6B71      	CLRF gbl_MX_USBNAME+D'3', 1
104C  0E6C      	MOVLW 0x6C
104E  6F72      	MOVWF gbl_MX_USBNAME+D'4', 1
1050  6B73      	CLRF gbl_MX_USBNAME+D'5', 1
1052  0E6F      	MOVLW 0x6F
1054  6F74      	MOVWF gbl_MX_USBNAME+D'6', 1
1056  6B75      	CLRF gbl_MX_USBNAME+D'7', 1
1058  0E77      	MOVLW 0x77
105A  6F76      	MOVWF gbl_MX_USBNAME+D'8', 1
105C  6B77      	CLRF gbl_MX_USBNAME+D'9', 1
105E  0E63      	MOVLW 0x63
1060  6F78      	MOVWF gbl_MX_USBNAME+D'10', 1
1062  6B79      	CLRF gbl_MX_USBNAME+D'11', 1
1064  0E6F      	MOVLW 0x6F
1066  6F7A      	MOVWF gbl_MX_USBNAME+D'12', 1
1068  6B7B      	CLRF gbl_MX_USBNAME+D'13', 1
106A  0E64      	MOVLW 0x64
106C  6F7C      	MOVWF gbl_MX_USBNAME+D'14', 1
106E  6B7D      	CLRF gbl_MX_USBNAME+D'15', 1
1070  0E65      	MOVLW 0x65
1072  6F7E      	MOVWF gbl_MX_USBNAME+D'16', 1
1074  6B7F      	CLRF gbl_MX_USBNAME+D'17', 1
1076  0E20      	MOVLW 0x20
1078  6F80      	MOVWF gbl_MX_USBNAME+D'18', 1
107A  6B81      	CLRF gbl_MX_USBNAME+D'19', 1
107C  0E55      	MOVLW 0x55
107E  6F82      	MOVWF gbl_MX_USBNAME+D'20', 1
1080  6B83      	CLRF gbl_MX_USBNAME+D'21', 1
1082  0E53      	MOVLW 0x53
1084  6F84      	MOVWF gbl_MX_USBNAME+D'22', 1
1086  6B85      	CLRF gbl_MX_USBNAME+D'23', 1
1088  0E42      	MOVLW 0x42
108A  6F86      	MOVWF gbl_MX_USBNAME+D'24', 1
108C  6B87      	CLRF gbl_MX_USBNAME+D'25', 1
108E  0E20      	MOVLW 0x20
1090  6F88      	MOVWF gbl_MX_USBNAME+D'26', 1
1092  6B89      	CLRF gbl_MX_USBNAME+D'27', 1
1094  0E53      	MOVLW 0x53
1096  6F8A      	MOVWF gbl_MX_USBNAME+D'28', 1
1098  6B8B      	CLRF gbl_MX_USBNAME+D'29', 1
109A  0E65      	MOVLW 0x65
109C  6F8C      	MOVWF gbl_MX_USBNAME+D'30', 1
109E  6B8D      	CLRF gbl_MX_USBNAME+D'31', 1
10A0  0E72      	MOVLW 0x72
10A2  6F8E      	MOVWF gbl_MX_USBNAME+D'32', 1
10A4  6B8F      	CLRF gbl_MX_USBNAME+D'33', 1
10A6  0E69      	MOVLW 0x69
10A8  6F90      	MOVWF gbl_MX_USBNAME+D'34', 1
10AA  6B91      	CLRF gbl_MX_USBNAME+D'35', 1
10AC  0E61      	MOVLW 0x61
10AE  6F92      	MOVWF gbl_MX_USBNAME+D'36', 1
10B0  6B93      	CLRF gbl_MX_USBNAME+D'37', 1
10B2  0E6C      	MOVLW 0x6C
10B4  6F94      	MOVWF gbl_MX_USBNAME+D'38', 1
10B6  6B95      	CLRF gbl_MX_USBNAME+D'39', 1
10B8  0E2E      	MOVLW 0x2E
10BA  6F40      	MOVWF gbl_MX_USBMFR, 1
10BC  0E03      	MOVLW 0x03
10BE  6F41      	MOVWF gbl_MX_USBMFR+D'1', 1
10C0  0E4D      	MOVLW 0x4D
10C2  6F42      	MOVWF gbl_MX_USBMFR+D'2', 1
10C4  6B43      	CLRF gbl_MX_USBMFR+D'3', 1
10C6  0E61      	MOVLW 0x61
10C8  6F44      	MOVWF gbl_MX_USBMFR+D'4', 1
10CA  6B45      	CLRF gbl_MX_USBMFR+D'5', 1
10CC  0E74      	MOVLW 0x74
10CE  6F46      	MOVWF gbl_MX_USBMFR+D'6', 1
10D0  6B47      	CLRF gbl_MX_USBMFR+D'7', 1
10D2  0E72      	MOVLW 0x72
10D4  6F48      	MOVWF gbl_MX_USBMFR+D'8', 1
10D6  6B49      	CLRF gbl_MX_USBMFR+D'9', 1
10D8  0E69      	MOVLW 0x69
10DA  6F4A      	MOVWF gbl_MX_USBMFR+D'10', 1
10DC  6B4B      	CLRF gbl_MX_USBMFR+D'11', 1
10DE  0E78      	MOVLW 0x78
10E0  6F4C      	MOVWF gbl_MX_USBMFR+D'12', 1
10E2  6B4D      	CLRF gbl_MX_USBMFR+D'13', 1
10E4  0E20      	MOVLW 0x20
10E6  6F4E      	MOVWF gbl_MX_USBMFR+D'14', 1
10E8  6B4F      	CLRF gbl_MX_USBMFR+D'15', 1
10EA  0E4D      	MOVLW 0x4D
10EC  6F50      	MOVWF gbl_MX_USBMFR+D'16', 1
10EE  6B51      	CLRF gbl_MX_USBMFR+D'17', 1
10F0  0E75      	MOVLW 0x75
10F2  6F52      	MOVWF gbl_MX_USBMFR+D'18', 1
10F4  6B53      	CLRF gbl_MX_USBMFR+D'19', 1
10F6  0E6C      	MOVLW 0x6C
10F8  6F54      	MOVWF gbl_MX_USBMFR+D'20', 1
10FA  6B55      	CLRF gbl_MX_USBMFR+D'21', 1
10FC  0E74      	MOVLW 0x74
10FE  6F56      	MOVWF gbl_MX_USBMFR+D'22', 1
1100  6B57      	CLRF gbl_MX_USBMFR+D'23', 1
1102  0E69      	MOVLW 0x69
1104  6F58      	MOVWF gbl_MX_USBMFR+D'24', 1
1106  6B59      	CLRF gbl_MX_USBMFR+D'25', 1
1108  0E6D      	MOVLW 0x6D
110A  6F5A      	MOVWF gbl_MX_USBMFR+D'26', 1
110C  6B5B      	CLRF gbl_MX_USBMFR+D'27', 1
110E  0E65      	MOVLW 0x65
1110  6F5C      	MOVWF gbl_MX_USBMFR+D'28', 1
1112  6B5D      	CLRF gbl_MX_USBMFR+D'29', 1
1114  0E64      	MOVLW 0x64
1116  6F5E      	MOVWF gbl_MX_USBMFR+D'30', 1
1118  6B5F      	CLRF gbl_MX_USBMFR+D'31', 1
111A  0E69      	MOVLW 0x69
111C  6F60      	MOVWF gbl_MX_USBMFR+D'32', 1
111E  6B61      	CLRF gbl_MX_USBMFR+D'33', 1
1120  0E61      	MOVLW 0x61
1122  6F62      	MOVWF gbl_MX_USBMFR+D'34', 1
1124  6B63      	CLRF gbl_MX_USBMFR+D'35', 1
1126  0E20      	MOVLW 0x20
1128  6F64      	MOVWF gbl_MX_USBMFR+D'36', 1
112A  6B65      	CLRF gbl_MX_USBMFR+D'37', 1
112C  0E4C      	MOVLW 0x4C
112E  6F66      	MOVWF gbl_MX_USBMFR+D'38', 1
1130  6B67      	CLRF gbl_MX_USBMFR+D'39', 1
1132  0E74      	MOVLW 0x74
1134  6F68      	MOVWF gbl_MX_USBMFR+D'40', 1
1136  6B69      	CLRF gbl_MX_USBMFR+D'41', 1
1138  0E64      	MOVLW 0x64
113A  6F6A      	MOVWF gbl_MX_USBMFR+D'42', 1
113C  6B6B      	CLRF gbl_MX_USBMFR+D'43', 1
113E  0E2E      	MOVLW 0x2E
1140  6F6C      	MOVWF gbl_MX_USBMFR+D'44', 1
1142  6B6D      	CLRF gbl_MX_USBMFR+D'45', 1
1144  0E0A      	MOVLW 0x0A
1146  0100      	MOVLB 0x00
1148  6FE0      	MOVWF gbl_MX_SERIAL, 1
114A  0E03      	MOVLW 0x03
114C  6FE1      	MOVWF gbl_MX_SERIAL+D'1', 1
114E  0E30      	MOVLW 0x30
1150  6FE2      	MOVWF gbl_MX_SERIAL+D'2', 1
1152  6BE3      	CLRF gbl_MX_SERIAL+D'3', 1
1154  0E30      	MOVLW 0x30
1156  6FE4      	MOVWF gbl_MX_SERIAL+D'4', 1
1158  6BE5      	CLRF gbl_MX_SERIAL+D'5', 1
115A  0E30      	MOVLW 0x30
115C  6FE6      	MOVWF gbl_MX_SERIAL+D'6', 1
115E  6BE7      	CLRF gbl_MX_SERIAL+D'7', 1
1160  0E31      	MOVLW 0x31
1162  6FE8      	MOVWF gbl_MX_SERIAL+D'8', 1
1164  6BE9      	CLRF gbl_MX_SERIAL+D'9', 1
1166  0E02      	MOVLW HIGH(gbl_buffer_0_in+D'0')
1168  0102      	MOVLB 0x02
116A  6F57      	MOVWF CompGblVar60, 1
116C  0E88      	MOVLW LOW(gbl_buffer_0_in+D'0')
116E  0101      	MOVLB 0x01
1170  6FB7      	MOVWF gbl_ep_in_buffer_location, 1
1172  0102      	MOVLB 0x02
1174  5157      	MOVF CompGblVar60, W, 1
1176  0101      	MOVLB 0x01
1178  6FB8      	MOVWF gbl_ep_in_buffer_location+D'1', 1
117A  6BB9      	CLRF gbl_ep_in_buffer_location+D'2', 1
117C  6BBA      	CLRF gbl_ep_in_buffer_location+D'3', 1
117E  0E02      	MOVLW HIGH(gbl_buffer_2_in+D'0')
1180  0102      	MOVLB 0x02
1182  6F58      	MOVWF CompGblVar61, 1
1184  0E90      	MOVLW LOW(gbl_buffer_2_in+D'0')
1186  0101      	MOVLB 0x01
1188  6FBB      	MOVWF gbl_ep_in_buffer_location+D'4', 1
118A  0102      	MOVLB 0x02
118C  5158      	MOVF CompGblVar61, W, 1
118E  0101      	MOVLB 0x01
1190  6FBC      	MOVWF gbl_ep_in_buffer_location+D'5', 1
1192  0E02      	MOVLW HIGH(gbl_buffer_3_in+D'0')
1194  0102      	MOVLB 0x02
1196  6F59      	MOVWF CompGblVar62, 1
1198  0EA0      	MOVLW LOW(gbl_buffer_3_in+D'0')
119A  0101      	MOVLB 0x01
119C  6FBD      	MOVWF gbl_ep_in_buffer_location+D'6', 1
119E  0102      	MOVLB 0x02
11A0  5159      	MOVF CompGblVar62, W, 1
11A2  0101      	MOVLB 0x01
11A4  6FBE      	MOVWF gbl_ep_in_buffer_location+D'7', 1
11A6  0E02      	MOVLW HIGH(gbl_buffer_0_out+D'0')
11A8  0102      	MOVLB 0x02
11AA  6F5A      	MOVWF CompGblVar63, 1
11AC  0E80      	MOVLW LOW(gbl_buffer_0_out+D'0')
11AE  0101      	MOVLB 0x01
11B0  6FBF      	MOVWF gbl_ep_out_buffer_location, 1
11B2  0102      	MOVLB 0x02
11B4  515A      	MOVF CompGblVar63, W, 1
11B6  0101      	MOVLB 0x01
11B8  6FC0      	MOVWF gbl_ep_out_buffer_location+D'1', 1
11BA  6BC1      	CLRF gbl_ep_out_buffer_location+D'2', 1
11BC  6BC2      	CLRF gbl_ep_out_buffer_location+D'3', 1
11BE  6BC3      	CLRF gbl_ep_out_buffer_location+D'4', 1
11C0  6BC4      	CLRF gbl_ep_out_buffer_location+D'5', 1
11C2  0E02      	MOVLW HIGH(gbl_buffer_3_out+D'0')
11C4  0102      	MOVLB 0x02
11C6  6F5B      	MOVWF CompGblVar64, 1
11C8  0E98      	MOVLW LOW(gbl_buffer_3_out+D'0')
11CA  0101      	MOVLB 0x01
11CC  6FC5      	MOVWF gbl_ep_out_buffer_location+D'6', 1
11CE  0102      	MOVLB 0x02
11D0  515B      	MOVF CompGblVar64, W, 1
11D2  0101      	MOVLB 0x01
11D4  6FC6      	MOVWF gbl_ep_out_buffer_location+D'7', 1
11D6  0E08      	MOVLW 0x08
11D8  6FC7      	MOVWF gbl_ep_in_buffer_size, 1
11DA  6BC8      	CLRF gbl_ep_in_buffer_size+D'1', 1
11DC  6BC9      	CLRF gbl_ep_in_buffer_size+D'2', 1
11DE  6BCA      	CLRF gbl_ep_in_buffer_size+D'3', 1
11E0  0E08      	MOVLW 0x08
11E2  6FCB      	MOVWF gbl_ep_in_buffer_size+D'4', 1
11E4  6BCC      	CLRF gbl_ep_in_buffer_size+D'5', 1
11E6  0E08      	MOVLW 0x08
11E8  6FCD      	MOVWF gbl_ep_in_buffer_size+D'6', 1
11EA  6BCE      	CLRF gbl_ep_in_buffer_size+D'7', 1
11EC  0E08      	MOVLW 0x08
11EE  6FCF      	MOVWF gbl_ep_out_buffer_size, 1
11F0  6BD0      	CLRF gbl_ep_out_buffer_size+D'1', 1
11F2  6BD1      	CLRF gbl_ep_out_buffer_size+D'2', 1
11F4  6BD2      	CLRF gbl_ep_out_buffer_size+D'3', 1
11F6  6BD3      	CLRF gbl_ep_out_buffer_size+D'4', 1
11F8  6BD4      	CLRF gbl_ep_out_buffer_size+D'5', 1
11FA  0E08      	MOVLW 0x08
11FC  6FD5      	MOVWF gbl_ep_out_buffer_size+D'6', 1
11FE  6BD6      	CLRF gbl_ep_out_buffer_size+D'7', 1
1200  0102      	MOVLB 0x02
1202  6B54      	CLRF gbl_usb_state, 1
1204  6B5F      	CLRF gbl_cdc_tx_start, 1
1206  6B60      	CLRF gbl_cdc_tx_end, 1
1208  6B61      	CLRF gbl_cdc_rx_start, 1
120A  6B62      	CLRF gbl_cdc_rx_end, 1
120C  0E04      	MOVLW 0x04
120E  6F34      	MOVWF gbl_string_00, 1
1210  0E03      	MOVLW 0x03
1212  6F35      	MOVWF gbl_string_00+D'1', 1
1214  0E09      	MOVLW 0x09
1216  6F36      	MOVWF gbl_string_00+D'2', 1
1218  0E04      	MOVLW 0x04
121A  6F37      	MOVWF gbl_string_00+D'3', 1
121C  6B63      	CLRF gbl_CDC_USB_status, 1
121E  EFC2F007  	GOTO	main
	ORG 0x00001222
1222            interrupt
1222            ; { interrupt ; function begin
1222  CFEAF001  	MOVFF FSR0H,  Int1Context
1226  CFE9F002  	MOVFF FSR0L,  Int1Context+D'1'
122A  CFF4F003  	MOVFF PRODH,  Int1Context+D'2'
122E  CFF3F004  	MOVFF PRODL,  Int1Context+D'3'
1232  EC82F004  	CALL usb_handle_0004C
1236  C004FFF3  	MOVFF Int1Context+D'3',  PRODL
123A  C003FFF4  	MOVFF Int1Context+D'2',  PRODH
123E  C002FFE9  	MOVFF Int1Context+D'1',  FSR0L
1242  C001FFEA  	MOVFF Int1Context,  FSR0H
1246  0011      	RETFIE 1
1248            ; } interrupt function end

	ORG 0x00300000
300000  3238      	DW 0x3238
300002  1E1F      	DW 0x1E1F
300004  08FF      	DW 0x08FF
300006  FF88      	DW 0xFF88
300008  C003      	DW 0xC003
30000A  E003      	DW 0xE003
30000C  4003      	DW 0x4003
