

Microchip Technology PIC18 LITE Macro Assembler V1.42 build -159332390 
                                                                                               Tue Jun 13 21:41:10 2017

Microchip Technology Omniscient Code Generator v1.42 (Free mode) build 201704130522
     1                           	processor	18F14K50
     2                           	fnconf	rparam,??,?,0
     3                           	opt	pw 120
     4                           	opt	lm
     5                           	psect	idataBANK0,global,class=CODE,delta=1,noexec
     6                           	psect	smallconst,global,reloc=2,class=SMALLCONST,delta=1,noexec
     7                           	psect	cinit,global,reloc=2,class=CODE,delta=1
     8                           	psect	bssCOMRAM,global,class=COMRAM,space=1,delta=1,noexec
     9                           	psect	bssBANK0,global,class=BANK0,space=1,delta=1,lowdata,noexec
    10                           	psect	dataBANK0,global,class=BANK0,space=1,delta=1,lowdata,noexec
    11                           	psect	bssBANK1,global,class=BANK1,space=1,delta=1,lowdata,noexec
    12                           	psect	cstackBANK0,global,class=BANK0,space=1,delta=1,noexec
    13                           	psect	cstackCOMRAM,global,class=COMRAM,space=1,delta=1,noexec
    14                           	psect	text0,global,reloc=2,class=CODE,delta=1
    15                           	psect	text1,global,reloc=2,class=CODE,delta=1
    16                           	psect	text2,global,reloc=2,class=CODE,delta=1,group=1
    17                           	psect	text3,global,reloc=2,class=CODE,delta=1
    18                           	psect	text4,global,reloc=2,class=CODE,delta=1
    19                           	psect	text5,global,reloc=2,class=CODE,delta=1
    20                           	psect	text6,global,reloc=2,class=CODE,delta=1
    21                           	psect	text7,global,reloc=2,class=CODE,delta=1
    22                           	psect	text8,global,reloc=2,class=CODE,delta=1
    23                           	psect	text9,global,reloc=2,class=CODE,delta=1
    24                           	psect	text10,global,reloc=2,class=CODE,delta=1
    25                           	psect	text11,global,reloc=2,class=CODE,delta=1
    26                           	psect	text12,global,reloc=2,class=CODE,delta=1
    27                           	psect	text13,global,reloc=2,class=CODE,delta=1
    28                           	psect	text14,global,reloc=2,class=CODE,delta=1
    29                           	psect	text15,global,reloc=2,class=CODE,delta=1
    30                           	psect	text16,global,reloc=2,class=CODE,delta=1
    31                           	psect	text17,global,reloc=2,class=CODE,delta=1
    32                           	psect	text18,global,reloc=2,class=CODE,delta=1
    33                           	psect	text19,global,reloc=2,class=CODE,delta=1
    34                           	psect	text20,global,reloc=2,class=CODE,delta=1
    35                           	psect	text21,global,reloc=2,class=CODE,delta=1
    36                           	psect	text22,global,reloc=2,class=CODE,delta=1
    37                           	psect	text23,global,reloc=2,class=CODE,delta=1
    38                           	psect	text24,global,reloc=2,class=CODE,delta=1
    39                           	psect	intcode,global,reloc=2,class=CODE,delta=1
    40                           	psect	text26,global,reloc=2,class=CODE,delta=1
    41                           	psect	text27,global,reloc=2,class=CODE,delta=1
    42                           	psect	text28,global,reloc=2,class=CODE,delta=1
    43                           	psect	text29,global,reloc=2,class=CODE,delta=1
    44                           	psect	text30,global,reloc=2,class=CODE,delta=1
    45                           	psect	text31,global,reloc=2,class=CODE,delta=1
    46                           	psect	text32,global,reloc=2,class=CODE,delta=1
    47                           	psect	text33,global,reloc=2,class=CODE,delta=1,group=1
    48                           	psect	text34,global,reloc=2,class=CODE,delta=1
    49                           	psect	text35,global,reloc=2,class=CODE,delta=1
    50                           	psect	text36,global,reloc=2,class=CODE,delta=1
    51                           	psect	text37,global,reloc=2,class=CODE,delta=1
    52                           	psect	text38,global,reloc=2,class=CODE,delta=1
    53                           	psect	text39,global,reloc=2,class=CODE,delta=1
    54                           	psect	text40,global,reloc=2,class=CODE,delta=1
    55                           	psect	text41,global,reloc=2,class=CODE,delta=1
    56                           	psect	text42,global,reloc=2,class=CODE,delta=1
    57                           	psect	text43,global,reloc=2,class=CODE,delta=1
    58                           	psect	text44,global,reloc=2,class=CODE,delta=1
    59                           	psect	text45,global,reloc=2,class=CODE,delta=1
    60                           	psect	text46,global,reloc=2,class=CODE,delta=1
    61                           	psect	text47,global,reloc=2,class=CODE,delta=1
    62                           	psect	text48,global,reloc=2,class=CODE,delta=1
    63                           	psect	text49,global,reloc=2,class=CODE,delta=1
    64                           	psect	text50,global,reloc=2,class=CODE,delta=1
    65                           	psect	text51,global,reloc=2,class=CODE,delta=1
    66                           	psect	text52,global,reloc=2,class=CODE,delta=1
    67                           	psect	text53,global,reloc=2,class=CODE,delta=1
    68                           	psect	text54,global,reloc=2,class=CODE,delta=1
    69                           	psect	text55,global,reloc=2,class=CODE,delta=1
    70                           	psect	text56,global,reloc=2,class=CODE,delta=1
    71                           	psect	text57,global,reloc=2,class=CODE,delta=1
    72                           	psect	text58,global,reloc=2,class=CODE,delta=1
    73                           	psect	text59,global,reloc=2,class=CODE,delta=1
    74                           	psect	text60,global,reloc=2,class=CODE,delta=1
    75                           	psect	intsave_regs,global,class=BIGRAM,space=1,delta=1,noexec
    76                           	psect	rparam,global,class=COMRAM,space=1,delta=1,noexec
    77                           	psect	temp,global,ovrld,common,class=COMRAM,space=1,delta=1
    78                           	dabs	1,0x200,48,_BDT
    79                           	dabs	1,0x280,64,_cdc_data_rx
    80                           	dabs	1,0x240,64,_cdc_data_tx
    81                           	dabs	1,0x238,8,_CtrlTrfData
    82                           	dabs	1,0x230,8,_SetupPkt
    83  0000                     
    84                           ; Version 1.42
    85                           ; Generated 13/04/2017 GMT
    86                           ; 
    87                           ; Copyright © 2017, Microchip Technology Inc. and its subsidiaries ("Microchip")
    88                           ; All rights reserved.
    89                           ; 
    90                           ; This software is developed by Microchip Technology Inc. and its subsidiaries ("Microch
      +                          ip").
    91                           ; 
    92                           ; Redistribution and use in source and binary forms, with or without modification, are
    93                           ; permitted provided that the following conditions are met:
    94                           ; 
    95                           ;     1. Redistributions of source code must retain the above copyright notice, this lis
      +                          t of
    96                           ;        conditions and the following disclaimer.
    97                           ; 
    98                           ;     2. Redistributions in binary form must reproduce the above copyright notice, this 
      +                          list
    99                           ;        of conditions and the following disclaimer in the documentation and/or other
   100                           ;        materials provided with the distribution.
   101                           ; 
   102                           ;     3. Microchip's name may not be used to endorse or promote products derived from th
      +                          is
   103                           ;        software without specific prior written permission.
   104                           ; 
   105                           ; THIS SOFTWARE IS PROVIDED BY MICROCHIP "AS IS" AND ANY EXPRESS OR IMPLIED WARRANTIES,
   106                           ; INCLUDING, BUT NOT LIMITED TO, THE IMPLIED WARRANTIES OF MERCHANTABILITY AND FITNESS F
      +                          OR
   107                           ; PURPOSE ARE DISCLAIMED.  IN NO EVENT SHALL MICROCHIP BE LIABLE FOR ANY DIRECT, INDIREC
      +                          T,
   108                           ; INCIDENTAL, SPECIAL, EXEMPLARY, OR CONSEQUENTIAL DAMAGES (INCLUDING BUT NOT LIMITED TO
   109                           ; PROCUREMENT OF SUBSTITUTE GOODS OR SERVICES; LOSS OF USE, DATA OR PROFITS; OR BUSINESS
   110                           ; INTERRUPTION) HOWSOEVER CAUSED AND ON ANY THEORY OF LIABILITY, WHETHER IN CONTRACT, ST
      +                          RICT
   111                           ; LIABILITY, OR TORT (INCLUDING NEGLIGENCE OR OTHERWISE) ARISING IN ANY WAY OUT OF THE U
      +                          SE OF
   112                           ; THIS SOFTWARE, EVEN IF ADVISED OF THE POSSIBILITY OF SUCH DAMAGE.
   113                           ; 
   114                           ; 
   115                           ; Code-generator required, PIC18F14K50 Definitions
   116                           ; 
   117                           ; SFR Addresses
   118  0000                     
   119                           	psect	idataBANK0
   120  002856                     __pidataBANK0:
   121                           	opt stack 0
   122                           
   123                           ;initializer for _buttonMessage
   124  002856  42                 	db	66
   125  002857  75                 	db	117
   126  002858  74                 	db	116
   127  002859  74                 	db	116
   128  00285A  6F                 	db	111
   129  00285B  6E                 	db	110
   130  00285C  20                 	db	32
   131  00285D  70                 	db	112
   132  00285E  72                 	db	114
   133  00285F  65                 	db	101
   134  002860  73                 	db	115
   135  002861  73                 	db	115
   136  002862  65                 	db	101
   137  002863  64                 	db	100
   138  002864  2E                 	db	46
   139  002865  0D                 	db	13
   140  002866  0A                 	db	10
   141  002867  00                 	db	0
   142                           
   143                           	psect	smallconst
   144  000300                     __psmallconst:
   145                           	opt stack 0
   146  000300  00                 	db	0
   147  000301                     _USB_SD_Ptr:
   148                           	opt stack 0
   149  000301  C6                 	db	low _sd000
   150  000302  03                 	db	high _sd000
   151  000303  80                 	db	low _sd001
   152  000304  03                 	db	high _sd001
   153  000305  4C                 	db	low _sd002
   154  000306  03                 	db	high _sd002
   155  000307                     __end_of_USB_SD_Ptr:
   156                           	opt stack 0
   157  000307                     _USB_CD_Ptr:
   158                           	opt stack 0
   159  000307  09                 	db	low _configDescriptor1
   160  000308  03                 	db	high _configDescriptor1
   161  000309                     __end_of_USB_CD_Ptr:
   162                           	opt stack 0
   163  000309                     _configDescriptor1:
   164                           	opt stack 0
   165  000309  09                 	db	9
   166  00030A  02                 	db	2
   167  00030B  43                 	db	67
   168  00030C  00                 	db	0
   169  00030D  02                 	db	2
   170  00030E  01                 	db	1
   171  00030F  00                 	db	0
   172  000310  C0                 	db	192
   173  000311  32                 	db	50
   174  000312  09                 	db	9
   175  000313  04                 	db	4
   176  000314  00                 	db	0
   177  000315  00                 	db	0
   178  000316  01                 	db	1
   179  000317  02                 	db	2
   180  000318  02                 	db	2
   181  000319  01                 	db	1
   182  00031A  00                 	db	0
   183  00031B  05                 	db	5
   184  00031C  24                 	db	36
   185  00031D  00                 	db	0
   186  00031E  10                 	db	16
   187  00031F  01                 	db	1
   188  000320  04                 	db	4
   189  000321  24                 	db	36
   190  000322  02                 	db	2
   191  000323  02                 	db	2
   192  000324  05                 	db	5
   193  000325  24                 	db	36
   194  000326  06                 	db	6
   195  000327  00                 	db	0
   196  000328  01                 	db	1
   197  000329  05                 	db	5
   198  00032A  24                 	db	36
   199  00032B  01                 	db	1
   200  00032C  00                 	db	0
   201  00032D  01                 	db	1
   202  00032E  07                 	db	7
   203  00032F  05                 	db	5
   204  000330  81                 	db	129
   205  000331  03                 	db	3
   206  000332  08                 	db	8
   207  000333  00                 	db	0
   208  000334  02                 	db	2
   209  000335  09                 	db	9
   210  000336  04                 	db	4
   211  000337  01                 	db	1
   212  000338  00                 	db	0
   213  000339  02                 	db	2
   214  00033A  0A                 	db	10
   215  00033B  00                 	db	0
   216  00033C  00                 	db	0
   217  00033D  00                 	db	0
   218  00033E  07                 	db	7
   219  00033F  05                 	db	5
   220  000340  02                 	db	2
   221  000341  02                 	db	2
   222  000342  40                 	db	64
   223  000343  00                 	db	0
   224  000344  00                 	db	0
   225  000345  07                 	db	7
   226  000346  05                 	db	5
   227  000347  82                 	db	130
   228  000348  02                 	db	2
   229  000349  40                 	db	64
   230  00034A  00                 	db	0
   231  00034B  00                 	db	0
   232  00034C                     __end_of_configDescriptor1:
   233                           	opt stack 0
   234  00034C                     _sd002:
   235                           	opt stack 0
   236  00034C  34                 	db	52
   237  00034D  03                 	db	3
   238  00034E  0043               	dw	67
   239  000350  0044               	dw	68
   240  000352  0043               	dw	67
   241  000354  0020               	dw	32
   242  000356  0052               	dw	82
   243  000358  0053               	dw	83
   244  00035A  002D               	dw	45
   245  00035C  0032               	dw	50
   246  00035E  0033               	dw	51
   247  000360  0032               	dw	50
   248  000362  0020               	dw	32
   249  000364  0045               	dw	69
   250  000366  006D               	dw	109
   251  000368  0075               	dw	117
   252  00036A  006C               	dw	108
   253  00036C  0061               	dw	97
   254  00036E  0074               	dw	116
   255  000370  0069               	dw	105
   256  000372  006F               	dw	111
   257  000374  006E               	dw	110
   258  000376  0020               	dw	32
   259  000378  0044               	dw	68
   260  00037A  0065               	dw	101
   261  00037C  006D               	dw	109
   262  00037E  006F               	dw	111
   263  000380                     __end_of_sd002:
   264                           	opt stack 0
   265  000380                     _sd001:
   266                           	opt stack 0
   267  000380  34                 	db	52
   268  000381  03                 	db	3
   269  000382  004D               	dw	77
   270  000384  0069               	dw	105
   271  000386  0063               	dw	99
   272  000388  0072               	dw	114
   273  00038A  006F               	dw	111
   274  00038C  0063               	dw	99
   275  00038E  0068               	dw	104
   276  000390  0069               	dw	105
   277  000392  0070               	dw	112
   278  000394  0020               	dw	32
   279  000396  0054               	dw	84
   280  000398  0065               	dw	101
   281  00039A  0063               	dw	99
   282  00039C  0068               	dw	104
   283  00039E  006E               	dw	110
   284  0003A0  006F               	dw	111
   285  0003A2  006C               	dw	108
   286  0003A4  006F               	dw	111
   287  0003A6  0067               	dw	103
   288  0003A8  0079               	dw	121
   289  0003AA  0020               	dw	32
   290  0003AC  0049               	dw	73
   291  0003AE  006E               	dw	110
   292  0003B0  0063               	dw	99
   293  0003B2  002E               	dw	46
   294  0003B4                     __end_of_sd001:
   295                           	opt stack 0
   296  0003B4                     _device_dsc:
   297                           	opt stack 0
   298  0003B4  12                 	db	18
   299  0003B5  01                 	db	1
   300  0003B6  0200               	dw	512
   301  0003B8  02                 	db	2
   302  0003B9  00                 	db	0
   303  0003BA  00                 	db	0
   304  0003BB  08                 	db	8
   305  0003BC  04D8               	dw	1240
   306  0003BE  000A               	dw	10
   307  0003C0  0100               	dw	256
   308  0003C2  01                 	db	1
   309  0003C3  02                 	db	2
   310  0003C4  00                 	db	0
   311  0003C5  01                 	db	1
   312  0003C6                     __end_of_device_dsc:
   313                           	opt stack 0
   314  0003C6                     _sd000:
   315                           	opt stack 0
   316  0003C6  04                 	db	4
   317  0003C7  03                 	db	3
   318  0003C8  0409               	dw	1033
   319  0003CA                     __end_of_sd000:
   320                           	opt stack 0
   321  0000                     _UEP0bits	set	3923
   322  0000                     _UADDR	set	3932
   323  0000                     _UEIE	set	3931
   324  0000                     _UEIR	set	3935
   325  0000                     _UEP1	set	3924
   326  0000                     _UEP0	set	3923
   327  0000                     _ANSELH	set	3967
   328  0000                     _ANSEL	set	3966
   329  0000                     _INTCONbits	set	4082
   330  0000                     _IPR2bits	set	4002
   331  0000                     _RCONbits	set	4048
   332  0000                     _UCON	set	3940
   333  0000                     _USTAT	set	3939
   334  0000                     _PIR2bits	set	4001
   335  0000                     _UIEbits	set	3936
   336  0000                     _UIRbits	set	3938
   337  0000                     _UIE	set	3936
   338  0000                     _UCFG	set	3937
   339  0000                     _UIR	set	3938
   340  0000                     _PIE2bits	set	4000
   341  0000                     _PORTAbits	set	3968
   342  0000                     _UCONbits	set	3940
   343  0000                     _PORTCbits	set	3970
   344  0000                     _LATBbits	set	3978
   345  0000                     _LATCbits	set	3979
   346  0000                     _TRISBbits	set	3987
   347  0000                     _TRISCbits	set	3988
   348  0003CA                     STR_1:
   349                           
   350                           ; BSR set to: 0
   351  0003CA  41                 	db	65	;'A'
   352  0003CB  20                 	db	32
   353  0003CC  70                 	db	112	;'p'
   354  0003CD  72                 	db	114	;'r'
   355  0003CE  65                 	db	101	;'e'
   356  0003CF  73                 	db	115	;'s'
   357  0003D0  73                 	db	115	;'s'
   358  0003D1  65                 	db	101	;'e'
   359  0003D2  64                 	db	100	;'d'
   360  0003D3  0A                 	db	10
   361  0003D4  0D                 	db	13
   362  0003D5  00                 	db	0
   363                           
   364                           ; #config settings
   365  0003D6  00                 	db	0	; dummy byte at the end
   366  0000                     
   367                           	psect	cinit
   368  00242A                     __pcinit:
   369                           	opt stack 0
   370  00242A                     start_initialization:
   371                           	opt stack 0
   372  00242A                     __initialization:
   373                           	opt stack 0
   374                           
   375                           ; Initialize objects allocated to BANK0 (18 bytes)
   376                           ; load TBLPTR registers with __pidataBANK0
   377  00242A  0E56               	movlw	low __pidataBANK0
   378  00242C  6EF6               	movwf	tblptrl,c
   379  00242E  0E28               	movlw	high __pidataBANK0
   380  002430  6EF7               	movwf	tblptrh,c
   381  002432  0E00               	movlw	low (__pidataBANK0 shr (0+16))
   382  002434  6EF8               	movwf	tblptru,c
   383  002436  EE00  F0C8         	lfsr	0,__pdataBANK0
   384  00243A  EE10 F012          	lfsr	1,18
   385  00243E                     copy_data0:
   386  00243E  0009               	tblrd		*+
   387  002440  CFF5 FFEE          	movff	tablat,postinc0
   388  002444  50E5               	movf	postdec1,w,c
   389  002446  50E1               	movf	fsr1l,w,c
   390  002448  E1FA               	bnz	copy_data0
   391                           
   392                           ; Clear objects allocated to BANK1 (128 bytes)
   393  00244A  EE01  F000         	lfsr	0,__pbssBANK1
   394  00244E  0E80               	movlw	128
   395  002450                     clear_0:
   396  002450  6AEE               	clrf	postinc0,c
   397  002452  06E8               	decf	wreg,f,c
   398  002454  E1FD               	bnz	clear_0
   399                           
   400                           ; Clear objects allocated to BANK0 (66 bytes)
   401  002456  EE00  F060         	lfsr	0,__pbssBANK0
   402  00245A  0E42               	movlw	66
   403  00245C                     clear_1:
   404  00245C  6AEE               	clrf	postinc0,c
   405  00245E  06E8               	decf	wreg,f,c
   406  002460  E1FD               	bnz	clear_1
   407                           
   408                           ; Clear objects allocated to COMRAM (41 bytes)
   409  002462  EE00  F02B         	lfsr	0,__pbssCOMRAM
   410  002466  0E29               	movlw	41
   411  002468                     clear_2:
   412  002468  6AEE               	clrf	postinc0,c
   413  00246A  06E8               	decf	wreg,f,c
   414  00246C  E1FD               	bnz	clear_2
   415  00246E                     end_of_initialization:
   416                           	opt stack 0
   417  00246E                     __end_of__initialization:
   418                           	opt stack 0
   419  00246E  9054               	bcf	int$flags,0,c	;clear compiler interrupt flag (level 1)
   420  002470  9254               	bcf	int$flags,1,c	;clear compiler interrupt flag (level 2)
   421  002472  0E00               	movlw	low (__Lmediumconst shr (0+16))
   422  002474  6EF8               	movwf	tblptru,c
   423  002476  0100               	movlb	0
   424  002478  EFBE  F012         	goto	_main	;jump to C main() function
   425                           tblptru	equ	0xFF8
   426                           tblptrh	equ	0xFF7
   427                           tblptrl	equ	0xFF6
   428                           tablat	equ	0xFF5
   429                           postinc0	equ	0xFEE
   430                           wreg	equ	0xFE8
   431                           postdec1	equ	0xFE5
   432                           fsr1l	equ	0xFE1
   433                           
   434                           	psect	bssCOMRAM
   435  00002B                     __pbssCOMRAM:
   436                           	opt stack 0
   437  00002B                     _BaudRateGen:
   438                           	opt stack 0
   439  00002B                     	ds	4
   440  00002F                     _USB1msTickCount:
   441                           	opt stack 0
   442  00002F                     	ds	4
   443  000033                     _pDst:
   444                           	opt stack 0
   445  000033                     	ds	2
   446  000035                     _pBDTEntryEP0OutNext:
   447                           	opt stack 0
   448  000035                     	ds	2
   449  000037                     _pBDTEntryEP0OutCurrent:
   450                           	opt stack 0
   451  000037                     	ds	2
   452  000039                     APP_LEDUpdateUSBStatus@ledCount:
   453                           	opt stack 0
   454  000039                     	ds	2
   455  00003B                     _control_signal_bitmap:
   456                           	opt stack 0
   457  00003B                     	ds	1
   458  00003C                     _USBTicksSinceSuspendEnd:
   459                           	opt stack 0
   460  00003C                     	ds	1
   461  00003D                     _USBDeferOUTDataStagePackets:
   462                           	opt stack 0
   463  00003D                     	ds	1
   464  00003E                     _USBDeferINDataStagePackets:
   465                           	opt stack 0
   466  00003E                     	ds	1
   467  00003F                     _USBStatusStageEnabledFlag2:
   468                           	opt stack 0
   469  00003F                     	ds	1
   470  000040                     _USBStatusStageEnabledFlag1:
   471                           	opt stack 0
   472  000040                     	ds	1
   473  000041                     _USBDeferStatusStagePacket:
   474                           	opt stack 0
   475  000041                     	ds	1
   476  000042                     _USBStatusStageTimeoutCounter:
   477                           	opt stack 0
   478  000042                     	ds	1
   479  000043                     _BothEP0OutUOWNsSet:
   480                           	opt stack 0
   481  000043                     	ds	1
   482  000044                     _endpoint_number:
   483                           	opt stack 0
   484  000044                     	ds	1
   485  000045                     _USBBusIsSuspended:
   486                           	opt stack 0
   487  000045                     	ds	1
   488  000046                     _RemoteWakeup:
   489                           	opt stack 0
   490  000046                     	ds	1
   491  000047                     _controlTransferState:
   492                           	opt stack 0
   493  000047                     	ds	1
   494  000048                     _shortPacketStatus:
   495                           	opt stack 0
   496  000048                     	ds	1
   497  000049                     _line_coding:
   498                           	opt stack 0
   499  000049                     	ds	7
   500  000050                     _USBAlternateInterface:
   501                           	opt stack 0
   502  000050                     	ds	2
   503  000052                     _USTATcopy:
   504                           	opt stack 0
   505  000052                     	ds	1
   506  000053                     _USBActiveConfiguration:
   507                           	opt stack 0
   508  000053                     	ds	1
   509                           tblptru	equ	0xFF8
   510                           tblptrh	equ	0xFF7
   511                           tblptrl	equ	0xFF6
   512                           tablat	equ	0xFF5
   513                           postinc0	equ	0xFEE
   514                           wreg	equ	0xFE8
   515                           postdec1	equ	0xFE5
   516                           fsr1l	equ	0xFE1
   517                           
   518                           	psect	bssBANK0
   519  000060                     __pbssBANK0:
   520                           	opt stack 0
   521  000060                     _cdc_notice:
   522                           	opt stack 0
   523  000060                     	ds	10
   524  00006A                     _outPipes:
   525                           	opt stack 0
   526  00006A                     	ds	8
   527  000072                     _inPipes:
   528                           	opt stack 0
   529  000072                     	ds	6
   530  000078                     _pBDTEntryIn:
   531                           	opt stack 0
   532  000078                     	ds	6
   533  00007E                     _pBDTEntryOut:
   534                           	opt stack 0
   535  00007E                     	ds	6
   536  000084                     _pCDCDst:
   537                           	opt stack 0
   538  000084                     	ds	3
   539  000087                     _pCDCSrc:
   540                           	opt stack 0
   541  000087                     	ds	3
   542  00008A                     _ep_data_out:
   543                           	opt stack 0
   544  00008A                     	ds	3
   545  00008D                     _ep_data_in:
   546                           	opt stack 0
   547  00008D                     	ds	3
   548  000090                     _CDCDataInHandle:
   549                           	opt stack 0
   550  000090                     	ds	2
   551  000092                     _CDCDataOutHandle:
   552                           	opt stack 0
   553  000092                     	ds	2
   554  000094                     _cdc_mem_type:
   555                           	opt stack 0
   556  000094                     	ds	1
   557  000095                     _cdc_tx_len:
   558                           	opt stack 0
   559  000095                     	ds	1
   560  000096                     _cdc_rx_len:
   561                           	opt stack 0
   562  000096                     	ds	1
   563  000097                     _buttonPressed:
   564                           	opt stack 0
   565  000097                     	ds	1
   566  000098                     _cdc_trf_state:
   567                           	opt stack 0
   568  000098                     	ds	1
   569  000099                     _USBDeviceState:
   570                           	opt stack 0
   571  000099                     	ds	1
   572  00009A                     _dummy_encapsulated_cmd_response:
   573                           	opt stack 0
   574  00009A                     	ds	8
   575                           tblptru	equ	0xFF8
   576                           tblptrh	equ	0xFF7
   577                           tblptrl	equ	0xFF6
   578                           tablat	equ	0xFF5
   579                           postinc0	equ	0xFEE
   580                           wreg	equ	0xFE8
   581                           postdec1	equ	0xFE5
   582                           fsr1l	equ	0xFE1
   583                           
   584                           	psect	dataBANK0
   585  0000C8                     __pdataBANK0:
   586                           	opt stack 0
   587  0000C8                     _buttonMessage:
   588                           	opt stack 0
   589  0000C8                     	ds	18
   590                           tblptru	equ	0xFF8
   591                           tblptrh	equ	0xFF7
   592                           tblptrl	equ	0xFF6
   593                           tablat	equ	0xFF5
   594                           postinc0	equ	0xFEE
   595                           wreg	equ	0xFE8
   596                           postdec1	equ	0xFE5
   597                           fsr1l	equ	0xFE1
   598                           
   599                           	psect	bssBANK1
   600  000100                     __pbssBANK1:
   601                           	opt stack 0
   602  000100                     _writeBuffer:
   603                           	opt stack 0
   604  000100                     	ds	64
   605  000140                     _readBuffer:
   606                           	opt stack 0
   607  000140                     	ds	64
   608                           tblptru	equ	0xFF8
   609                           tblptrh	equ	0xFF7
   610                           tblptrl	equ	0xFF6
   611                           tablat	equ	0xFF5
   612                           postinc0	equ	0xFEE
   613                           wreg	equ	0xFE8
   614                           postdec1	equ	0xFE5
   615                           fsr1l	equ	0xFE1
   616                           
   617                           	psect	cstackBANK0
   618  0000A2                     __pcstackBANK0:
   619                           	opt stack 0
   620  0000A2                     ??_enterLowVoltageICSP:
   621  0000A2                     ?_USBTransferOnePacket:
   622                           	opt stack 0
   623  0000A2                     ?_generateReadPulses:
   624                           	opt stack 0
   625  0000A2                     BUTTON_IsPressed@button:
   626                           	opt stack 0
   627  0000A2                     BUTTON_Enable@button:
   628                           	opt stack 0
   629  0000A2                     LED_Enable@led:
   630                           	opt stack 0
   631  0000A2                     USBTransferOnePacket@dir:
   632                           	opt stack 0
   633  0000A2                     generateWritePulses@command:
   634                           	opt stack 0
   635  0000A2                     generateReadPulses@command:
   636                           	opt stack 0
   637  0000A2                     putUSBUSART@data:
   638                           	opt stack 0
   639  0000A2                     putrsUSBUSART@data:
   640                           	opt stack 0
   641  0000A2                     memset@p1:
   642                           	opt stack 0
   643                           
   644                           ; 2 bytes @ 0x0
   645  0000A2                     	ds	1
   646  0000A3                     SYSTEM_Initialize@state:
   647                           	opt stack 0
   648  0000A3                     USBTransferOnePacket@data:
   649                           	opt stack 0
   650                           
   651                           ; 2 bytes @ 0x1
   652  0000A3                     	ds	1
   653  0000A4                     ??_putrsUSBUSART:
   654  0000A4                     ??_generateReadPulses:
   655  0000A4                     putUSBUSART@length:
   656                           	opt stack 0
   657  0000A4                     generateWritePulses@payLoadMsb:
   658                           	opt stack 0
   659  0000A4                     memset@c:
   660                           	opt stack 0
   661                           
   662                           ; 2 bytes @ 0x2
   663  0000A4                     	ds	1
   664  0000A5                     USBTransferOnePacket@len:
   665                           	opt stack 0
   666                           
   667                           ; 1 bytes @ 0x3
   668  0000A5                     	ds	1
   669  0000A6                     ??_USBTransferOnePacket:
   670  0000A6                     generateWritePulses@payLoadLsb:
   671                           	opt stack 0
   672  0000A6                     putrsUSBUSART@pData:
   673                           	opt stack 0
   674  0000A6                     memset@n:
   675                           	opt stack 0
   676                           
   677                           ; 2 bytes @ 0x4
   678  0000A6                     	ds	1
   679  0000A7                     generateReadPulses@OUT:
   680                           	opt stack 0
   681                           
   682                           ; 2 bytes @ 0x5
   683  0000A7                     	ds	1
   684  0000A8                     ??_generateWritePulses:
   685  0000A8                     putrsUSBUSART@len:
   686                           	opt stack 0
   687  0000A8                     memset@p:
   688                           	opt stack 0
   689                           
   690                           ; 2 bytes @ 0x6
   691  0000A8                     	ds	1
   692  0000A9                     generateReadPulses@i:
   693                           	opt stack 0
   694                           
   695                           ; 1 bytes @ 0x7
   696  0000A9                     	ds	1
   697  0000AA                     generateReadPulses@i_441:
   698                           	opt stack 0
   699  0000AA                     USBDeviceInit@i:
   700                           	opt stack 0
   701  0000AA                     USBTransferOnePacket@ep:
   702                           	opt stack 0
   703                           
   704                           ; 1 bytes @ 0x8
   705  0000AA                     	ds	1
   706  0000AB                     generateWritePulses@i:
   707                           	opt stack 0
   708  0000AB                     USBTransferOnePacket@handle:
   709                           	opt stack 0
   710                           
   711                           ; 2 bytes @ 0x9
   712  0000AB                     	ds	1
   713  0000AC                     generateWritePulses@i_413:
   714                           	opt stack 0
   715                           
   716                           ; 1 bytes @ 0xA
   717  0000AC                     	ds	1
   718  0000AD                     generateWritePulses@i_414:
   719                           	opt stack 0
   720  0000AD                     CDCTxService@i:
   721                           	opt stack 0
   722  0000AD                     getsUSBUSART@buffer:
   723                           	opt stack 0
   724                           
   725                           ; 2 bytes @ 0xB
   726  0000AD                     	ds	1
   727  0000AE                     CDCTxService@byte_to_send:
   728                           	opt stack 0
   729  0000AE                     readEepromByte@address:
   730                           	opt stack 0
   731  0000AE                     writeEepromByte@address:
   732                           	opt stack 0
   733                           
   734                           ; 4 bytes @ 0xC
   735  0000AE                     	ds	1
   736  0000AF                     getsUSBUSART@len:
   737                           	opt stack 0
   738                           
   739                           ; 1 bytes @ 0xD
   740  0000AF                     	ds	1
   741  0000B0                     
   742                           ; 1 bytes @ 0xE
   743  0000B0                     	ds	2
   744  0000B2                     writeEepromByte@data:
   745                           	opt stack 0
   746  0000B2                     readEepromByte@Data:
   747                           	opt stack 0
   748                           
   749                           ; 2 bytes @ 0x10
   750  0000B2                     	ds	1
   751  0000B3                     writeEepromByte@i:
   752                           	opt stack 0
   753                           
   754                           ; 2 bytes @ 0x11
   755  0000B3                     	ds	2
   756  0000B5                     writeEepromByte@Data:
   757                           	opt stack 0
   758                           
   759                           ; 2 bytes @ 0x13
   760  0000B5                     	ds	2
   761  0000B7                     writeEepromByte@Success:
   762                           	opt stack 0
   763                           
   764                           ; 1 bytes @ 0x15
   765  0000B7                     	ds	1
   766  0000B8                     ??_APP_DeviceCDCBasicDemoTasks:
   767                           
   768                           ; 1 bytes @ 0x16
   769  0000B8                     	ds	4
   770  0000BC                     APP_DeviceCDCBasicDemoTasks@eepromAddress:
   771                           	opt stack 0
   772                           
   773                           ; 4 bytes @ 0x1A
   774  0000BC                     	ds	4
   775  0000C0                     APP_DeviceCDCBasicDemoTasks@eepromAddress_1011:
   776                           	opt stack 0
   777                           
   778                           ; 4 bytes @ 0x1E
   779  0000C0                     	ds	4
   780  0000C4                     APP_DeviceCDCBasicDemoTasks@numBytesRead:
   781                           	opt stack 0
   782                           
   783                           ; 1 bytes @ 0x22
   784  0000C4                     	ds	1
   785  0000C5                     APP_DeviceCDCBasicDemoTasks@i:
   786                           	opt stack 0
   787                           
   788                           ; 1 bytes @ 0x23
   789  0000C5                     	ds	1
   790  0000C6                     ??_main:
   791                           
   792                           ; 1 bytes @ 0x24
   793  0000C6                     	ds	2
   794                           tblptru	equ	0xFF8
   795                           tblptrh	equ	0xFF7
   796                           tblptrl	equ	0xFF6
   797                           tablat	equ	0xFF5
   798                           postinc0	equ	0xFEE
   799                           wreg	equ	0xFE8
   800                           postdec1	equ	0xFE5
   801                           fsr1l	equ	0xFE1
   802                           
   803                           	psect	cstackCOMRAM
   804  000001                     __pcstackCOMRAM:
   805                           	opt stack 0
   806  000001                     ??_USBStdGetDscHandler:
   807  000001                     ??_USBStdGetStatusHandler:
   808  000001                     ?i2_USBTransferOnePacket:
   809                           	opt stack 0
   810  000001                     LED_On@led:
   811                           	opt stack 0
   812  000001                     LED_Off@led:
   813                           	opt stack 0
   814  000001                     USBConfigureEndpoint@direction:
   815                           	opt stack 0
   816  000001                     USBCtrlTrfTxService@byteToSend:
   817                           	opt stack 0
   818  000001                     USBCtrlTrfRxService@i:
   819                           	opt stack 0
   820  000001                     i2BUTTON_Enable@button:
   821                           	opt stack 0
   822  000001                     i2LED_Enable@led:
   823                           	opt stack 0
   824  000001                     i2USBTransferOnePacket@dir:
   825                           	opt stack 0
   826  000001                     memcpy@d1:
   827                           	opt stack 0
   828  000001                     i2memset@p1:
   829                           	opt stack 0
   830                           
   831                           ; 2 bytes @ 0x0
   832  000001                     	ds	1
   833  000002                     ??_USBConfigureEndpoint:
   834  000002                     USBCtrlTrfRxService@byteToRead:
   835                           	opt stack 0
   836  000002                     USBCtrlTrfInHandler@lastDTS:
   837                           	opt stack 0
   838  000002                     i2SYSTEM_Initialize@state:
   839                           	opt stack 0
   840  000002                     USBStdGetStatusHandler@p:
   841                           	opt stack 0
   842  000002                     i2USBTransferOnePacket@data:
   843                           	opt stack 0
   844                           
   845                           ; 2 bytes @ 0x1
   846  000002                     	ds	1
   847  000003                     memcpy@s1:
   848                           	opt stack 0
   849  000003                     i2memset@c:
   850                           	opt stack 0
   851                           
   852                           ; 2 bytes @ 0x2
   853  000003                     	ds	1
   854  000004                     i2USBTransferOnePacket@len:
   855                           	opt stack 0
   856                           
   857                           ; 1 bytes @ 0x3
   858  000004                     	ds	1
   859  000005                     ??i2_USBTransferOnePacket:
   860  000005                     memcpy@n:
   861                           	opt stack 0
   862  000005                     i2memset@n:
   863                           	opt stack 0
   864                           
   865                           ; 2 bytes @ 0x4
   866  000005                     	ds	1
   867  000006                     USBConfigureEndpoint@EPNum:
   868                           	opt stack 0
   869                           
   870                           ; 1 bytes @ 0x5
   871  000006                     	ds	1
   872  000007                     USBConfigureEndpoint@handle:
   873                           	opt stack 0
   874  000007                     memcpy@d:
   875                           	opt stack 0
   876  000007                     i2memset@p:
   877                           	opt stack 0
   878                           
   879                           ; 2 bytes @ 0x6
   880  000007                     	ds	2
   881  000009                     USBEnableEndpoint@options:
   882                           	opt stack 0
   883  000009                     i2USBDeviceInit@i:
   884                           	opt stack 0
   885  000009                     i2USBTransferOnePacket@ep:
   886                           	opt stack 0
   887  000009                     memcpy@s:
   888                           	opt stack 0
   889                           
   890                           ; 2 bytes @ 0x8
   891  000009                     	ds	1
   892  00000A                     USBEnableEndpoint@p:
   893                           	opt stack 0
   894  00000A                     i2USBTransferOnePacket@handle:
   895                           	opt stack 0
   896                           
   897                           ; 2 bytes @ 0x9
   898  00000A                     	ds	1
   899  00000B                     memcpy@tmp:
   900                           	opt stack 0
   901                           
   902                           ; 1 bytes @ 0xA
   903  00000B                     	ds	1
   904  00000C                     USBEnableEndpoint@ep:
   905                           	opt stack 0
   906                           
   907                           ; 1 bytes @ 0xB
   908  00000C                     	ds	1
   909  00000D                     USER_USB_CALLBACK_EVENT_HANDLER@event:
   910                           	opt stack 0
   911                           
   912                           ; 2 bytes @ 0xC
   913  00000D                     	ds	2
   914  00000F                     USER_USB_CALLBACK_EVENT_HANDLER@pdata:
   915                           	opt stack 0
   916                           
   917                           ; 2 bytes @ 0xE
   918  00000F                     	ds	2
   919  000011                     USER_USB_CALLBACK_EVENT_HANDLER@size:
   920                           	opt stack 0
   921                           
   922                           ; 2 bytes @ 0x10
   923  000011                     	ds	2
   924  000013                     ??_USER_USB_CALLBACK_EVENT_HANDLER:
   925                           
   926                           ; 1 bytes @ 0x12
   927  000013                     	ds	2
   928  000015                     ??_USBStdFeatureReqHandler:
   929  000015                     USBStdSetCfgHandler@i:
   930                           	opt stack 0
   931                           
   932                           ; 1 bytes @ 0x14
   933  000015                     	ds	1
   934  000016                     USBStdFeatureReqHandler@pUEP:
   935                           	opt stack 0
   936                           
   937                           ; 2 bytes @ 0x15
   938  000016                     	ds	2
   939  000018                     USBStdFeatureReqHandler@current_ep_data:
   940                           	opt stack 0
   941                           
   942                           ; 1 bytes @ 0x17
   943  000018                     	ds	1
   944  000019                     USBStdFeatureReqHandler@p:
   945                           	opt stack 0
   946                           
   947                           ; 2 bytes @ 0x18
   948  000019                     	ds	2
   949  00001B                     ??_USBCtrlEPService:
   950  00001B                     
   951                           ; 1 bytes @ 0x1A
   952  00001B                     	ds	1
   953  00001C                     USBDeviceTasks@i:
   954                           	opt stack 0
   955                           
   956                           ; 1 bytes @ 0x1B
   957  00001C                     	ds	1
   958  00001D                     ??_SYS_InterruptHigh:
   959                           
   960                           ; 1 bytes @ 0x1C
   961  00001D                     	ds	14
   962                           tblptru	equ	0xFF8
   963                           tblptrh	equ	0xFF7
   964                           tblptrl	equ	0xFF6
   965                           tablat	equ	0xFF5
   966                           postinc0	equ	0xFEE
   967                           wreg	equ	0xFE8
   968                           postdec1	equ	0xFE5
   969                           fsr1l	equ	0xFE1
   970                           
   971 ;;
   972 ;;Main: autosize = 0, tempsize = 2, incstack = 0, save=0
   973 ;;
   974 ;; *************** function _main *****************
   975 ;; Defined at:
   976 ;;		line 12 in file "main.c"
   977 ;; Parameters:    Size  Location     Type
   978 ;;		None
   979 ;; Auto vars:     Size  Location     Type
   980 ;;		None
   981 ;; Return value:  Size  Location     Type
   982 ;;                  1    wreg      void 
   983 ;; Registers used:
   984 ;;		wreg, fsr1l, fsr1h, fsr2l, fsr2h, status,2, status,0, tblptrl, tblptrh, tblptru, prodl, prodh, cstack
   985 ;; Tracked objects:
   986 ;;		On entry : 0/0
   987 ;;		On exit  : 0/0
   988 ;;		Unchanged: 0/0
   989 ;; Data sizes:     COMRAM   BANK0   BANK1   BANK2
   990 ;;      Params:         0       0       0       0
   991 ;;      Locals:         0       0       0       0
   992 ;;      Temps:          0       2       0       0
   993 ;;      Totals:         0       2       0       0
   994 ;;Total ram usage:        2 bytes
   995 ;; Hardware stack levels required when called:   15
   996 ;; This function calls:
   997 ;;		_APP_DeviceCDCBasicDemoTasks
   998 ;;		_SYSTEM_Initialize
   999 ;;		_USBDeviceAttach
  1000 ;;		_USBDeviceInit
  1001 ;; This function is called by:
  1002 ;;		Startup code after reset
  1003 ;; This function uses a non-reentrant model
  1004 ;;
  1005                           
  1006                           	psect	text0
  1007  00257C                     __ptext0:
  1008                           	opt stack 0
  1009  00257C                     _main:
  1010                           	opt stack 16
  1011                           
  1012                           ;main.c: 13: ANSEL = ANSELH = 0;
  1013                           
  1014                           ; BSR set to: 0
  1015                           ;incstack = 0
  1016  00257C  0E00               	movlw	0
  1017  00257E  6E7F               	movwf	3967,c	;volatile
  1018  002580  CF7F FF7E          	movff	3967,3966	;volatile
  1019                           
  1020                           ;main.c: 14: SYSTEM_Initialize(SYSTEM_STATE_USB_START);
  1021  002584  0E00               	movlw	0
  1022  002586  ECD1  F013         	call	_SYSTEM_Initialize
  1023                           
  1024                           ;main.c: 15: USBDeviceInit();
  1025  00258A  ECCE  F006         	call	_USBDeviceInit	;wreg free
  1026                           
  1027                           ;main.c: 16: USBDeviceAttach();
  1028  00258E  ECD9  F012         	call	_USBDeviceAttach	;wreg free
  1029  002592                     l5306:
  1030                           
  1031                           ;main.c: 18: ;
  1032                           ;main.c: 37: APP_DeviceCDCBasicDemoTasks();
  1033  002592  EC7D  F004         	call	_APP_DeviceCDCBasicDemoTasks	;wreg free
  1034                           
  1035                           ;main.c: 38: _delay((unsigned long)((100)*(12000000/4000.0)));
  1036  002596  0E02               	movlw	2
  1037  002598  0100               	movlb	0	; () banked
  1038  00259A  6FC7               	movwf	(??_main+1)& (0+255),b
  1039  00259C  0E86               	movlw	134
  1040  00259E  0100               	movlb	0	; () banked
  1041  0025A0  6FC6               	movwf	??_main& (0+255),b
  1042  0025A2  0E99               	movlw	153
  1043  0025A4                     u4677:
  1044  0025A4  2EE8               	decfsz	wreg,f,c
  1045  0025A6  D7FE               	bra	u4677
  1046  0025A8  2FC6               	decfsz	??_main& (0+255),f,b
  1047  0025AA  D7FC               	bra	u4677
  1048  0025AC  2FC7               	decfsz	(??_main+1)& (0+255),f,b
  1049  0025AE  D7FA               	bra	u4677
  1050  0025B0  D7F0               	goto	l5306
  1051  0025B2                     __end_of_main:
  1052                           	opt stack 0
  1053                           tblptru	equ	0xFF8
  1054                           tblptrh	equ	0xFF7
  1055                           tblptrl	equ	0xFF6
  1056                           tablat	equ	0xFF5
  1057                           postinc0	equ	0xFEE
  1058                           wreg	equ	0xFE8
  1059                           postdec1	equ	0xFE5
  1060                           fsr1l	equ	0xFE1
  1061                           
  1062 ;; *************** function _USBDeviceInit *****************
  1063 ;; Defined at:
  1064 ;;		line 277 in file "picLibs/usb_device.c"
  1065 ;; Parameters:    Size  Location     Type
  1066 ;;		None
  1067 ;; Auto vars:     Size  Location     Type
  1068 ;;  i               1    8[BANK0 ] unsigned char 
  1069 ;; Return value:  Size  Location     Type
  1070 ;;                  1    wreg      void 
  1071 ;; Registers used:
  1072 ;;		wreg, fsr2l, fsr2h, status,2, status,0, prodl, prodh, cstack
  1073 ;; Tracked objects:
  1074 ;;		On entry : 0/0
  1075 ;;		On exit  : 0/0
  1076 ;;		Unchanged: 0/0
  1077 ;; Data sizes:     COMRAM   BANK0   BANK1   BANK2
  1078 ;;      Params:         0       0       0       0
  1079 ;;      Locals:         0       1       0       0
  1080 ;;      Temps:          0       0       0       0
  1081 ;;      Totals:         0       1       0       0
  1082 ;;Total ram usage:        1 bytes
  1083 ;; Hardware stack levels used:    1
  1084 ;; Hardware stack levels required when called:   11
  1085 ;; This function calls:
  1086 ;;		_memset
  1087 ;; This function is called by:
  1088 ;;		_main
  1089 ;; This function uses a non-reentrant model
  1090 ;;
  1091                           
  1092                           	psect	text1
  1093  000D9C                     __ptext1:
  1094                           	opt stack 0
  1095  000D9C                     _USBDeviceInit:
  1096                           	opt stack 19
  1097                           
  1098                           ;usb_device.c: 279: uint8_t i;
  1099                           ;usb_device.c: 281: {PIE2bits.USBIE = 0;};
  1100                           
  1101                           ;incstack = 0
  1102  000D9C  94A0               	bcf	4000,2,c	;volatile
  1103                           
  1104                           ;usb_device.c: 285: ;
  1105                           ;usb_device.c: 288: {UEIR = 0;};
  1106  000D9E  0E00               	movlw	0
  1107  000DA0  010F               	movlb	15	; () banked
  1108  000DA2  6F5F               	movwf	95,b	;volatile
  1109                           
  1110                           ;usb_device.c: 291: {UIR = 0;};
  1111  000DA4  0E00               	movlw	0
  1112  000DA6  6E62               	movwf	3938,c	;volatile
  1113                           
  1114                           ;usb_device.c: 294: UEP0 = 0;
  1115  000DA8  0E00               	movlw	0
  1116  000DAA  010F               	movlb	15	; () banked
  1117  000DAC  6F53               	movwf	83,b	;volatile
  1118                           
  1119                           ; BSR set to: 15
  1120                           ;usb_device.c: 296: memset((void*)&UEP1,0x00,(2));;
  1121  000DAE  0E54               	movlw	84
  1122  000DB0  0100               	movlb	0	; () banked
  1123  000DB2  6FA2               	movwf	memset@p1& (0+255),b
  1124  000DB4  0E0F               	movlw	15
  1125  000DB6  0100               	movlb	0	; () banked
  1126  000DB8  6FA3               	movwf	(memset@p1+1)& (0+255),b
  1127  000DBA  0E00               	movlw	0
  1128  000DBC  0100               	movlb	0	; () banked
  1129  000DBE  6FA5               	movwf	(memset@c+1)& (0+255),b
  1130  000DC0  0E00               	movlw	0
  1131  000DC2  6FA4               	movwf	memset@c& (0+255),b
  1132  000DC4  0E00               	movlw	0
  1133  000DC6  0100               	movlb	0	; () banked
  1134  000DC8  6FA7               	movwf	(memset@n+1)& (0+255),b
  1135  000DCA  0E02               	movlw	2
  1136  000DCC  6FA6               	movwf	memset@n& (0+255),b
  1137  000DCE  EC45  F013         	call	_memset	;wreg free
  1138                           
  1139                           ;usb_device.c: 298: { UCFG = 0x10 | 0x00 | 0x04 | 0x02; UEIE = 0x9F; UIE = 0x39 | 0x40 |
      +                           0x02; };
  1140  000DD2  0E16               	movlw	22
  1141  000DD4  6E61               	movwf	3937,c	;volatile
  1142  000DD6  0E9F               	movlw	159
  1143  000DD8  010F               	movlb	15	; () banked
  1144  000DDA  6F5B               	movwf	91,b	;volatile
  1145                           
  1146                           ; BSR set to: 15
  1147  000DDC  0E7B               	movlw	123
  1148  000DDE  6E60               	movwf	3936,c	;volatile
  1149                           
  1150                           ; BSR set to: 15
  1151                           ;usb_device.c: 301: ;
  1152                           ;usb_device.c: 304: ;
  1153                           ;usb_device.c: 307: for(i = 0; i < (sizeof(BDT)/sizeof(BDT_ENTRY)); i++)
  1154  000DE0  0E00               	movlw	0
  1155  000DE2  0100               	movlb	0	; () banked
  1156  000DE4  6FAA               	movwf	USBDeviceInit@i& (0+255),b
  1157  000DE6                     l5208:
  1158                           
  1159                           ; BSR set to: 0
  1160  000DE6  0E0B               	movlw	11
  1161  000DE8  0100               	movlb	0	; () banked
  1162  000DEA  65AA               	cpfsgt	USBDeviceInit@i& (0+255),b
  1163  000DEC  D001               	goto	l5212
  1164  000DEE  D010               	goto	l397
  1165  000DF0                     l5212:
  1166                           
  1167                           ; BSR set to: 0
  1168                           ;usb_device.c: 308: {
  1169                           ;usb_device.c: 309: BDT[i].Val = 0x00;
  1170  000DF0  0100               	movlb	0	; () banked
  1171  000DF2  51AA               	movf	USBDeviceInit@i& (0+255),w,b
  1172  000DF4  0D04               	mullw	4
  1173  000DF6  0E00               	movlw	0
  1174  000DF8  24F3               	addwf	prodl,w,c
  1175  000DFA  6ED9               	movwf	fsr2l,c
  1176  000DFC  0E02               	movlw	2
  1177  000DFE  20F4               	addwfc	prodh,w,c
  1178  000E00  6EDA               	movwf	fsr2h,c
  1179  000E02  6ADE               	clrf	postinc2,c
  1180  000E04  6ADE               	clrf	postinc2,c
  1181  000E06  6ADE               	clrf	postinc2,c
  1182  000E08  6ADD               	clrf	postdec2,c
  1183                           
  1184                           ; BSR set to: 0
  1185  000E0A  0100               	movlb	0	; () banked
  1186  000E0C  2BAA               	incf	USBDeviceInit@i& (0+255),f,b
  1187  000E0E  D7EB               	goto	l5208
  1188  000E10                     l397:
  1189                           
  1190                           ; BSR set to: 0
  1191                           ;usb_device.c: 310: }
  1192                           ;usb_device.c: 313: UCONbits.PPBRST = 1;
  1193  000E10  8C64               	bsf	3940,6,c	;volatile
  1194                           
  1195                           ; BSR set to: 0
  1196                           ;usb_device.c: 316: UADDR = 0x00;
  1197  000E12  0E00               	movlw	0
  1198  000E14  010F               	movlb	15	; () banked
  1199  000E16  6F5C               	movwf	92,b	;volatile
  1200                           
  1201                           ; BSR set to: 15
  1202                           ;usb_device.c: 319: UCONbits.PKTDIS = 0;
  1203  000E18  9864               	bcf	3940,4,c	;volatile
  1204                           
  1205                           ; BSR set to: 15
  1206                           ;usb_device.c: 322: UCONbits.PPBRST = 0;
  1207  000E1A  9C64               	bcf	3940,6,c	;volatile
  1208  000E1C                     l5224:
  1209                           
  1210                           ;usb_device.c: 326: {
  1211                           ;usb_device.c: 327: (UIR &= 0xF7);
  1212  000E1C  9662               	bcf	3938,3,c	;volatile
  1213                           
  1214                           ;usb_device.c: 329: inPipes[0].info.Val = 0;
  1215  000E1E  0E00               	movlw	0
  1216  000E20  0100               	movlb	0	; () banked
  1217  000E22  6F75               	movwf	(_inPipes+3)& (0+255),b	;volatile
  1218                           
  1219                           ; BSR set to: 0
  1220                           ;usb_device.c: 330: outPipes[0].info.Val = 0;
  1221  000E24  0E00               	movlw	0
  1222  000E26  0100               	movlb	0	; () banked
  1223  000E28  6F6D               	movwf	(_outPipes+3)& (0+255),b	;volatile
  1224                           
  1225                           ; BSR set to: 0
  1226                           ;usb_device.c: 331: outPipes[0].wCount.Val = 0;
  1227  000E2A  0E00               	movlw	0
  1228  000E2C  0100               	movlb	0	; () banked
  1229  000E2E  6F6F               	movwf	(_outPipes+5)& (0+255),b	;volatile
  1230  000E30  0E00               	movlw	0
  1231  000E32  6F6E               	movwf	(_outPipes+4)& (0+255),b	;volatile
  1232                           
  1233                           ; BSR set to: 0
  1234                           ;usb_device.c: 332: }while(UIRbits.TRNIF == 1);
  1235  000E34  B662               	btfsc	3938,3,c	;volatile
  1236  000E36  D7F2               	goto	l5224
  1237                           
  1238                           ; BSR set to: 0
  1239                           ;usb_device.c: 336: USBStatusStageEnabledFlag1 = 1;
  1240                           
  1241                           ; BSR set to: 0
  1242  000E38  0E01               	movlw	1
  1243  000E3A  6E40               	movwf	_USBStatusStageEnabledFlag1,c	;volatile
  1244                           
  1245                           ;usb_device.c: 337: USBStatusStageEnabledFlag2 = 1;
  1246  000E3C  0E01               	movlw	1
  1247  000E3E  6E3F               	movwf	_USBStatusStageEnabledFlag2,c	;volatile
  1248                           
  1249                           ;usb_device.c: 339: USBDeferINDataStagePackets = 0;
  1250  000E40  0E00               	movlw	0
  1251  000E42  6E3E               	movwf	_USBDeferINDataStagePackets,c	;volatile
  1252                           
  1253                           ;usb_device.c: 340: USBDeferOUTDataStagePackets = 0;
  1254  000E44  0E00               	movlw	0
  1255  000E46  6E3D               	movwf	_USBDeferOUTDataStagePackets,c	;volatile
  1256                           
  1257                           ;usb_device.c: 341: USBBusIsSuspended = 0;
  1258  000E48  0E00               	movlw	0
  1259  000E4A  6E45               	movwf	_USBBusIsSuspended,c	;volatile
  1260                           
  1261                           ;usb_device.c: 345: for(i = 0; i < (uint8_t)(2+1u); i++)
  1262  000E4C  0E00               	movlw	0
  1263  000E4E  0100               	movlb	0	; () banked
  1264  000E50  6FAA               	movwf	USBDeviceInit@i& (0+255),b
  1265  000E52                     l5236:
  1266                           
  1267                           ; BSR set to: 0
  1268  000E52  0E02               	movlw	2
  1269  000E54  0100               	movlb	0	; () banked
  1270  000E56  65AA               	cpfsgt	USBDeviceInit@i& (0+255),b
  1271  000E58  D001               	goto	l5240
  1272  000E5A  D033               	goto	l5246
  1273  000E5C                     l5240:
  1274                           
  1275                           ; BSR set to: 0
  1276                           ;usb_device.c: 346: {
  1277                           ;usb_device.c: 347: pBDTEntryIn[i] = 0u;
  1278  000E5C  0100               	movlb	0	; () banked
  1279  000E5E  51AA               	movf	USBDeviceInit@i& (0+255),w,b
  1280  000E60  0D02               	mullw	2
  1281  000E62  0E78               	movlw	low _pBDTEntryIn
  1282  000E64  24F3               	addwf	prodl,w,c
  1283  000E66  6ED9               	movwf	fsr2l,c
  1284  000E68  0E00               	movlw	high _pBDTEntryIn
  1285  000E6A  20F4               	addwfc	prodh,w,c
  1286  000E6C  6EDA               	movwf	fsr2h,c
  1287  000E6E  0E00               	movlw	0
  1288  000E70  6EDE               	movwf	postinc2,c
  1289  000E72  0E00               	movlw	0
  1290  000E74  6EDD               	movwf	postdec2,c
  1291                           
  1292                           ;usb_device.c: 348: pBDTEntryOut[i] = 0u;
  1293  000E76  0100               	movlb	0	; () banked
  1294  000E78  51AA               	movf	USBDeviceInit@i& (0+255),w,b
  1295  000E7A  0D02               	mullw	2
  1296  000E7C  0E7E               	movlw	low _pBDTEntryOut
  1297  000E7E  24F3               	addwf	prodl,w,c
  1298  000E80  6ED9               	movwf	fsr2l,c
  1299  000E82  0E00               	movlw	high _pBDTEntryOut
  1300  000E84  20F4               	addwfc	prodh,w,c
  1301  000E86  6EDA               	movwf	fsr2h,c
  1302  000E88  0E00               	movlw	0
  1303  000E8A  6EDE               	movwf	postinc2,c
  1304  000E8C  0E00               	movlw	0
  1305  000E8E  6EDD               	movwf	postdec2,c
  1306                           
  1307                           ;usb_device.c: 349: ep_data_in[i].Val = 0u;
  1308  000E90  0100               	movlb	0	; () banked
  1309  000E92  51AA               	movf	USBDeviceInit@i& (0+255),w,b
  1310  000E94  0D01               	mullw	1
  1311  000E96  0E8D               	movlw	low _ep_data_in
  1312  000E98  24F3               	addwf	prodl,w,c
  1313  000E9A  6ED9               	movwf	fsr2l,c
  1314  000E9C  0E00               	movlw	high _ep_data_in
  1315  000E9E  20F4               	addwfc	prodh,w,c
  1316  000EA0  6EDA               	movwf	fsr2h,c
  1317  000EA2  0E00               	movlw	0
  1318  000EA4  6EDF               	movwf	indf2,c
  1319                           
  1320                           ;usb_device.c: 350: ep_data_out[i].Val = 0u;
  1321  000EA6  0100               	movlb	0	; () banked
  1322  000EA8  51AA               	movf	USBDeviceInit@i& (0+255),w,b
  1323  000EAA  0D01               	mullw	1
  1324  000EAC  0E8A               	movlw	low _ep_data_out
  1325  000EAE  24F3               	addwf	prodl,w,c
  1326  000EB0  6ED9               	movwf	fsr2l,c
  1327  000EB2  0E00               	movlw	high _ep_data_out
  1328  000EB4  20F4               	addwfc	prodh,w,c
  1329  000EB6  6EDA               	movwf	fsr2h,c
  1330  000EB8  0E00               	movlw	0
  1331  000EBA  6EDF               	movwf	indf2,c
  1332                           
  1333                           ; BSR set to: 0
  1334  000EBC  0100               	movlb	0	; () banked
  1335  000EBE  2BAA               	incf	USBDeviceInit@i& (0+255),f,b
  1336  000EC0  D7C8               	goto	l5236
  1337  000EC2                     l5246:
  1338                           
  1339                           ; BSR set to: 0
  1340                           ;usb_device.c: 351: }
  1341                           ;usb_device.c: 354: pBDTEntryIn[0] = (volatile BDT_ENTRY*)&BDT[2];
  1342  000EC2  0E08               	movlw	8
  1343  000EC4  0100               	movlb	0	; () banked
  1344  000EC6  6F78               	movwf	_pBDTEntryIn& (0+255),b
  1345  000EC8  0E02               	movlw	2
  1346  000ECA  0100               	movlb	0	; () banked
  1347  000ECC  6F79               	movwf	(_pBDTEntryIn+1)& (0+255),b
  1348                           
  1349                           ; BSR set to: 0
  1350                           ;usb_device.c: 356: UEP0 = 0x06|0x10;
  1351  000ECE  0E16               	movlw	22
  1352  000ED0  010F               	movlb	15	; () banked
  1353  000ED2  6F53               	movwf	83,b	;volatile
  1354                           
  1355                           ; BSR set to: 15
  1356                           ;usb_device.c: 358: BDT[0].ADR = ((uint16_t)(&SetupPkt));
  1357  000ED4  0E02               	movlw	2
  1358  000ED6  0102               	movlb	2	; () banked
  1359  000ED8  6F03               	movwf	3,b	;volatile
  1360  000EDA  0E30               	movlw	48
  1361  000EDC  6F02               	movwf	2,b	;volatile
  1362                           
  1363                           ; BSR set to: 2
  1364                           ;usb_device.c: 359: BDT[0].CNT = 8;
  1365  000EDE  0E08               	movlw	8
  1366  000EE0  0102               	movlb	2	; () banked
  1367  000EE2  6F01               	movwf	1,b	;volatile
  1368                           
  1369                           ; BSR set to: 2
  1370                           ;usb_device.c: 360: BDT[0].STAT.Val = 0x00|0x04;
  1371  000EE4  0E04               	movlw	4
  1372  000EE6  0102               	movlb	2	; () banked
  1373  000EE8  6F00               	movwf	0,b	;volatile
  1374                           
  1375                           ; BSR set to: 2
  1376                           ;usb_device.c: 361: BDT[0].STAT.Val |= 0x80;
  1377  000EEA  0102               	movlb	2	; () banked
  1378  000EEC  8F00               	bsf	0,7,b	;volatile
  1379                           
  1380                           ; BSR set to: 2
  1381                           ;usb_device.c: 364: USBActiveConfiguration = 0;
  1382  000EEE  0E00               	movlw	0
  1383  000EF0  6E53               	movwf	_USBActiveConfiguration,c	;volatile
  1384                           
  1385                           ; BSR set to: 2
  1386                           ;usb_device.c: 366: USB1msTickCount = 0;
  1387  000EF2  0E00               	movlw	0
  1388  000EF4  6E2F               	movwf	_USB1msTickCount,c	;volatile
  1389  000EF6  0E00               	movlw	0
  1390  000EF8  6E30               	movwf	_USB1msTickCount+1,c	;volatile
  1391  000EFA  0E00               	movlw	0
  1392  000EFC  6E31               	movwf	_USB1msTickCount+2,c	;volatile
  1393  000EFE  0E00               	movlw	0
  1394  000F00  6E32               	movwf	_USB1msTickCount+3,c	;volatile
  1395                           
  1396                           ; BSR set to: 2
  1397                           ;usb_device.c: 367: USBTicksSinceSuspendEnd = 0;
  1398  000F02  0E00               	movlw	0
  1399  000F04  6E3C               	movwf	_USBTicksSinceSuspendEnd,c	;volatile
  1400                           
  1401                           ; BSR set to: 2
  1402                           ;usb_device.c: 370: USBDeviceState = DETACHED_STATE;
  1403  000F06  0E00               	movlw	0
  1404  000F08  0100               	movlb	0	; () banked
  1405  000F0A  6F99               	movwf	_USBDeviceState& (0+255),b	;volatile
  1406                           
  1407                           ; BSR set to: 0
  1408  000F0C  0012               	return		;funcret
  1409  000F0E                     __end_of_USBDeviceInit:
  1410                           	opt stack 0
  1411                           tblptru	equ	0xFF8
  1412                           tblptrh	equ	0xFF7
  1413                           tblptrl	equ	0xFF6
  1414                           tablat	equ	0xFF5
  1415                           prodh	equ	0xFF4
  1416                           prodl	equ	0xFF3
  1417                           postinc0	equ	0xFEE
  1418                           wreg	equ	0xFE8
  1419                           postdec1	equ	0xFE5
  1420                           fsr1l	equ	0xFE1
  1421                           indf2	equ	0xFDF
  1422                           postinc2	equ	0xFDE
  1423                           postdec2	equ	0xFDD
  1424                           fsr2h	equ	0xFDA
  1425                           fsr2l	equ	0xFD9
  1426                           
  1427 ;; *************** function _memset *****************
  1428 ;; Defined at:
  1429 ;;		line 8 in file "C:\Program Files (x86)\Microchip\xc8\v1.42\sources\common\memset.c"
  1430 ;; Parameters:    Size  Location     Type
  1431 ;;  p1              2    0[BANK0 ] PTR void 
  1432 ;;		 -> USBAlternateInterface(2), BDT(48), UEP1(1), 
  1433 ;;  c               2    2[BANK0 ] int 
  1434 ;;  n               2    4[BANK0 ] unsigned int 
  1435 ;; Auto vars:     Size  Location     Type
  1436 ;;  p               2    6[BANK0 ] PTR unsigned char 
  1437 ;;		 -> USBAlternateInterface(2), BDT(48), UEP1(1), 
  1438 ;; Return value:  Size  Location     Type
  1439 ;;                  2    0[BANK0 ] PTR void 
  1440 ;; Registers used:
  1441 ;;		wreg, fsr2l, fsr2h, status,2, status,0
  1442 ;; Tracked objects:
  1443 ;;		On entry : 0/0
  1444 ;;		On exit  : 0/0
  1445 ;;		Unchanged: 0/0
  1446 ;; Data sizes:     COMRAM   BANK0   BANK1   BANK2
  1447 ;;      Params:         0       6       0       0
  1448 ;;      Locals:         0       2       0       0
  1449 ;;      Temps:          0       0       0       0
  1450 ;;      Totals:         0       8       0       0
  1451 ;;Total ram usage:        8 bytes
  1452 ;; Hardware stack levels used:    1
  1453 ;; Hardware stack levels required when called:   10
  1454 ;; This function calls:
  1455 ;;		Nothing
  1456 ;; This function is called by:
  1457 ;;		_USBDeviceInit
  1458 ;; This function uses a non-reentrant model
  1459 ;;
  1460                           
  1461                           	psect	text2
  1462  00268A                     __ptext2:
  1463                           	opt stack 0
  1464  00268A                     _memset:
  1465                           	opt stack 19
  1466                           
  1467                           ; BSR set to: 0
  1468                           ;incstack = 0
  1469  00268A  C0A2  F0A8         	movff	memset@p1,memset@p
  1470  00268E  C0A3  F0A9         	movff	memset@p1+1,memset@p+1
  1471  002692  D009               	goto	l5136
  1472  002694                     l5132:
  1473  002694  C0A8  FFD9         	movff	memset@p,fsr2l
  1474  002698  C0A9  FFDA         	movff	memset@p+1,fsr2h
  1475  00269C  C0A4  FFDF         	movff	memset@c,indf2
  1476  0026A0  0100               	movlb	0	; () banked
  1477  0026A2  4BA8               	infsnz	memset@p& (0+255),f,b
  1478  0026A4  2BA9               	incf	(memset@p+1)& (0+255),f,b
  1479  0026A6                     l5136:
  1480  0026A6  0100               	movlb	0	; () banked
  1481  0026A8  07A6               	decf	memset@n& (0+255),f,b
  1482  0026AA  A0D8               	btfss	status,0,c
  1483  0026AC  07A7               	decf	(memset@n+1)& (0+255),f,b
  1484  0026AE  0100               	movlb	0	; () banked
  1485  0026B0  29A6               	incf	memset@n& (0+255),w,b
  1486  0026B2  E1F0               	bnz	l5132
  1487  0026B4  0100               	movlb	0	; () banked
  1488  0026B6  29A7               	incf	(memset@n+1)& (0+255),w,b
  1489  0026B8  B4D8               	btfsc	status,2,c
  1490  0026BA  0012               	return	
  1491  0026BC  D7EB               	goto	l5132
  1492  0026BE                     __end_of_memset:
  1493                           	opt stack 0
  1494                           tblptru	equ	0xFF8
  1495                           tblptrh	equ	0xFF7
  1496                           tblptrl	equ	0xFF6
  1497                           tablat	equ	0xFF5
  1498                           prodh	equ	0xFF4
  1499                           prodl	equ	0xFF3
  1500                           postinc0	equ	0xFEE
  1501                           wreg	equ	0xFE8
  1502                           postdec1	equ	0xFE5
  1503                           fsr1l	equ	0xFE1
  1504                           indf2	equ	0xFDF
  1505                           postinc2	equ	0xFDE
  1506                           postdec2	equ	0xFDD
  1507                           fsr2h	equ	0xFDA
  1508                           fsr2l	equ	0xFD9
  1509                           status	equ	0xFD8
  1510                           
  1511 ;; *************** function _USBDeviceAttach *****************
  1512 ;; Defined at:
  1513 ;;		line 1352 in file "picLibs/usb_device.c"
  1514 ;; Parameters:    Size  Location     Type
  1515 ;;		None
  1516 ;; Auto vars:     Size  Location     Type
  1517 ;;		None
  1518 ;; Return value:  Size  Location     Type
  1519 ;;                  1    wreg      void 
  1520 ;; Registers used:
  1521 ;;		wreg, status,2
  1522 ;; Tracked objects:
  1523 ;;		On entry : 0/0
  1524 ;;		On exit  : 0/0
  1525 ;;		Unchanged: 0/0
  1526 ;; Data sizes:     COMRAM   BANK0   BANK1   BANK2
  1527 ;;      Params:         0       0       0       0
  1528 ;;      Locals:         0       0       0       0
  1529 ;;      Temps:          0       0       0       0
  1530 ;;      Totals:         0       0       0       0
  1531 ;;Total ram usage:        0 bytes
  1532 ;; Hardware stack levels used:    1
  1533 ;; Hardware stack levels required when called:   10
  1534 ;; This function calls:
  1535 ;;		Nothing
  1536 ;; This function is called by:
  1537 ;;		_main
  1538 ;; This function uses a non-reentrant model
  1539 ;;
  1540                           
  1541                           	psect	text3
  1542  0025B2                     __ptext3:
  1543                           	opt stack 0
  1544  0025B2                     _USBDeviceAttach:
  1545                           	opt stack 20
  1546                           
  1547                           ;usb_device.c: 1356: {
  1548                           ;usb_device.c: 1357: if(1 == 1)
  1549                           
  1550                           ; BSR set to: 0
  1551                           ;incstack = 0
  1552  0025B2  0100               	movlb	0	; () banked
  1553  0025B4  5199               	movf	_USBDeviceState& (0+255),w,b	;volatile
  1554  0025B6  A4D8               	btfss	status,2,c
  1555  0025B8  0012               	return	
  1556                           
  1557                           ; BSR set to: 0
  1558                           ;usb_device.c: 1358: {
  1559                           ;usb_device.c: 1360: UCON = 0;
  1560  0025BA  0E00               	movlw	0
  1561  0025BC  6E64               	movwf	3940,c	;volatile
  1562                           
  1563                           ;usb_device.c: 1363: UIE = 0;
  1564  0025BE  0E00               	movlw	0
  1565  0025C0  6E60               	movwf	3936,c	;volatile
  1566                           
  1567                           ;usb_device.c: 1367: { UCFG = 0x10 | 0x00 | 0x04 | 0x02; UEIE = 0x9F; UIE = 0x39 | 0x40 
      +                          | 0x02; };
  1568  0025C2  0E16               	movlw	22
  1569  0025C4  6E61               	movwf	3937,c	;volatile
  1570  0025C6  0E9F               	movlw	159
  1571  0025C8  010F               	movlb	15	; () banked
  1572  0025CA  6F5B               	movwf	91,b	;volatile
  1573  0025CC  0E7B               	movlw	123
  1574  0025CE  6E60               	movwf	3936,c	;volatile
  1575                           
  1576                           ; BSR set to: 15
  1577                           ;usb_device.c: 1369: {RCONbits.IPEN = 1;IPR2bits.USBIP = 1;PIE2bits.USBIE = 1;INTCONbits
      +                          .GIEH = 1;};
  1578  0025D0  8ED0               	bsf	4048,7,c	;volatile
  1579                           
  1580                           ; BSR set to: 15
  1581  0025D2  84A2               	bsf	4002,2,c	;volatile
  1582                           
  1583                           ; BSR set to: 15
  1584  0025D4  84A0               	bsf	4000,2,c	;volatile
  1585                           
  1586                           ; BSR set to: 15
  1587  0025D6  8EF2               	bsf	intcon,7,c	;volatile
  1588                           
  1589                           ;usb_device.c: 1372: while(!UCONbits.USBEN){UCONbits.USBEN = 1;}
  1590  0025D8  D001               	goto	l457
  1591  0025DA                     l458:
  1592  0025DA  8664               	bsf	3940,3,c	;volatile
  1593  0025DC                     l457:
  1594  0025DC  A664               	btfss	3940,3,c	;volatile
  1595  0025DE  D7FD               	goto	l458
  1596                           
  1597                           ;usb_device.c: 1375: USBDeviceState = ATTACHED_STATE;
  1598  0025E0  0E01               	movlw	1
  1599  0025E2  0100               	movlb	0	; () banked
  1600  0025E4  6F99               	movwf	_USBDeviceState& (0+255),b	;volatile
  1601                           
  1602                           ; BSR set to: 0
  1603  0025E6  0012               	return	
  1604  0025E8                     __end_of_USBDeviceAttach:
  1605                           	opt stack 0
  1606                           tblptru	equ	0xFF8
  1607                           tblptrh	equ	0xFF7
  1608                           tblptrl	equ	0xFF6
  1609                           tablat	equ	0xFF5
  1610                           prodh	equ	0xFF4
  1611                           prodl	equ	0xFF3
  1612                           intcon	equ	0xFF2
  1613                           postinc0	equ	0xFEE
  1614                           wreg	equ	0xFE8
  1615                           postdec1	equ	0xFE5
  1616                           fsr1l	equ	0xFE1
  1617                           indf2	equ	0xFDF
  1618                           postinc2	equ	0xFDE
  1619                           postdec2	equ	0xFDD
  1620                           fsr2h	equ	0xFDA
  1621                           fsr2l	equ	0xFD9
  1622                           status	equ	0xFD8
  1623                           
  1624 ;; *************** function _SYSTEM_Initialize *****************
  1625 ;; Defined at:
  1626 ;;		line 66 in file "picLibs/system.c"
  1627 ;; Parameters:    Size  Location     Type
  1628 ;;  state           1    wreg     enum E3329
  1629 ;; Auto vars:     Size  Location     Type
  1630 ;;  state           1    1[BANK0 ] enum E3329
  1631 ;; Return value:  Size  Location     Type
  1632 ;;                  1    wreg      void 
  1633 ;; Registers used:
  1634 ;;		wreg, status,2, status,0, cstack
  1635 ;; Tracked objects:
  1636 ;;		On entry : 0/0
  1637 ;;		On exit  : 0/0
  1638 ;;		Unchanged: 0/0
  1639 ;; Data sizes:     COMRAM   BANK0   BANK1   BANK2
  1640 ;;      Params:         0       0       0       0
  1641 ;;      Locals:         0       1       0       0
  1642 ;;      Temps:          0       0       0       0
  1643 ;;      Totals:         0       1       0       0
  1644 ;;Total ram usage:        1 bytes
  1645 ;; Hardware stack levels used:    1
  1646 ;; Hardware stack levels required when called:   11
  1647 ;; This function calls:
  1648 ;;		_BUTTON_Enable
  1649 ;;		_LED_Enable
  1650 ;; This function is called by:
  1651 ;;		_main
  1652 ;; This function uses a non-reentrant model
  1653 ;;
  1654                           
  1655                           	psect	text4
  1656  0027A2                     __ptext4:
  1657                           	opt stack 0
  1658  0027A2                     _SYSTEM_Initialize:
  1659                           	opt stack 19
  1660                           
  1661                           ; BSR set to: 0
  1662                           ;incstack = 0
  1663                           ;SYSTEM_Initialize@state stored from wreg
  1664  0027A2  0100               	movlb	0	; () banked
  1665  0027A4  6FA3               	movwf	SYSTEM_Initialize@state& (0+255),b
  1666                           
  1667                           ;system.c: 68: switch(state)
  1668  0027A6  D007               	goto	l5192
  1669  0027A8                     l5188:
  1670                           
  1671                           ;system.c: 71: LED_Enable(LED_D1);
  1672  0027A8  0E01               	movlw	1
  1673  0027AA  ECA1  F012         	call	_LED_Enable
  1674                           
  1675                           ;system.c: 72: BUTTON_Enable(BUTTON_S1);
  1676  0027AE  0E01               	movlw	1
  1677  0027B0  EC34  F014         	call	_BUTTON_Enable
  1678                           
  1679                           ;system.c: 80: }
  1680                           
  1681                           ;system.c: 79: break;
  1682                           
  1683                           ;system.c: 78: case SYSTEM_STATE_USB_RESUME:
  1684                           
  1685                           ;system.c: 76: break;
  1686                           
  1687                           ;system.c: 75: case SYSTEM_STATE_USB_SUSPEND:
  1688                           
  1689                           ;system.c: 73: break;
  1690  0027B4  0012               	return	
  1691  0027B6                     l5192:
  1692  0027B6  0100               	movlb	0	; () banked
  1693  0027B8  51A3               	movf	SYSTEM_Initialize@state& (0+255),w,b
  1694                           
  1695                           ; Switch size 1, requested type "space"
  1696                           ; Number of cases is 3, Range of values is 0 to 2
  1697                           ; switch strategies available:
  1698                           ; Name         Instructions Cycles
  1699                           ; simple_byte           10     6 (average)
  1700                           ;	Chosen strategy is simple_byte
  1701  0027BA  0A00               	xorlw	0	; case 0
  1702  0027BC  B4D8               	btfsc	status,2,c
  1703  0027BE  D7F4               	goto	l5188
  1704  0027C0  0A01               	xorlw	1	; case 1
  1705  0027C2  B4D8               	btfsc	status,2,c
  1706  0027C4  0012               	return	
  1707  0027C6  0A03               	xorlw	3	; case 2
  1708  0027C8  0012               	return	
  1709  0027CA                     __end_of_SYSTEM_Initialize:
  1710                           	opt stack 0
  1711                           tblptru	equ	0xFF8
  1712                           tblptrh	equ	0xFF7
  1713                           tblptrl	equ	0xFF6
  1714                           tablat	equ	0xFF5
  1715                           prodh	equ	0xFF4
  1716                           prodl	equ	0xFF3
  1717                           intcon	equ	0xFF2
  1718                           postinc0	equ	0xFEE
  1719                           wreg	equ	0xFE8
  1720                           postdec1	equ	0xFE5
  1721                           fsr1l	equ	0xFE1
  1722                           indf2	equ	0xFDF
  1723                           postinc2	equ	0xFDE
  1724                           postdec2	equ	0xFDD
  1725                           fsr2h	equ	0xFDA
  1726                           fsr2l	equ	0xFD9
  1727                           status	equ	0xFD8
  1728                           
  1729 ;; *************** function _LED_Enable *****************
  1730 ;; Defined at:
  1731 ;;		line 220 in file "picLibs/leds.c"
  1732 ;; Parameters:    Size  Location     Type
  1733 ;;  led             1    wreg     enum E2
  1734 ;; Auto vars:     Size  Location     Type
  1735 ;;  led             1    0[BANK0 ] enum E2
  1736 ;; Return value:  Size  Location     Type
  1737 ;;                  1    wreg      void 
  1738 ;; Registers used:
  1739 ;;		wreg, status,2, status,0
  1740 ;; Tracked objects:
  1741 ;;		On entry : 0/0
  1742 ;;		On exit  : 0/0
  1743 ;;		Unchanged: 0/0
  1744 ;; Data sizes:     COMRAM   BANK0   BANK1   BANK2
  1745 ;;      Params:         0       0       0       0
  1746 ;;      Locals:         0       1       0       0
  1747 ;;      Temps:          0       0       0       0
  1748 ;;      Totals:         0       1       0       0
  1749 ;;Total ram usage:        1 bytes
  1750 ;; Hardware stack levels used:    1
  1751 ;; Hardware stack levels required when called:   10
  1752 ;; This function calls:
  1753 ;;		Nothing
  1754 ;; This function is called by:
  1755 ;;		_SYSTEM_Initialize
  1756 ;; This function uses a non-reentrant model
  1757 ;;
  1758                           
  1759                           	psect	text5
  1760  002542                     __ptext5:
  1761                           	opt stack 0
  1762  002542                     _LED_Enable:
  1763                           	opt stack 19
  1764                           
  1765                           ;incstack = 0
  1766                           ;LED_Enable@led stored from wreg
  1767  002542  0100               	movlb	0	; () banked
  1768  002544  6FA2               	movwf	LED_Enable@led& (0+255),b
  1769                           
  1770                           ;leds.c: 222: switch(led)
  1771  002546  D008               	goto	l5128
  1772  002548                     l218:
  1773                           
  1774                           ; BSR set to: 0
  1775                           ;leds.c: 225: TRISCbits.TRISC0 = 0;
  1776  002548  9094               	bcf	3988,0,c	;volatile
  1777                           
  1778                           ;leds.c: 226: break;
  1779  00254A  0012               	return	
  1780  00254C                     l220:
  1781                           
  1782                           ; BSR set to: 0
  1783                           ;leds.c: 229: TRISCbits.TRISC1 = 0;
  1784  00254C  9294               	bcf	3988,1,c	;volatile
  1785                           
  1786                           ;leds.c: 230: break;
  1787  00254E  0012               	return	
  1788  002550                     l221:
  1789                           
  1790                           ; BSR set to: 0
  1791                           ;leds.c: 233: TRISCbits.TRISC2 = 0;
  1792  002550  9494               	bcf	3988,2,c	;volatile
  1793                           
  1794                           ;leds.c: 234: break;
  1795  002552  0012               	return	
  1796  002554                     l222:
  1797                           
  1798                           ; BSR set to: 0
  1799                           ;leds.c: 237: TRISCbits.TRISC3 = 0;
  1800  002554  9694               	bcf	3988,3,c	;volatile
  1801                           
  1802                           ; BSR set to: 0
  1803                           ;leds.c: 242: }
  1804                           
  1805                           ; BSR set to: 0
  1806                           ;leds.c: 241: break;
  1807                           
  1808                           ;leds.c: 240: case LED_NONE:
  1809                           
  1810                           ;leds.c: 238: break;
  1811  002556  0012               	return	
  1812  002558                     l5128:
  1813  002558  0100               	movlb	0	; () banked
  1814  00255A  51A2               	movf	LED_Enable@led& (0+255),w,b
  1815                           
  1816                           ; Switch size 1, requested type "space"
  1817                           ; Number of cases is 5, Range of values is 0 to 4
  1818                           ; switch strategies available:
  1819                           ; Name         Instructions Cycles
  1820                           ; simple_byte           16     9 (average)
  1821                           ;	Chosen strategy is simple_byte
  1822  00255C  0A00               	xorlw	0	; case 0
  1823  00255E  B4D8               	btfsc	status,2,c
  1824  002560  0012               	return	
  1825  002562  0A01               	xorlw	1	; case 1
  1826  002564  B4D8               	btfsc	status,2,c
  1827  002566  D7F0               	goto	l218
  1828  002568  0A03               	xorlw	3	; case 2
  1829  00256A  B4D8               	btfsc	status,2,c
  1830  00256C  D7EF               	goto	l220
  1831  00256E  0A01               	xorlw	1	; case 3
  1832  002570  B4D8               	btfsc	status,2,c
  1833  002572  D7EE               	goto	l221
  1834  002574  0A07               	xorlw	7	; case 4
  1835  002576  A4D8               	btfss	status,2,c
  1836  002578  0012               	return	
  1837  00257A  D7EC               	goto	l222
  1838  00257C                     __end_of_LED_Enable:
  1839                           	opt stack 0
  1840                           tblptru	equ	0xFF8
  1841                           tblptrh	equ	0xFF7
  1842                           tblptrl	equ	0xFF6
  1843                           tablat	equ	0xFF5
  1844                           prodh	equ	0xFF4
  1845                           prodl	equ	0xFF3
  1846                           intcon	equ	0xFF2
  1847                           postinc0	equ	0xFEE
  1848                           wreg	equ	0xFE8
  1849                           postdec1	equ	0xFE5
  1850                           fsr1l	equ	0xFE1
  1851                           indf2	equ	0xFDF
  1852                           postinc2	equ	0xFDE
  1853                           postdec2	equ	0xFDD
  1854                           fsr2h	equ	0xFDA
  1855                           fsr2l	equ	0xFD9
  1856                           status	equ	0xFD8
  1857                           
  1858 ;; *************** function _BUTTON_Enable *****************
  1859 ;; Defined at:
  1860 ;;		line 85 in file "picLibs/buttons.c"
  1861 ;; Parameters:    Size  Location     Type
  1862 ;;  button          1    wreg     enum E3304
  1863 ;; Auto vars:     Size  Location     Type
  1864 ;;  button          1    0[BANK0 ] enum E3304
  1865 ;; Return value:  Size  Location     Type
  1866 ;;                  1    wreg      void 
  1867 ;; Registers used:
  1868 ;;		wreg, status,2, status,0
  1869 ;; Tracked objects:
  1870 ;;		On entry : 0/0
  1871 ;;		On exit  : 0/0
  1872 ;;		Unchanged: 0/0
  1873 ;; Data sizes:     COMRAM   BANK0   BANK1   BANK2
  1874 ;;      Params:         0       0       0       0
  1875 ;;      Locals:         0       1       0       0
  1876 ;;      Temps:          0       0       0       0
  1877 ;;      Totals:         0       1       0       0
  1878 ;;Total ram usage:        1 bytes
  1879 ;; Hardware stack levels used:    1
  1880 ;; Hardware stack levels required when called:   10
  1881 ;; This function calls:
  1882 ;;		Nothing
  1883 ;; This function is called by:
  1884 ;;		_SYSTEM_Initialize
  1885 ;; This function uses a non-reentrant model
  1886 ;;
  1887                           
  1888                           	psect	text6
  1889  002868                     __ptext6:
  1890                           	opt stack 0
  1891  002868                     _BUTTON_Enable:
  1892                           	opt stack 19
  1893                           
  1894                           ; BSR set to: 0
  1895                           ;incstack = 0
  1896                           ;BUTTON_Enable@button stored from wreg
  1897  002868  0100               	movlb	0	; () banked
  1898  00286A  6FA2               	movwf	BUTTON_Enable@button& (0+255),b
  1899                           
  1900                           ;buttons.c: 94: }
  1901                           
  1902                           ;buttons.c: 93: break;
  1903                           
  1904                           ;buttons.c: 92: case BUTTON_NONE:
  1905                           
  1906                           ;buttons.c: 90: break;
  1907                           
  1908                           ;buttons.c: 88: {
  1909                           ;buttons.c: 89: case BUTTON_S1:
  1910                           
  1911                           ;buttons.c: 87: switch(button)
  1912  00286C  0100               	movlb	0	; () banked
  1913  00286E  51A2               	movf	BUTTON_Enable@button& (0+255),w,b
  1914                           
  1915                           ; Switch size 1, requested type "space"
  1916                           ; Number of cases is 2, Range of values is 0 to 1
  1917                           ; switch strategies available:
  1918                           ; Name         Instructions Cycles
  1919                           ; simple_byte            7     4 (average)
  1920                           ;	Chosen strategy is simple_byte
  1921  002870  0A00               	xorlw	0	; case 0
  1922  002872  B4D8               	btfsc	status,2,c
  1923  002874  0012               	return	
  1924  002876  0A01               	xorlw	1	; case 1
  1925  002878  0012               	return	
  1926  00287A                     __end_of_BUTTON_Enable:
  1927                           	opt stack 0
  1928                           tblptru	equ	0xFF8
  1929                           tblptrh	equ	0xFF7
  1930                           tblptrl	equ	0xFF6
  1931                           tablat	equ	0xFF5
  1932                           prodh	equ	0xFF4
  1933                           prodl	equ	0xFF3
  1934                           intcon	equ	0xFF2
  1935                           postinc0	equ	0xFEE
  1936                           wreg	equ	0xFE8
  1937                           postdec1	equ	0xFE5
  1938                           fsr1l	equ	0xFE1
  1939                           indf2	equ	0xFDF
  1940                           postinc2	equ	0xFDE
  1941                           postdec2	equ	0xFDD
  1942                           fsr2h	equ	0xFDA
  1943                           fsr2l	equ	0xFD9
  1944                           status	equ	0xFD8
  1945                           
  1946 ;; *************** function _APP_DeviceCDCBasicDemoTasks *****************
  1947 ;; Defined at:
  1948 ;;		line 77 in file "picLibs/app_device_cdc_basic.c"
  1949 ;; Parameters:    Size  Location     Type
  1950 ;;		None
  1951 ;; Auto vars:     Size  Location     Type
  1952 ;;  eepromAddres    4   30[BANK0 ] struct _DWORD_VAL
  1953 ;;  eepromAddres    4   26[BANK0 ] struct _DWORD_VAL
  1954 ;;  i               1   35[BANK0 ] unsigned char 
  1955 ;;  numBytesRead    1   34[BANK0 ] unsigned char 
  1956 ;; Return value:  Size  Location     Type
  1957 ;;                  1    wreg      void 
  1958 ;; Registers used:
  1959 ;;		wreg, fsr1l, fsr1h, fsr2l, fsr2h, status,2, status,0, tblptrl, tblptrh, tblptru, prodl, prodh, cstack
  1960 ;; Tracked objects:
  1961 ;;		On entry : 0/0
  1962 ;;		On exit  : 0/0
  1963 ;;		Unchanged: 0/0
  1964 ;; Data sizes:     COMRAM   BANK0   BANK1   BANK2
  1965 ;;      Params:         0       0       0       0
  1966 ;;      Locals:         0      10       0       0
  1967 ;;      Temps:          0       4       0       0
  1968 ;;      Totals:         0      14       0       0
  1969 ;;Total ram usage:       14 bytes
  1970 ;; Hardware stack levels used:    1
  1971 ;; Hardware stack levels required when called:   14
  1972 ;; This function calls:
  1973 ;;		_BUTTON_IsPressed
  1974 ;;		_CDCTxService
  1975 ;;		_getsUSBUSART
  1976 ;;		_putUSBUSART
  1977 ;;		_putrsUSBUSART
  1978 ;;		_readEepromByte
  1979 ;;		_writeEepromByte
  1980 ;; This function is called by:
  1981 ;;		_main
  1982 ;; This function uses a non-reentrant model
  1983 ;;
  1984                           
  1985                           	psect	text7
  1986  0008FA                     __ptext7:
  1987                           	opt stack 0
  1988  0008FA                     _APP_DeviceCDCBasicDemoTasks:
  1989                           	opt stack 16
  1990                           
  1991                           ;app_device_cdc_basic.c: 82: if( USBDeviceState < CONFIGURED_STATE )
  1992                           
  1993                           ;incstack = 0
  1994  0008FA  0E20               	movlw	32
  1995  0008FC  0100               	movlb	0	; () banked
  1996  0008FE  6199               	cpfslt	_USBDeviceState& (0+255),b	;volatile
  1997  000900  D001               	goto	l109
  1998  000902  0012               	return	
  1999  000904                     l109:
  2000                           
  2001                           ; BSR set to: 0
  2002                           ;app_device_cdc_basic.c: 85: }
  2003                           ;app_device_cdc_basic.c: 91: if( UCONbits.SUSPND== 1 )
  2004  000904  B264               	btfsc	3940,1,c	;volatile
  2005  000906  0012               	return	
  2006                           
  2007                           ; BSR set to: 0
  2008                           ;app_device_cdc_basic.c: 94: }
  2009                           ;app_device_cdc_basic.c: 99: if(BUTTON_IsPressed(BUTTON_S1) == 1)
  2010                           
  2011                           ; BSR set to: 0
  2012                           
  2013                           ; BSR set to: 0
  2014                           ;app_device_cdc_basic.c: 92: {
  2015                           ;app_device_cdc_basic.c: 93: return;
  2016  000908  0E01               	movlw	1
  2017  00090A  ECBC  F013         	call	_BUTTON_IsPressed
  2018  00090E  06E8               	decf	wreg,f,c
  2019  000910  A4D8               	btfss	status,2,c
  2020  000912  D012               	goto	l5154
  2021                           
  2022                           ;app_device_cdc_basic.c: 100: {
  2023                           ;app_device_cdc_basic.c: 104: if(buttonPressed == 0)
  2024  000914  0100               	movlb	0	; () banked
  2025  000916  5197               	movf	_buttonPressed& (0+255),w,b
  2026  000918  A4D8               	btfss	status,2,c
  2027  00091A  D011               	goto	l115
  2028                           
  2029                           ; BSR set to: 0
  2030                           ;app_device_cdc_basic.c: 105: {
  2031                           ;app_device_cdc_basic.c: 108: if((cdc_trf_state == 0) == 1)
  2032  00091C  0100               	movlb	0	; () banked
  2033  00091E  5198               	movf	_cdc_trf_state& (0+255),w,b
  2034  000920  A4D8               	btfss	status,2,c
  2035  000922  D00D               	goto	l115
  2036                           
  2037                           ; BSR set to: 0
  2038                           ;app_device_cdc_basic.c: 109: {
  2039                           ;app_device_cdc_basic.c: 110: putrsUSBUSART(buttonMessage);
  2040  000924  0EC8               	movlw	low _buttonMessage
  2041  000926  0100               	movlb	0	; () banked
  2042  000928  6FA2               	movwf	putrsUSBUSART@data& (0+255),b
  2043  00092A  0E00               	movlw	high _buttonMessage
  2044  00092C  0100               	movlb	0	; () banked
  2045  00092E  6FA3               	movwf	(putrsUSBUSART@data+1)& (0+255),b
  2046  000930  EC73  F011         	call	_putrsUSBUSART	;wreg free
  2047                           
  2048                           ;app_device_cdc_basic.c: 111: buttonPressed = 1;
  2049  000934  0E01               	movlw	1
  2050  000936  D001               	goto	L18
  2051  000938                     l5154:
  2052                           
  2053                           ;app_device_cdc_basic.c: 115: else
  2054                           ;app_device_cdc_basic.c: 116: {
  2055                           ;app_device_cdc_basic.c: 120: buttonPressed = 0;
  2056  000938  0E00               	movlw	0
  2057  00093A                     L18:
  2058  00093A  0100               	movlb	0	; () banked
  2059  00093C  6F97               	movwf	_buttonPressed& (0+255),b
  2060  00093E                     l115:
  2061                           
  2062                           ; BSR set to: 0
  2063                           ;app_device_cdc_basic.c: 121: }
  2064                           ;app_device_cdc_basic.c: 126: if( (cdc_trf_state == 0) == 1)
  2065  00093E  0100               	movlb	0	; () banked
  2066  000940  5198               	movf	_cdc_trf_state& (0+255),w,b
  2067  000942  A4D8               	btfss	status,2,c
  2068  000944  D0AB               	goto	l5184
  2069                           
  2070                           ; BSR set to: 0
  2071                           ;app_device_cdc_basic.c: 127: {
  2072                           ;app_device_cdc_basic.c: 128: uint8_t i;
  2073                           ;app_device_cdc_basic.c: 129: uint8_t numBytesRead;
  2074                           ;app_device_cdc_basic.c: 131: numBytesRead = getsUSBUSART(readBuffer, sizeof(readBuffer)
      +                          );
  2075  000946  0E40               	movlw	low _readBuffer
  2076  000948  0100               	movlb	0	; () banked
  2077  00094A  6FAD               	movwf	getsUSBUSART@buffer& (0+255),b
  2078  00094C  0E01               	movlw	high _readBuffer
  2079  00094E  0100               	movlb	0	; () banked
  2080  000950  6FAE               	movwf	(getsUSBUSART@buffer+1)& (0+255),b
  2081  000952  0E40               	movlw	64
  2082  000954  0100               	movlb	0	; () banked
  2083  000956  6FAF               	movwf	getsUSBUSART@len& (0+255),b
  2084  000958  ECFF  F00E         	call	_getsUSBUSART	;wreg free
  2085  00095C  0100               	movlb	0	; () banked
  2086  00095E  6FC4               	movwf	APP_DeviceCDCBasicDemoTasks@numBytesRead& (0+255),b
  2087                           
  2088                           ; BSR set to: 0
  2089                           ;app_device_cdc_basic.c: 134: for(i=0; i<numBytesRead; i++)
  2090  000960  0E00               	movlw	0
  2091  000962  0100               	movlb	0	; () banked
  2092  000964  6FC5               	movwf	APP_DeviceCDCBasicDemoTasks@i& (0+255),b
  2093  000966  D085               	goto	l5178
  2094  000968                     l5160:
  2095                           
  2096                           ; BSR set to: 0
  2097                           ;app_device_cdc_basic.c: 142: case 0x0D:
  2098                           ;app_device_cdc_basic.c: 143: writeBuffer[i] = readBuffer[i];
  2099  000968  0100               	movlb	0	; () banked
  2100  00096A  51C5               	movf	APP_DeviceCDCBasicDemoTasks@i& (0+255),w,b
  2101  00096C  0D01               	mullw	1
  2102  00096E  0E40               	movlw	low _readBuffer
  2103  000970  24F3               	addwf	prodl,w,c
  2104  000972  6ED9               	movwf	fsr2l,c
  2105  000974  0E01               	movlw	high _readBuffer
  2106  000976  20F4               	addwfc	prodh,w,c
  2107  000978  6EDA               	movwf	fsr2h,c
  2108  00097A  0100               	movlb	0	; () banked
  2109  00097C  51C5               	movf	APP_DeviceCDCBasicDemoTasks@i& (0+255),w,b
  2110  00097E  0D01               	mullw	1
  2111  000980  0E00               	movlw	low _writeBuffer
  2112  000982  24F3               	addwf	prodl,w,c
  2113  000984  6EE1               	movwf	fsr1l,c
  2114  000986  0E01               	movlw	high _writeBuffer
  2115  000988  20F4               	addwfc	prodh,w,c
  2116  00098A  6EE2               	movwf	fsr1h,c
  2117  00098C  CFDF FFE7          	movff	indf2,indf1
  2118                           
  2119                           ;app_device_cdc_basic.c: 144: break;
  2120  000990  D06E               	goto	l5176
  2121  000992                     l5162:
  2122                           
  2123                           ; BSR set to: 0
  2124                           ;app_device_cdc_basic.c: 146: putrsUSBUSART("A pressed\n\r");
  2125  000992  0ECA               	movlw	low STR_1
  2126  000994  0100               	movlb	0	; () banked
  2127  000996  6FA2               	movwf	putrsUSBUSART@data& (0+255),b
  2128  000998  0E03               	movlw	high STR_1
  2129  00099A  0100               	movlb	0	; () banked
  2130  00099C  6FA3               	movwf	(putrsUSBUSART@data+1)& (0+255),b
  2131  00099E  EC73  F011         	call	_putrsUSBUSART	;wreg free
  2132                           
  2133                           ;app_device_cdc_basic.c: 147: MEMORY_ADDRESS eepromAddress;
  2134                           ;app_device_cdc_basic.c: 148: eepromAddress.Val = 0x00;
  2135  0009A2  0E00               	movlw	0
  2136  0009A4  0100               	movlb	0	; () banked
  2137  0009A6  6FBC               	movwf	APP_DeviceCDCBasicDemoTasks@eepromAddress& (0+255),b
  2138  0009A8  0E00               	movlw	0
  2139  0009AA  6FBD               	movwf	(APP_DeviceCDCBasicDemoTasks@eepromAddress+1)& (0+255),b
  2140  0009AC  0E00               	movlw	0
  2141  0009AE  6FBE               	movwf	(APP_DeviceCDCBasicDemoTasks@eepromAddress+2)& (0+255),b
  2142  0009B0  0E00               	movlw	0
  2143  0009B2  6FBF               	movwf	(APP_DeviceCDCBasicDemoTasks@eepromAddress+3)& (0+255),b
  2144                           
  2145                           ; BSR set to: 0
  2146                           ;app_device_cdc_basic.c: 149: writeEepromByte(eepromAddress, 7);
  2147  0009B4  C0BC  F0AE         	movff	APP_DeviceCDCBasicDemoTasks@eepromAddress,writeEepromByte@address
  2148  0009B8  C0BD  F0AF         	movff	APP_DeviceCDCBasicDemoTasks@eepromAddress+1,writeEepromByte@address+1
  2149  0009BC  C0BE  F0B0         	movff	APP_DeviceCDCBasicDemoTasks@eepromAddress+2,writeEepromByte@address+2
  2150  0009C0  C0BF  F0B1         	movff	APP_DeviceCDCBasicDemoTasks@eepromAddress+3,writeEepromByte@address+3
  2151  0009C4  0E07               	movlw	7
  2152  0009C6  0100               	movlb	0	; () banked
  2153  0009C8  6FB2               	movwf	writeEepromByte@data& (0+255),b
  2154  0009CA  EC3D  F003         	call	_writeEepromByte	;wreg free
  2155                           
  2156                           ;app_device_cdc_basic.c: 150: break;
  2157  0009CE  D04F               	goto	l5176
  2158  0009D0                     l5168:
  2159                           
  2160                           ;app_device_cdc_basic.c: 153: MEMORY_ADDRESS eepromAddress;
  2161                           ;app_device_cdc_basic.c: 154: eepromAddress.Val = readBuffer[i]-0x30;
  2162  0009D0  0ED0               	movlw	208
  2163  0009D2  0100               	movlb	0	; () banked
  2164  0009D4  6FB8               	movwf	??_APP_DeviceCDCBasicDemoTasks& (0+255),b
  2165  0009D6  0EFF               	movlw	255
  2166  0009D8  0100               	movlb	0	; () banked
  2167  0009DA  6FB9               	movwf	(??_APP_DeviceCDCBasicDemoTasks+1)& (0+255),b
  2168  0009DC  0100               	movlb	0	; () banked
  2169  0009DE  51C5               	movf	APP_DeviceCDCBasicDemoTasks@i& (0+255),w,b
  2170  0009E0  0D01               	mullw	1
  2171  0009E2  0E40               	movlw	low _readBuffer
  2172  0009E4  24F3               	addwf	prodl,w,c
  2173  0009E6  6ED9               	movwf	fsr2l,c
  2174  0009E8  0E01               	movlw	high _readBuffer
  2175  0009EA  20F4               	addwfc	prodh,w,c
  2176  0009EC  6EDA               	movwf	fsr2h,c
  2177  0009EE  50DF               	movf	indf2,w,c
  2178  0009F0  0100               	movlb	0	; () banked
  2179  0009F2  6FBA               	movwf	(??_APP_DeviceCDCBasicDemoTasks+2)& (0+255),b
  2180  0009F4  6BBB               	clrf	(??_APP_DeviceCDCBasicDemoTasks+3)& (0+255),b
  2181  0009F6  0100               	movlb	0	; () banked
  2182  0009F8  51B8               	movf	??_APP_DeviceCDCBasicDemoTasks& (0+255),w,b
  2183  0009FA  0100               	movlb	0	; () banked
  2184  0009FC  27BA               	addwf	(??_APP_DeviceCDCBasicDemoTasks+2)& (0+255),f,b
  2185  0009FE  0100               	movlb	0	; () banked
  2186  000A00  51B9               	movf	(??_APP_DeviceCDCBasicDemoTasks+1)& (0+255),w,b
  2187  000A02  0100               	movlb	0	; () banked
  2188  000A04  23BB               	addwfc	(??_APP_DeviceCDCBasicDemoTasks+3)& (0+255),f,b
  2189  000A06  C0BA  F0C0         	movff	??_APP_DeviceCDCBasicDemoTasks+2,APP_DeviceCDCBasicDemoTasks@eepromAddress_1011
  2190  000A0A  C0BB  F0C1         	movff	??_APP_DeviceCDCBasicDemoTasks+3,APP_DeviceCDCBasicDemoTasks@eepromAddress_1011+1
  2191  000A0E  0100               	movlb	0	; () banked
  2192  000A10  0E00               	movlw	0
  2193  000A12  BFC1               	btfsc	(APP_DeviceCDCBasicDemoTasks@eepromAddress_1011+1)& (0+255),7,b
  2194  000A14  0EFF               	movlw	-1
  2195  000A16  6FC2               	movwf	(APP_DeviceCDCBasicDemoTasks@eepromAddress_1011+2)& (0+255),b
  2196  000A18  6FC3               	movwf	(APP_DeviceCDCBasicDemoTasks@eepromAddress_1011+3)& (0+255),b
  2197                           
  2198                           ; BSR set to: 0
  2199                           ;app_device_cdc_basic.c: 155: writeBuffer[i] = readEepromByte(eepromAddress)+0x30;
  2200  000A1A  0100               	movlb	0	; () banked
  2201  000A1C  51C5               	movf	APP_DeviceCDCBasicDemoTasks@i& (0+255),w,b
  2202  000A1E  0D01               	mullw	1
  2203  000A20  0E00               	movlw	low _writeBuffer
  2204  000A22  24F3               	addwf	prodl,w,c
  2205  000A24  6ED9               	movwf	fsr2l,c
  2206  000A26  0E01               	movlw	high _writeBuffer
  2207  000A28  20F4               	addwfc	prodh,w,c
  2208  000A2A  6EDA               	movwf	fsr2h,c
  2209  000A2C  C0C0  F0AE         	movff	APP_DeviceCDCBasicDemoTasks@eepromAddress_1011,readEepromByte@address
  2210  000A30  C0C1  F0AF         	movff	APP_DeviceCDCBasicDemoTasks@eepromAddress_1011+1,readEepromByte@address+1
  2211  000A34  C0C2  F0B0         	movff	APP_DeviceCDCBasicDemoTasks@eepromAddress_1011+2,readEepromByte@address+2
  2212  000A38  C0C3  F0B1         	movff	APP_DeviceCDCBasicDemoTasks@eepromAddress_1011+3,readEepromByte@address+3
  2213  000A3C  EC14  F006         	call	_readEepromByte	;wreg free
  2214  000A40  0F30               	addlw	48
  2215  000A42  6EDF               	movwf	indf2,c
  2216                           
  2217                           ;app_device_cdc_basic.c: 157: }
  2218                           ;app_device_cdc_basic.c: 166: }
  2219                           
  2220                           ;app_device_cdc_basic.c: 156: break;
  2221  000A44  D014               	goto	l5176
  2222  000A46                     l5174:
  2223  000A46  0100               	movlb	0	; () banked
  2224  000A48  51C5               	movf	APP_DeviceCDCBasicDemoTasks@i& (0+255),w,b
  2225  000A4A  0D01               	mullw	1
  2226  000A4C  0E40               	movlw	low _readBuffer
  2227  000A4E  24F3               	addwf	prodl,w,c
  2228  000A50  6ED9               	movwf	fsr2l,c
  2229  000A52  0E01               	movlw	high _readBuffer
  2230  000A54  20F4               	addwfc	prodh,w,c
  2231  000A56  6EDA               	movwf	fsr2h,c
  2232  000A58  50DF               	movf	indf2,w,c
  2233                           
  2234                           ; Switch size 1, requested type "space"
  2235                           ; Number of cases is 3, Range of values is 10 to 65
  2236                           ; switch strategies available:
  2237                           ; Name         Instructions Cycles
  2238                           ; simple_byte           10     6 (average)
  2239                           ;	Chosen strategy is simple_byte
  2240  000A5A  0A0A               	xorlw	10	; case 10
  2241  000A5C  B4D8               	btfsc	status,2,c
  2242  000A5E  D784               	goto	l5160
  2243  000A60  0A07               	xorlw	7	; case 13
  2244  000A62  B4D8               	btfsc	status,2,c
  2245  000A64  D781               	goto	l5160
  2246  000A66  0A4C               	xorlw	76	; case 65
  2247  000A68  B4D8               	btfsc	status,2,c
  2248  000A6A  D793               	goto	l5162
  2249  000A6C  D7B1               	goto	l5168
  2250  000A6E                     l5176:
  2251  000A6E  0100               	movlb	0	; () banked
  2252  000A70  2BC5               	incf	APP_DeviceCDCBasicDemoTasks@i& (0+255),f,b
  2253  000A72                     l5178:
  2254                           
  2255                           ; BSR set to: 0
  2256  000A72  0100               	movlb	0	; () banked
  2257  000A74  51C4               	movf	APP_DeviceCDCBasicDemoTasks@numBytesRead& (0+255),w,b
  2258  000A76  0100               	movlb	0	; () banked
  2259  000A78  5DC5               	subwf	APP_DeviceCDCBasicDemoTasks@i& (0+255),w,b
  2260  000A7A  A0D8               	btfss	status,0,c
  2261  000A7C  D7E4               	goto	l5174
  2262                           
  2263                           ; BSR set to: 0
  2264                           ;app_device_cdc_basic.c: 167: }
  2265                           ;app_device_cdc_basic.c: 169: if(numBytesRead > 0)
  2266                           
  2267                           ; BSR set to: 0
  2268  000A7E  0100               	movlb	0	; () banked
  2269  000A80  51C4               	movf	APP_DeviceCDCBasicDemoTasks@numBytesRead& (0+255),w,b
  2270  000A82  0100               	movlb	0	; () banked
  2271  000A84  B4D8               	btfsc	status,2,c
  2272  000A86  D00A               	goto	l5184
  2273                           
  2274                           ; BSR set to: 0
  2275                           ;app_device_cdc_basic.c: 170: {
  2276                           ;app_device_cdc_basic.c: 174: putUSBUSART(writeBuffer,numBytesRead);
  2277  000A88  0E00               	movlw	low _writeBuffer
  2278  000A8A  0100               	movlb	0	; () banked
  2279  000A8C  6FA2               	movwf	putUSBUSART@data& (0+255),b
  2280  000A8E  0E01               	movlw	high _writeBuffer
  2281  000A90  0100               	movlb	0	; () banked
  2282  000A92  6FA3               	movwf	(putUSBUSART@data+1)& (0+255),b
  2283  000A94  C0C4  F0A4         	movff	APP_DeviceCDCBasicDemoTasks@numBytesRead,putUSBUSART@length
  2284  000A98  ECE5  F013         	call	_putUSBUSART	;wreg free
  2285  000A9C                     l5184:
  2286                           
  2287                           ;app_device_cdc_basic.c: 175: }
  2288                           ;app_device_cdc_basic.c: 176: }
  2289                           ;app_device_cdc_basic.c: 178: CDCTxService();
  2290  000A9C  EC51  F005         	call	_CDCTxService	;wreg free
  2291  000AA0  0012               	return		;funcret
  2292  000AA2                     __end_of_APP_DeviceCDCBasicDemoTasks:
  2293                           	opt stack 0
  2294                           tblptru	equ	0xFF8
  2295                           tblptrh	equ	0xFF7
  2296                           tblptrl	equ	0xFF6
  2297                           tablat	equ	0xFF5
  2298                           prodh	equ	0xFF4
  2299                           prodl	equ	0xFF3
  2300                           intcon	equ	0xFF2
  2301                           postinc0	equ	0xFEE
  2302                           wreg	equ	0xFE8
  2303                           indf1	equ	0xFE7
  2304                           postdec1	equ	0xFE5
  2305                           fsr1h	equ	0xFE2
  2306                           fsr1l	equ	0xFE1
  2307                           indf2	equ	0xFDF
  2308                           postinc2	equ	0xFDE
  2309                           postdec2	equ	0xFDD
  2310                           fsr2h	equ	0xFDA
  2311                           fsr2l	equ	0xFD9
  2312                           status	equ	0xFD8
  2313                           
  2314 ;; *************** function _writeEepromByte *****************
  2315 ;; Defined at:
  2316 ;;		line 139 in file "libs/programming.c"
  2317 ;; Parameters:    Size  Location     Type
  2318 ;;  address         4   12[BANK0 ] struct _DWORD_VAL
  2319 ;;  data            1   16[BANK0 ] unsigned char 
  2320 ;; Auto vars:     Size  Location     Type
  2321 ;;  Data            2   19[BANK0 ] struct _WORD_VAL
  2322 ;;  i               2   17[BANK0 ] unsigned int 
  2323 ;;  Success         1   21[BANK0 ] unsigned char 
  2324 ;; Return value:  Size  Location     Type
  2325 ;;                  1    wreg      unsigned char 
  2326 ;; Registers used:
  2327 ;;		wreg, status,2, status,0, cstack
  2328 ;; Tracked objects:
  2329 ;;		On entry : 0/0
  2330 ;;		On exit  : 0/0
  2331 ;;		Unchanged: 0/0
  2332 ;; Data sizes:     COMRAM   BANK0   BANK1   BANK2
  2333 ;;      Params:         0       5       0       0
  2334 ;;      Locals:         0       5       0       0
  2335 ;;      Temps:          0       0       0       0
  2336 ;;      Totals:         0      10       0       0
  2337 ;;Total ram usage:       10 bytes
  2338 ;; Hardware stack levels used:    1
  2339 ;; Hardware stack levels required when called:   13
  2340 ;; This function calls:
  2341 ;;		_enterICSP
  2342 ;;		_exitICSP
  2343 ;;		_generateReadPulses
  2344 ;;		_generateWritePulses
  2345 ;; This function is called by:
  2346 ;;		_APP_DeviceCDCBasicDemoTasks
  2347 ;; This function uses a non-reentrant model
  2348 ;;
  2349                           
  2350                           	psect	text8
  2351  00067A                     __ptext8:
  2352                           	opt stack 0
  2353  00067A                     _writeEepromByte:
  2354                           	opt stack 16
  2355                           
  2356                           ;programming.c: 140: UINT i=0;
  2357                           
  2358                           ;incstack = 0
  2359  00067A  0E00               	movlw	0
  2360  00067C  0100               	movlb	0	; () banked
  2361  00067E  6FB4               	movwf	(writeEepromByte@i+1)& (0+255),b
  2362  000680  0E00               	movlw	0
  2363  000682  6FB3               	movwf	writeEepromByte@i& (0+255),b
  2364                           
  2365                           ;programming.c: 141: BYTE Success = 0x00;
  2366  000684  0E00               	movlw	0
  2367  000686  0100               	movlb	0	; () banked
  2368  000688  6FB7               	movwf	writeEepromByte@Success& (0+255),b
  2369                           
  2370                           ; BSR set to: 0
  2371                           ;programming.c: 142: enterICSP();
  2372  00068A  EC53  F014         	call	_enterICSP	;wreg free
  2373                           
  2374                           ;programming.c: 143: generateWritePulses(0, 0x9E, 0xA6);
  2375  00068E  0E00               	movlw	0
  2376  000690  0100               	movlb	0	; () banked
  2377  000692  6FA3               	movwf	(generateWritePulses@command+1)& (0+255),b
  2378  000694  0E00               	movlw	0
  2379  000696  6FA2               	movwf	generateWritePulses@command& (0+255),b
  2380  000698  0E00               	movlw	0
  2381  00069A  0100               	movlb	0	; () banked
  2382  00069C  6FA5               	movwf	(generateWritePulses@payLoadMsb+1)& (0+255),b
  2383  00069E  0E9E               	movlw	158
  2384  0006A0  6FA4               	movwf	generateWritePulses@payLoadMsb& (0+255),b
  2385  0006A2  0E00               	movlw	0
  2386  0006A4  0100               	movlb	0	; () banked
  2387  0006A6  6FA7               	movwf	(generateWritePulses@payLoadLsb+1)& (0+255),b
  2388  0006A8  0EA6               	movlw	166
  2389  0006AA  6FA6               	movwf	generateWritePulses@payLoadLsb& (0+255),b
  2390  0006AC  EC12  F00B         	call	_generateWritePulses	;wreg free
  2391                           
  2392                           ;programming.c: 144: generateWritePulses(0, 0x9C, 0xA6);
  2393  0006B0  0E00               	movlw	0
  2394  0006B2  0100               	movlb	0	; () banked
  2395  0006B4  6FA3               	movwf	(generateWritePulses@command+1)& (0+255),b
  2396  0006B6  0E00               	movlw	0
  2397  0006B8  6FA2               	movwf	generateWritePulses@command& (0+255),b
  2398  0006BA  0E00               	movlw	0
  2399  0006BC  0100               	movlb	0	; () banked
  2400  0006BE  6FA5               	movwf	(generateWritePulses@payLoadMsb+1)& (0+255),b
  2401  0006C0  0E9C               	movlw	156
  2402  0006C2  6FA4               	movwf	generateWritePulses@payLoadMsb& (0+255),b
  2403  0006C4  0E00               	movlw	0
  2404  0006C6  0100               	movlb	0	; () banked
  2405  0006C8  6FA7               	movwf	(generateWritePulses@payLoadLsb+1)& (0+255),b
  2406  0006CA  0EA6               	movlw	166
  2407  0006CC  6FA6               	movwf	generateWritePulses@payLoadLsb& (0+255),b
  2408  0006CE  EC12  F00B         	call	_generateWritePulses	;wreg free
  2409                           
  2410                           ;programming.c: 145: generateWritePulses(0, 0x0E, address.v[0]);
  2411  0006D2  0E00               	movlw	0
  2412  0006D4  0100               	movlb	0	; () banked
  2413  0006D6  6FA3               	movwf	(generateWritePulses@command+1)& (0+255),b
  2414  0006D8  0E00               	movlw	0
  2415  0006DA  6FA2               	movwf	generateWritePulses@command& (0+255),b
  2416  0006DC  0E00               	movlw	0
  2417  0006DE  0100               	movlb	0	; () banked
  2418  0006E0  6FA5               	movwf	(generateWritePulses@payLoadMsb+1)& (0+255),b
  2419  0006E2  0E0E               	movlw	14
  2420  0006E4  6FA4               	movwf	generateWritePulses@payLoadMsb& (0+255),b
  2421  0006E6  C0AE  F0A6         	movff	writeEepromByte@address,generateWritePulses@payLoadLsb
  2422  0006EA  0100               	movlb	0	; () banked
  2423  0006EC  6BA7               	clrf	(generateWritePulses@payLoadLsb+1)& (0+255),b
  2424  0006EE  EC12  F00B         	call	_generateWritePulses	;wreg free
  2425                           
  2426                           ;programming.c: 146: generateWritePulses(0, 0x6E, 0xA9);
  2427  0006F2  0E00               	movlw	0
  2428  0006F4  0100               	movlb	0	; () banked
  2429  0006F6  6FA3               	movwf	(generateWritePulses@command+1)& (0+255),b
  2430  0006F8  0E00               	movlw	0
  2431  0006FA  6FA2               	movwf	generateWritePulses@command& (0+255),b
  2432  0006FC  0E00               	movlw	0
  2433  0006FE  0100               	movlb	0	; () banked
  2434  000700  6FA5               	movwf	(generateWritePulses@payLoadMsb+1)& (0+255),b
  2435  000702  0E6E               	movlw	110
  2436  000704  6FA4               	movwf	generateWritePulses@payLoadMsb& (0+255),b
  2437  000706  0E00               	movlw	0
  2438  000708  0100               	movlb	0	; () banked
  2439  00070A  6FA7               	movwf	(generateWritePulses@payLoadLsb+1)& (0+255),b
  2440  00070C  0EA9               	movlw	169
  2441  00070E  6FA6               	movwf	generateWritePulses@payLoadLsb& (0+255),b
  2442  000710  EC12  F00B         	call	_generateWritePulses	;wreg free
  2443                           
  2444                           ;programming.c: 147: generateWritePulses(0, 0x0E, address.v[1]);
  2445  000714  0E00               	movlw	0
  2446  000716  0100               	movlb	0	; () banked
  2447  000718  6FA3               	movwf	(generateWritePulses@command+1)& (0+255),b
  2448  00071A  0E00               	movlw	0
  2449  00071C  6FA2               	movwf	generateWritePulses@command& (0+255),b
  2450  00071E  0E00               	movlw	0
  2451  000720  0100               	movlb	0	; () banked
  2452  000722  6FA5               	movwf	(generateWritePulses@payLoadMsb+1)& (0+255),b
  2453  000724  0E0E               	movlw	14
  2454  000726  6FA4               	movwf	generateWritePulses@payLoadMsb& (0+255),b
  2455  000728  C0AF  F0A6         	movff	writeEepromByte@address+1,generateWritePulses@payLoadLsb
  2456  00072C  0100               	movlb	0	; () banked
  2457  00072E  6BA7               	clrf	(generateWritePulses@payLoadLsb+1)& (0+255),b
  2458  000730  EC12  F00B         	call	_generateWritePulses	;wreg free
  2459                           
  2460                           ;programming.c: 148: generateWritePulses(0, 0x6E, 0xAA);
  2461  000734  0E00               	movlw	0
  2462  000736  0100               	movlb	0	; () banked
  2463  000738  6FA3               	movwf	(generateWritePulses@command+1)& (0+255),b
  2464  00073A  0E00               	movlw	0
  2465  00073C  6FA2               	movwf	generateWritePulses@command& (0+255),b
  2466  00073E  0E00               	movlw	0
  2467  000740  0100               	movlb	0	; () banked
  2468  000742  6FA5               	movwf	(generateWritePulses@payLoadMsb+1)& (0+255),b
  2469  000744  0E6E               	movlw	110
  2470  000746  6FA4               	movwf	generateWritePulses@payLoadMsb& (0+255),b
  2471  000748  0E00               	movlw	0
  2472  00074A  0100               	movlb	0	; () banked
  2473  00074C  6FA7               	movwf	(generateWritePulses@payLoadLsb+1)& (0+255),b
  2474  00074E  0EAA               	movlw	170
  2475  000750  6FA6               	movwf	generateWritePulses@payLoadLsb& (0+255),b
  2476  000752  EC12  F00B         	call	_generateWritePulses	;wreg free
  2477                           
  2478                           ;programming.c: 149: generateWritePulses(0, 0x0E, data);
  2479  000756  0E00               	movlw	0
  2480  000758  0100               	movlb	0	; () banked
  2481  00075A  6FA3               	movwf	(generateWritePulses@command+1)& (0+255),b
  2482  00075C  0E00               	movlw	0
  2483  00075E  6FA2               	movwf	generateWritePulses@command& (0+255),b
  2484  000760  0E00               	movlw	0
  2485  000762  0100               	movlb	0	; () banked
  2486  000764  6FA5               	movwf	(generateWritePulses@payLoadMsb+1)& (0+255),b
  2487  000766  0E0E               	movlw	14
  2488  000768  6FA4               	movwf	generateWritePulses@payLoadMsb& (0+255),b
  2489  00076A  C0B2  F0A6         	movff	writeEepromByte@data,generateWritePulses@payLoadLsb
  2490  00076E  0100               	movlb	0	; () banked
  2491  000770  6BA7               	clrf	(generateWritePulses@payLoadLsb+1)& (0+255),b
  2492  000772  EC12  F00B         	call	_generateWritePulses	;wreg free
  2493                           
  2494                           ;programming.c: 150: generateWritePulses(0, 0x6E, 0xA8);
  2495  000776  0E00               	movlw	0
  2496  000778  0100               	movlb	0	; () banked
  2497  00077A  6FA3               	movwf	(generateWritePulses@command+1)& (0+255),b
  2498  00077C  0E00               	movlw	0
  2499  00077E  6FA2               	movwf	generateWritePulses@command& (0+255),b
  2500  000780  0E00               	movlw	0
  2501  000782  0100               	movlb	0	; () banked
  2502  000784  6FA5               	movwf	(generateWritePulses@payLoadMsb+1)& (0+255),b
  2503  000786  0E6E               	movlw	110
  2504  000788  6FA4               	movwf	generateWritePulses@payLoadMsb& (0+255),b
  2505  00078A  0E00               	movlw	0
  2506  00078C  0100               	movlb	0	; () banked
  2507  00078E  6FA7               	movwf	(generateWritePulses@payLoadLsb+1)& (0+255),b
  2508  000790  0EA8               	movlw	168
  2509  000792  6FA6               	movwf	generateWritePulses@payLoadLsb& (0+255),b
  2510  000794  EC12  F00B         	call	_generateWritePulses	;wreg free
  2511                           
  2512                           ;programming.c: 151: generateWritePulses(0, 0x84, 0xA6);
  2513  000798  0E00               	movlw	0
  2514  00079A  0100               	movlb	0	; () banked
  2515  00079C  6FA3               	movwf	(generateWritePulses@command+1)& (0+255),b
  2516  00079E  0E00               	movlw	0
  2517  0007A0  6FA2               	movwf	generateWritePulses@command& (0+255),b
  2518  0007A2  0E00               	movlw	0
  2519  0007A4  0100               	movlb	0	; () banked
  2520  0007A6  6FA5               	movwf	(generateWritePulses@payLoadMsb+1)& (0+255),b
  2521  0007A8  0E84               	movlw	132
  2522  0007AA  6FA4               	movwf	generateWritePulses@payLoadMsb& (0+255),b
  2523  0007AC  0E00               	movlw	0
  2524  0007AE  0100               	movlb	0	; () banked
  2525  0007B0  6FA7               	movwf	(generateWritePulses@payLoadLsb+1)& (0+255),b
  2526  0007B2  0EA6               	movlw	166
  2527  0007B4  6FA6               	movwf	generateWritePulses@payLoadLsb& (0+255),b
  2528  0007B6  EC12  F00B         	call	_generateWritePulses	;wreg free
  2529                           
  2530                           ;programming.c: 152: generateWritePulses(0, 0x82, 0xA6);
  2531  0007BA  0E00               	movlw	0
  2532  0007BC  0100               	movlb	0	; () banked
  2533  0007BE  6FA3               	movwf	(generateWritePulses@command+1)& (0+255),b
  2534  0007C0  0E00               	movlw	0
  2535  0007C2  6FA2               	movwf	generateWritePulses@command& (0+255),b
  2536  0007C4  0E00               	movlw	0
  2537  0007C6  0100               	movlb	0	; () banked
  2538  0007C8  6FA5               	movwf	(generateWritePulses@payLoadMsb+1)& (0+255),b
  2539  0007CA  0E82               	movlw	130
  2540  0007CC  6FA4               	movwf	generateWritePulses@payLoadMsb& (0+255),b
  2541  0007CE  0E00               	movlw	0
  2542  0007D0  0100               	movlb	0	; () banked
  2543  0007D2  6FA7               	movwf	(generateWritePulses@payLoadLsb+1)& (0+255),b
  2544  0007D4  0EA6               	movlw	166
  2545  0007D6  6FA6               	movwf	generateWritePulses@payLoadLsb& (0+255),b
  2546  0007D8  EC12  F00B         	call	_generateWritePulses	;wreg free
  2547                           
  2548                           ;programming.c: 153: generateWritePulses(0, 0x00, 0x00);
  2549  0007DC  0E00               	movlw	0
  2550  0007DE  0100               	movlb	0	; () banked
  2551  0007E0  6FA3               	movwf	(generateWritePulses@command+1)& (0+255),b
  2552  0007E2  0E00               	movlw	0
  2553  0007E4  6FA2               	movwf	generateWritePulses@command& (0+255),b
  2554  0007E6  0E00               	movlw	0
  2555  0007E8  0100               	movlb	0	; () banked
  2556  0007EA  6FA5               	movwf	(generateWritePulses@payLoadMsb+1)& (0+255),b
  2557  0007EC  0E00               	movlw	0
  2558  0007EE  6FA4               	movwf	generateWritePulses@payLoadMsb& (0+255),b
  2559  0007F0  0E00               	movlw	0
  2560  0007F2  0100               	movlb	0	; () banked
  2561  0007F4  6FA7               	movwf	(generateWritePulses@payLoadLsb+1)& (0+255),b
  2562  0007F6  0E00               	movlw	0
  2563  0007F8  6FA6               	movwf	generateWritePulses@payLoadLsb& (0+255),b
  2564  0007FA  EC12  F00B         	call	_generateWritePulses	;wreg free
  2565                           
  2566                           ;programming.c: 154: generateWritePulses(0, 0x00, 0x00);
  2567  0007FE  0E00               	movlw	0
  2568  000800  0100               	movlb	0	; () banked
  2569  000802  6FA3               	movwf	(generateWritePulses@command+1)& (0+255),b
  2570  000804  0E00               	movlw	0
  2571  000806  6FA2               	movwf	generateWritePulses@command& (0+255),b
  2572  000808  0E00               	movlw	0
  2573  00080A  0100               	movlb	0	; () banked
  2574  00080C  6FA5               	movwf	(generateWritePulses@payLoadMsb+1)& (0+255),b
  2575  00080E  0E00               	movlw	0
  2576  000810  6FA4               	movwf	generateWritePulses@payLoadMsb& (0+255),b
  2577  000812  0E00               	movlw	0
  2578  000814  0100               	movlb	0	; () banked
  2579  000816  6FA7               	movwf	(generateWritePulses@payLoadLsb+1)& (0+255),b
  2580  000818  0E00               	movlw	0
  2581  00081A  6FA6               	movwf	generateWritePulses@payLoadLsb& (0+255),b
  2582  00081C  EC12  F00B         	call	_generateWritePulses	;wreg free
  2583  000820                     l4946:
  2584                           
  2585                           ;programming.c: 156: generateWritePulses(0, 0x50, 0xA6);
  2586  000820  0E00               	movlw	0
  2587  000822  0100               	movlb	0	; () banked
  2588  000824  6FA3               	movwf	(generateWritePulses@command+1)& (0+255),b
  2589  000826  0E00               	movlw	0
  2590  000828  6FA2               	movwf	generateWritePulses@command& (0+255),b
  2591  00082A  0E00               	movlw	0
  2592  00082C  0100               	movlb	0	; () banked
  2593  00082E  6FA5               	movwf	(generateWritePulses@payLoadMsb+1)& (0+255),b
  2594  000830  0E50               	movlw	80
  2595  000832  6FA4               	movwf	generateWritePulses@payLoadMsb& (0+255),b
  2596  000834  0E00               	movlw	0
  2597  000836  0100               	movlb	0	; () banked
  2598  000838  6FA7               	movwf	(generateWritePulses@payLoadLsb+1)& (0+255),b
  2599  00083A  0EA6               	movlw	166
  2600  00083C  6FA6               	movwf	generateWritePulses@payLoadLsb& (0+255),b
  2601  00083E  EC12  F00B         	call	_generateWritePulses	;wreg free
  2602                           
  2603                           ;programming.c: 157: generateWritePulses(0, 0x6E, 0xF5);
  2604  000842  0E00               	movlw	0
  2605  000844  0100               	movlb	0	; () banked
  2606  000846  6FA3               	movwf	(generateWritePulses@command+1)& (0+255),b
  2607  000848  0E00               	movlw	0
  2608  00084A  6FA2               	movwf	generateWritePulses@command& (0+255),b
  2609  00084C  0E00               	movlw	0
  2610  00084E  0100               	movlb	0	; () banked
  2611  000850  6FA5               	movwf	(generateWritePulses@payLoadMsb+1)& (0+255),b
  2612  000852  0E6E               	movlw	110
  2613  000854  6FA4               	movwf	generateWritePulses@payLoadMsb& (0+255),b
  2614  000856  0E00               	movlw	0
  2615  000858  0100               	movlb	0	; () banked
  2616  00085A  6FA7               	movwf	(generateWritePulses@payLoadLsb+1)& (0+255),b
  2617  00085C  0EF5               	movlw	245
  2618  00085E  6FA6               	movwf	generateWritePulses@payLoadLsb& (0+255),b
  2619  000860  EC12  F00B         	call	_generateWritePulses	;wreg free
  2620                           
  2621                           ;programming.c: 158: generateWritePulses(0, 0x00, 0x00);
  2622  000864  0E00               	movlw	0
  2623  000866  0100               	movlb	0	; () banked
  2624  000868  6FA3               	movwf	(generateWritePulses@command+1)& (0+255),b
  2625  00086A  0E00               	movlw	0
  2626  00086C  6FA2               	movwf	generateWritePulses@command& (0+255),b
  2627  00086E  0E00               	movlw	0
  2628  000870  0100               	movlb	0	; () banked
  2629  000872  6FA5               	movwf	(generateWritePulses@payLoadMsb+1)& (0+255),b
  2630  000874  0E00               	movlw	0
  2631  000876  6FA4               	movwf	generateWritePulses@payLoadMsb& (0+255),b
  2632  000878  0E00               	movlw	0
  2633  00087A  0100               	movlb	0	; () banked
  2634  00087C  6FA7               	movwf	(generateWritePulses@payLoadLsb+1)& (0+255),b
  2635  00087E  0E00               	movlw	0
  2636  000880  6FA6               	movwf	generateWritePulses@payLoadLsb& (0+255),b
  2637  000882  EC12  F00B         	call	_generateWritePulses	;wreg free
  2638                           
  2639                           ;programming.c: 159: WORD_VAL Data = generateReadPulses (0x02);
  2640  000886  0E00               	movlw	0
  2641  000888  0100               	movlb	0	; () banked
  2642  00088A  6FA3               	movwf	(generateReadPulses@command+1)& (0+255),b
  2643  00088C  0E02               	movlw	2
  2644  00088E  6FA2               	movwf	generateReadPulses@command& (0+255),b
  2645  000890  ECCD  F00D         	call	_generateReadPulses	;wreg free
  2646  000894  C0A2  F0B5         	movff	?_generateReadPulses,writeEepromByte@Data
  2647  000898  C0A3  F0B6         	movff	?_generateReadPulses+1,writeEepromByte@Data+1
  2648                           
  2649                           ;programming.c: 160: if (Data.v[1] == 0x00)
  2650  00089C  0100               	movlb	0	; () banked
  2651  00089E  51B6               	movf	(writeEepromByte@Data+1)& (0+255),w,b
  2652  0008A0  A4D8               	btfss	status,2,c
  2653  0008A2  D003               	goto	l4958
  2654                           
  2655                           ; BSR set to: 0
  2656                           ;programming.c: 161: Success = TRUE;
  2657  0008A4  0E01               	movlw	1
  2658  0008A6  0100               	movlb	0	; () banked
  2659  0008A8  6FB7               	movwf	writeEepromByte@Success& (0+255),b
  2660  0008AA                     l4958:
  2661                           
  2662                           ; BSR set to: 0
  2663                           ;programming.c: 162: i++;
  2664  0008AA  0100               	movlb	0	; () banked
  2665  0008AC  4BB3               	infsnz	writeEepromByte@i& (0+255),f,b
  2666  0008AE  2BB4               	incf	(writeEepromByte@i+1)& (0+255),f,b
  2667                           
  2668                           ; BSR set to: 0
  2669                           ;programming.c: 163: } while ((!Success) && (i<5));
  2670  0008B0  0100               	movlb	0	; () banked
  2671  0008B2  51B7               	movf	writeEepromByte@Success& (0+255),w,b
  2672  0008B4  0100               	movlb	0	; () banked
  2673  0008B6  A4D8               	btfss	status,2,c
  2674  0008B8  D008               	goto	l72
  2675                           
  2676                           ; BSR set to: 0
  2677  0008BA  0100               	movlb	0	; () banked
  2678  0008BC  51B4               	movf	(writeEepromByte@i+1)& (0+255),w,b
  2679  0008BE  E105               	bnz	l72
  2680  0008C0  0E05               	movlw	5
  2681  0008C2  0100               	movlb	0	; () banked
  2682  0008C4  5DB3               	subwf	writeEepromByte@i& (0+255),w,b
  2683  0008C6  A0D8               	btfss	status,0,c
  2684  0008C8  D7AB               	goto	l4946
  2685  0008CA                     l72:
  2686                           
  2687                           ; BSR set to: 0
  2688                           ;programming.c: 164: LATBbits.LATB6 = 0;
  2689  0008CA  9C8A               	bcf	3978,6,c	;volatile
  2690                           
  2691                           ; BSR set to: 0
  2692                           ;programming.c: 165: (_delay((unsigned long)((100)*(12000000/4000000.0))));
  2693  0008CC  0E64               	movlw	100
  2694  0008CE                     u4687:
  2695  0008CE  2EE8               	decfsz	wreg,f,c
  2696  0008D0  D7FE               	bra	u4687
  2697                           
  2698                           ;programming.c: 166: generateWritePulses(0, 0x94, 0xA6);
  2699  0008D2  0E00               	movlw	0
  2700  0008D4  0100               	movlb	0	; () banked
  2701  0008D6  6FA3               	movwf	(generateWritePulses@command+1)& (0+255),b
  2702  0008D8  0E00               	movlw	0
  2703  0008DA  6FA2               	movwf	generateWritePulses@command& (0+255),b
  2704  0008DC  0E00               	movlw	0
  2705  0008DE  0100               	movlb	0	; () banked
  2706  0008E0  6FA5               	movwf	(generateWritePulses@payLoadMsb+1)& (0+255),b
  2707  0008E2  0E94               	movlw	148
  2708  0008E4  6FA4               	movwf	generateWritePulses@payLoadMsb& (0+255),b
  2709  0008E6  0E00               	movlw	0
  2710  0008E8  0100               	movlb	0	; () banked
  2711  0008EA  6FA7               	movwf	(generateWritePulses@payLoadLsb+1)& (0+255),b
  2712  0008EC  0EA6               	movlw	166
  2713  0008EE  6FA6               	movwf	generateWritePulses@payLoadLsb& (0+255),b
  2714  0008F0  EC12  F00B         	call	_generateWritePulses	;wreg free
  2715                           
  2716                           ;programming.c: 167: exitICSP();
  2717  0008F4  EC50  F014         	call	_exitICSP	;wreg free
  2718  0008F8  0012               	return	
  2719  0008FA                     __end_of_writeEepromByte:
  2720                           	opt stack 0
  2721                           tblptru	equ	0xFF8
  2722                           tblptrh	equ	0xFF7
  2723                           tblptrl	equ	0xFF6
  2724                           tablat	equ	0xFF5
  2725                           prodh	equ	0xFF4
  2726                           prodl	equ	0xFF3
  2727                           intcon	equ	0xFF2
  2728                           postinc0	equ	0xFEE
  2729                           wreg	equ	0xFE8
  2730                           indf1	equ	0xFE7
  2731                           postdec1	equ	0xFE5
  2732                           fsr1h	equ	0xFE2
  2733                           fsr1l	equ	0xFE1
  2734                           indf2	equ	0xFDF
  2735                           postinc2	equ	0xFDE
  2736                           postdec2	equ	0xFDD
  2737                           fsr2h	equ	0xFDA
  2738                           fsr2l	equ	0xFD9
  2739                           status	equ	0xFD8
  2740                           
  2741 ;; *************** function _readEepromByte *****************
  2742 ;; Defined at:
  2743 ;;		line 122 in file "libs/programming.c"
  2744 ;; Parameters:    Size  Location     Type
  2745 ;;  address         4   12[BANK0 ] struct _DWORD_VAL
  2746 ;; Auto vars:     Size  Location     Type
  2747 ;;  Data            2   16[BANK0 ] struct _WORD_VAL
  2748 ;; Return value:  Size  Location     Type
  2749 ;;                  1    wreg      unsigned char 
  2750 ;; Registers used:
  2751 ;;		wreg, status,2, status,0, cstack
  2752 ;; Tracked objects:
  2753 ;;		On entry : 0/0
  2754 ;;		On exit  : 0/0
  2755 ;;		Unchanged: 0/0
  2756 ;; Data sizes:     COMRAM   BANK0   BANK1   BANK2
  2757 ;;      Params:         0       4       0       0
  2758 ;;      Locals:         0       2       0       0
  2759 ;;      Temps:          0       0       0       0
  2760 ;;      Totals:         0       6       0       0
  2761 ;;Total ram usage:        6 bytes
  2762 ;; Hardware stack levels used:    1
  2763 ;; Hardware stack levels required when called:   13
  2764 ;; This function calls:
  2765 ;;		_enterICSP
  2766 ;;		_exitICSP
  2767 ;;		_generateReadPulses
  2768 ;;		_generateWritePulses
  2769 ;; This function is called by:
  2770 ;;		_APP_DeviceCDCBasicDemoTasks
  2771 ;; This function uses a non-reentrant model
  2772 ;;
  2773                           
  2774                           	psect	text9
  2775  000C28                     __ptext9:
  2776                           	opt stack 0
  2777  000C28                     _readEepromByte:
  2778                           	opt stack 16
  2779                           
  2780                           ;programming.c: 123: enterICSP();
  2781                           
  2782                           ;incstack = 0
  2783  000C28  EC53  F014         	call	_enterICSP	;wreg free
  2784                           
  2785                           ;programming.c: 124: generateWritePulses(0, 0x9E, 0xA6);
  2786  000C2C  0E00               	movlw	0
  2787  000C2E  0100               	movlb	0	; () banked
  2788  000C30  6FA3               	movwf	(generateWritePulses@command+1)& (0+255),b
  2789  000C32  0E00               	movlw	0
  2790  000C34  6FA2               	movwf	generateWritePulses@command& (0+255),b
  2791  000C36  0E00               	movlw	0
  2792  000C38  0100               	movlb	0	; () banked
  2793  000C3A  6FA5               	movwf	(generateWritePulses@payLoadMsb+1)& (0+255),b
  2794  000C3C  0E9E               	movlw	158
  2795  000C3E  6FA4               	movwf	generateWritePulses@payLoadMsb& (0+255),b
  2796  000C40  0E00               	movlw	0
  2797  000C42  0100               	movlb	0	; () banked
  2798  000C44  6FA7               	movwf	(generateWritePulses@payLoadLsb+1)& (0+255),b
  2799  000C46  0EA6               	movlw	166
  2800  000C48  6FA6               	movwf	generateWritePulses@payLoadLsb& (0+255),b
  2801  000C4A  EC12  F00B         	call	_generateWritePulses	;wreg free
  2802                           
  2803                           ;programming.c: 125: generateWritePulses(0, 0x9C, 0xA6);
  2804  000C4E  0E00               	movlw	0
  2805  000C50  0100               	movlb	0	; () banked
  2806  000C52  6FA3               	movwf	(generateWritePulses@command+1)& (0+255),b
  2807  000C54  0E00               	movlw	0
  2808  000C56  6FA2               	movwf	generateWritePulses@command& (0+255),b
  2809  000C58  0E00               	movlw	0
  2810  000C5A  0100               	movlb	0	; () banked
  2811  000C5C  6FA5               	movwf	(generateWritePulses@payLoadMsb+1)& (0+255),b
  2812  000C5E  0E9C               	movlw	156
  2813  000C60  6FA4               	movwf	generateWritePulses@payLoadMsb& (0+255),b
  2814  000C62  0E00               	movlw	0
  2815  000C64  0100               	movlb	0	; () banked
  2816  000C66  6FA7               	movwf	(generateWritePulses@payLoadLsb+1)& (0+255),b
  2817  000C68  0EA6               	movlw	166
  2818  000C6A  6FA6               	movwf	generateWritePulses@payLoadLsb& (0+255),b
  2819  000C6C  EC12  F00B         	call	_generateWritePulses	;wreg free
  2820                           
  2821                           ;programming.c: 126: generateWritePulses(0, 0x0E, address.v[0]);
  2822  000C70  0E00               	movlw	0
  2823  000C72  0100               	movlb	0	; () banked
  2824  000C74  6FA3               	movwf	(generateWritePulses@command+1)& (0+255),b
  2825  000C76  0E00               	movlw	0
  2826  000C78  6FA2               	movwf	generateWritePulses@command& (0+255),b
  2827  000C7A  0E00               	movlw	0
  2828  000C7C  0100               	movlb	0	; () banked
  2829  000C7E  6FA5               	movwf	(generateWritePulses@payLoadMsb+1)& (0+255),b
  2830  000C80  0E0E               	movlw	14
  2831  000C82  6FA4               	movwf	generateWritePulses@payLoadMsb& (0+255),b
  2832  000C84  C0AE  F0A6         	movff	readEepromByte@address,generateWritePulses@payLoadLsb
  2833  000C88  0100               	movlb	0	; () banked
  2834  000C8A  6BA7               	clrf	(generateWritePulses@payLoadLsb+1)& (0+255),b
  2835  000C8C  EC12  F00B         	call	_generateWritePulses	;wreg free
  2836                           
  2837                           ;programming.c: 127: generateWritePulses(0, 0x6E, 0xA9);
  2838  000C90  0E00               	movlw	0
  2839  000C92  0100               	movlb	0	; () banked
  2840  000C94  6FA3               	movwf	(generateWritePulses@command+1)& (0+255),b
  2841  000C96  0E00               	movlw	0
  2842  000C98  6FA2               	movwf	generateWritePulses@command& (0+255),b
  2843  000C9A  0E00               	movlw	0
  2844  000C9C  0100               	movlb	0	; () banked
  2845  000C9E  6FA5               	movwf	(generateWritePulses@payLoadMsb+1)& (0+255),b
  2846  000CA0  0E6E               	movlw	110
  2847  000CA2  6FA4               	movwf	generateWritePulses@payLoadMsb& (0+255),b
  2848  000CA4  0E00               	movlw	0
  2849  000CA6  0100               	movlb	0	; () banked
  2850  000CA8  6FA7               	movwf	(generateWritePulses@payLoadLsb+1)& (0+255),b
  2851  000CAA  0EA9               	movlw	169
  2852  000CAC  6FA6               	movwf	generateWritePulses@payLoadLsb& (0+255),b
  2853  000CAE  EC12  F00B         	call	_generateWritePulses	;wreg free
  2854                           
  2855                           ;programming.c: 128: generateWritePulses(0, 0x0E, address.v[1]);
  2856  000CB2  0E00               	movlw	0
  2857  000CB4  0100               	movlb	0	; () banked
  2858  000CB6  6FA3               	movwf	(generateWritePulses@command+1)& (0+255),b
  2859  000CB8  0E00               	movlw	0
  2860  000CBA  6FA2               	movwf	generateWritePulses@command& (0+255),b
  2861  000CBC  0E00               	movlw	0
  2862  000CBE  0100               	movlb	0	; () banked
  2863  000CC0  6FA5               	movwf	(generateWritePulses@payLoadMsb+1)& (0+255),b
  2864  000CC2  0E0E               	movlw	14
  2865  000CC4  6FA4               	movwf	generateWritePulses@payLoadMsb& (0+255),b
  2866  000CC6  C0AF  F0A6         	movff	readEepromByte@address+1,generateWritePulses@payLoadLsb
  2867  000CCA  0100               	movlb	0	; () banked
  2868  000CCC  6BA7               	clrf	(generateWritePulses@payLoadLsb+1)& (0+255),b
  2869  000CCE  EC12  F00B         	call	_generateWritePulses	;wreg free
  2870                           
  2871                           ;programming.c: 129: generateWritePulses(0, 0x6E, 0xAA);
  2872  000CD2  0E00               	movlw	0
  2873  000CD4  0100               	movlb	0	; () banked
  2874  000CD6  6FA3               	movwf	(generateWritePulses@command+1)& (0+255),b
  2875  000CD8  0E00               	movlw	0
  2876  000CDA  6FA2               	movwf	generateWritePulses@command& (0+255),b
  2877  000CDC  0E00               	movlw	0
  2878  000CDE  0100               	movlb	0	; () banked
  2879  000CE0  6FA5               	movwf	(generateWritePulses@payLoadMsb+1)& (0+255),b
  2880  000CE2  0E6E               	movlw	110
  2881  000CE4  6FA4               	movwf	generateWritePulses@payLoadMsb& (0+255),b
  2882  000CE6  0E00               	movlw	0
  2883  000CE8  0100               	movlb	0	; () banked
  2884  000CEA  6FA7               	movwf	(generateWritePulses@payLoadLsb+1)& (0+255),b
  2885  000CEC  0EAA               	movlw	170
  2886  000CEE  6FA6               	movwf	generateWritePulses@payLoadLsb& (0+255),b
  2887  000CF0  EC12  F00B         	call	_generateWritePulses	;wreg free
  2888                           
  2889                           ;programming.c: 130: generateWritePulses(0, 0x80, 0xA6);
  2890  000CF4  0E00               	movlw	0
  2891  000CF6  0100               	movlb	0	; () banked
  2892  000CF8  6FA3               	movwf	(generateWritePulses@command+1)& (0+255),b
  2893  000CFA  0E00               	movlw	0
  2894  000CFC  6FA2               	movwf	generateWritePulses@command& (0+255),b
  2895  000CFE  0E00               	movlw	0
  2896  000D00  0100               	movlb	0	; () banked
  2897  000D02  6FA5               	movwf	(generateWritePulses@payLoadMsb+1)& (0+255),b
  2898  000D04  0E80               	movlw	128
  2899  000D06  6FA4               	movwf	generateWritePulses@payLoadMsb& (0+255),b
  2900  000D08  0E00               	movlw	0
  2901  000D0A  0100               	movlb	0	; () banked
  2902  000D0C  6FA7               	movwf	(generateWritePulses@payLoadLsb+1)& (0+255),b
  2903  000D0E  0EA6               	movlw	166
  2904  000D10  6FA6               	movwf	generateWritePulses@payLoadLsb& (0+255),b
  2905  000D12  EC12  F00B         	call	_generateWritePulses	;wreg free
  2906                           
  2907                           ;programming.c: 131: generateWritePulses(0, 0x50, 0xA8);
  2908  000D16  0E00               	movlw	0
  2909  000D18  0100               	movlb	0	; () banked
  2910  000D1A  6FA3               	movwf	(generateWritePulses@command+1)& (0+255),b
  2911  000D1C  0E00               	movlw	0
  2912  000D1E  6FA2               	movwf	generateWritePulses@command& (0+255),b
  2913  000D20  0E00               	movlw	0
  2914  000D22  0100               	movlb	0	; () banked
  2915  000D24  6FA5               	movwf	(generateWritePulses@payLoadMsb+1)& (0+255),b
  2916  000D26  0E50               	movlw	80
  2917  000D28  6FA4               	movwf	generateWritePulses@payLoadMsb& (0+255),b
  2918  000D2A  0E00               	movlw	0
  2919  000D2C  0100               	movlb	0	; () banked
  2920  000D2E  6FA7               	movwf	(generateWritePulses@payLoadLsb+1)& (0+255),b
  2921  000D30  0EA8               	movlw	168
  2922  000D32  6FA6               	movwf	generateWritePulses@payLoadLsb& (0+255),b
  2923  000D34  EC12  F00B         	call	_generateWritePulses	;wreg free
  2924                           
  2925                           ;programming.c: 132: generateWritePulses(0, 0x6E, 0xF5);
  2926  000D38  0E00               	movlw	0
  2927  000D3A  0100               	movlb	0	; () banked
  2928  000D3C  6FA3               	movwf	(generateWritePulses@command+1)& (0+255),b
  2929  000D3E  0E00               	movlw	0
  2930  000D40  6FA2               	movwf	generateWritePulses@command& (0+255),b
  2931  000D42  0E00               	movlw	0
  2932  000D44  0100               	movlb	0	; () banked
  2933  000D46  6FA5               	movwf	(generateWritePulses@payLoadMsb+1)& (0+255),b
  2934  000D48  0E6E               	movlw	110
  2935  000D4A  6FA4               	movwf	generateWritePulses@payLoadMsb& (0+255),b
  2936  000D4C  0E00               	movlw	0
  2937  000D4E  0100               	movlb	0	; () banked
  2938  000D50  6FA7               	movwf	(generateWritePulses@payLoadLsb+1)& (0+255),b
  2939  000D52  0EF5               	movlw	245
  2940  000D54  6FA6               	movwf	generateWritePulses@payLoadLsb& (0+255),b
  2941  000D56  EC12  F00B         	call	_generateWritePulses	;wreg free
  2942                           
  2943                           ;programming.c: 133: generateWritePulses(0, 0x00, 0x00);
  2944  000D5A  0E00               	movlw	0
  2945  000D5C  0100               	movlb	0	; () banked
  2946  000D5E  6FA3               	movwf	(generateWritePulses@command+1)& (0+255),b
  2947  000D60  0E00               	movlw	0
  2948  000D62  6FA2               	movwf	generateWritePulses@command& (0+255),b
  2949  000D64  0E00               	movlw	0
  2950  000D66  0100               	movlb	0	; () banked
  2951  000D68  6FA5               	movwf	(generateWritePulses@payLoadMsb+1)& (0+255),b
  2952  000D6A  0E00               	movlw	0
  2953  000D6C  6FA4               	movwf	generateWritePulses@payLoadMsb& (0+255),b
  2954  000D6E  0E00               	movlw	0
  2955  000D70  0100               	movlb	0	; () banked
  2956  000D72  6FA7               	movwf	(generateWritePulses@payLoadLsb+1)& (0+255),b
  2957  000D74  0E00               	movlw	0
  2958  000D76  6FA6               	movwf	generateWritePulses@payLoadLsb& (0+255),b
  2959  000D78  EC12  F00B         	call	_generateWritePulses	;wreg free
  2960                           
  2961                           ;programming.c: 134: WORD_VAL Data = generateReadPulses (0x02);
  2962  000D7C  0E00               	movlw	0
  2963  000D7E  0100               	movlb	0	; () banked
  2964  000D80  6FA3               	movwf	(generateReadPulses@command+1)& (0+255),b
  2965  000D82  0E02               	movlw	2
  2966  000D84  6FA2               	movwf	generateReadPulses@command& (0+255),b
  2967  000D86  ECCD  F00D         	call	_generateReadPulses	;wreg free
  2968  000D8A  C0A2  F0B2         	movff	?_generateReadPulses,readEepromByte@Data
  2969  000D8E  C0A3  F0B3         	movff	?_generateReadPulses+1,readEepromByte@Data+1
  2970                           
  2971                           ;programming.c: 135: exitICSP();
  2972  000D92  EC50  F014         	call	_exitICSP	;wreg free
  2973                           
  2974                           ;programming.c: 136: return Data.v[1];
  2975  000D96  0100               	movlb	0	; () banked
  2976  000D98  51B3               	movf	(readEepromByte@Data+1)& (0+255),w,b
  2977  000D9A  0012               	return	
  2978  000D9C                     __end_of_readEepromByte:
  2979                           	opt stack 0
  2980                           tblptru	equ	0xFF8
  2981                           tblptrh	equ	0xFF7
  2982                           tblptrl	equ	0xFF6
  2983                           tablat	equ	0xFF5
  2984                           prodh	equ	0xFF4
  2985                           prodl	equ	0xFF3
  2986                           intcon	equ	0xFF2
  2987                           postinc0	equ	0xFEE
  2988                           wreg	equ	0xFE8
  2989                           indf1	equ	0xFE7
  2990                           postdec1	equ	0xFE5
  2991                           fsr1h	equ	0xFE2
  2992                           fsr1l	equ	0xFE1
  2993                           indf2	equ	0xFDF
  2994                           postinc2	equ	0xFDE
  2995                           postdec2	equ	0xFDD
  2996                           fsr2h	equ	0xFDA
  2997                           fsr2l	equ	0xFD9
  2998                           status	equ	0xFD8
  2999                           
  3000 ;; *************** function _generateWritePulses *****************
  3001 ;; Defined at:
  3002 ;;		line 55 in file "libs/programming.c"
  3003 ;; Parameters:    Size  Location     Type
  3004 ;;  command         2    0[BANK0 ] unsigned int 
  3005 ;;  payLoadMsb      2    2[BANK0 ] unsigned int 
  3006 ;;  payLoadLsb      2    4[BANK0 ] unsigned int 
  3007 ;; Auto vars:     Size  Location     Type
  3008 ;;  i               1   11[BANK0 ] unsigned char 
  3009 ;;  i               1   10[BANK0 ] unsigned char 
  3010 ;;  i               1    9[BANK0 ] unsigned char 
  3011 ;; Return value:  Size  Location     Type
  3012 ;;                  1    wreg      void 
  3013 ;; Registers used:
  3014 ;;		wreg, status,2, status,0
  3015 ;; Tracked objects:
  3016 ;;		On entry : 0/0
  3017 ;;		On exit  : 0/0
  3018 ;;		Unchanged: 0/0
  3019 ;; Data sizes:     COMRAM   BANK0   BANK1   BANK2
  3020 ;;      Params:         0       6       0       0
  3021 ;;      Locals:         0       3       0       0
  3022 ;;      Temps:          0       3       0       0
  3023 ;;      Totals:         0      12       0       0
  3024 ;;Total ram usage:       12 bytes
  3025 ;; Hardware stack levels used:    1
  3026 ;; Hardware stack levels required when called:   10
  3027 ;; This function calls:
  3028 ;;		Nothing
  3029 ;; This function is called by:
  3030 ;;		_readEepromByte
  3031 ;;		_writeEepromByte
  3032 ;; This function uses a non-reentrant model
  3033 ;;
  3034                           
  3035                           	psect	text10
  3036  001624                     __ptext10:
  3037                           	opt stack 0
  3038  001624                     _generateWritePulses:
  3039                           	opt stack 18
  3040                           
  3041                           ;programming.c: 56: (_delay((unsigned long)((1)*(12000000/4000000.0))));
  3042                           
  3043                           ; BSR set to: 0
  3044                           ;incstack = 0
  3045  001624  D000               	nop2		;2 cycle nop
  3046  001626  F000               	nop	
  3047                           
  3048                           ;programming.c: 57: for (BYTE i = 0; i < 4; i++) {
  3049  001628  0E00               	movlw	0
  3050  00162A  0100               	movlb	0	; () banked
  3051  00162C  6FAB               	movwf	generateWritePulses@i& (0+255),b
  3052  00162E                     l4786:
  3053                           
  3054                           ; BSR set to: 0
  3055  00162E  0E03               	movlw	3
  3056  001630  0100               	movlb	0	; () banked
  3057  001632  65AB               	cpfsgt	generateWritePulses@i& (0+255),b
  3058  001634  D001               	goto	l40
  3059  001636  D021               	goto	l41
  3060  001638                     l40:
  3061                           
  3062                           ; BSR set to: 0
  3063                           ;programming.c: 58: LATBbits.LATB6 = 1;
  3064  001638  8C8A               	bsf	3978,6,c	;volatile
  3065                           
  3066                           ;programming.c: 59: (_delay((unsigned long)((1)*(12000000/4000000.0))));
  3067  00163A  D000               	nop2		;2 cycle nop
  3068  00163C  F000               	nop	
  3069                           
  3070                           ;programming.c: 60: if ((command >> i) & 0x01)
  3071  00163E  C0AB  F0A8         	movff	generateWritePulses@i,??_generateWritePulses
  3072  001642  C0A2  F0A9         	movff	generateWritePulses@command,??_generateWritePulses+1
  3073  001646  C0A3  F0AA         	movff	generateWritePulses@command+1,??_generateWritePulses+2
  3074  00164A  0100               	movlb	0	; () banked
  3075  00164C  2BA8               	incf	??_generateWritePulses& (0+255),f,b
  3076  00164E  D004               	goto	u3994
  3077  001650                     u3995:
  3078  001650  0100               	movlb	0	; () banked
  3079  001652  90D8               	bcf	status,0,c
  3080  001654  33AA               	rrcf	(??_generateWritePulses+2)& (0+255),f,b
  3081  001656  33A9               	rrcf	(??_generateWritePulses+1)& (0+255),f,b
  3082  001658                     u3994:
  3083  001658  0100               	movlb	0	; () banked
  3084  00165A  2FA8               	decfsz	??_generateWritePulses& (0+255),f,b
  3085  00165C  D7F9               	goto	u3995
  3086  00165E  0100               	movlb	0	; () banked
  3087  001660  A1A9               	btfss	(??_generateWritePulses+1)& (0+255),0,b
  3088  001662  D002               	goto	l42
  3089                           
  3090                           ; BSR set to: 0
  3091                           ;programming.c: 61: LATCbits.LATC4 = 1;
  3092  001664  888B               	bsf	3979,4,c	;volatile
  3093  001666  D001               	goto	l43
  3094  001668                     l42:
  3095                           
  3096                           ; BSR set to: 0
  3097                           ;programming.c: 62: else
  3098                           ;programming.c: 63: LATCbits.LATC4 = 0;
  3099  001668  988B               	bcf	3979,4,c	;volatile
  3100  00166A                     l43:
  3101                           
  3102                           ; BSR set to: 0
  3103                           ;programming.c: 64: (_delay((unsigned long)((1)*(12000000/4000000.0))));
  3104  00166A  D000               	nop2		;2 cycle nop
  3105  00166C  F000               	nop	
  3106                           
  3107                           ;programming.c: 65: LATBbits.LATB6 = 0;
  3108  00166E  9C8A               	bcf	3978,6,c	;volatile
  3109                           
  3110                           ;programming.c: 66: (_delay((unsigned long)((1)*(12000000/4000000.0))));
  3111  001670  D000               	nop2		;2 cycle nop
  3112  001672  F000               	nop	
  3113  001674  0100               	movlb	0	; () banked
  3114  001676  2BAB               	incf	generateWritePulses@i& (0+255),f,b
  3115  001678  D7DA               	goto	l4786
  3116  00167A                     l41:
  3117                           
  3118                           ; BSR set to: 0
  3119                           ;programming.c: 67: }
  3120                           ;programming.c: 68: (_delay((unsigned long)((1)*(12000000/4000000.0))));
  3121  00167A  D000               	nop2		;2 cycle nop
  3122  00167C  F000               	nop	
  3123                           
  3124                           ;programming.c: 69: for (BYTE i = 0; i < 8; i++) {
  3125  00167E  0E00               	movlw	0
  3126  001680  0100               	movlb	0	; () banked
  3127  001682  6FAC               	movwf	generateWritePulses@i_413& (0+255),b
  3128  001684                     l4800:
  3129                           
  3130                           ; BSR set to: 0
  3131  001684  0E07               	movlw	7
  3132  001686  0100               	movlb	0	; () banked
  3133  001688  65AC               	cpfsgt	generateWritePulses@i_413& (0+255),b
  3134  00168A  D001               	goto	l44
  3135  00168C  D021               	goto	l4812
  3136  00168E                     l44:
  3137                           
  3138                           ; BSR set to: 0
  3139                           ;programming.c: 70: LATBbits.LATB6 = 1;
  3140  00168E  8C8A               	bsf	3978,6,c	;volatile
  3141                           
  3142                           ;programming.c: 71: (_delay((unsigned long)((1)*(12000000/4000000.0))));
  3143  001690  D000               	nop2		;2 cycle nop
  3144  001692  F000               	nop	
  3145                           
  3146                           ;programming.c: 72: if ((payLoadLsb >> i) & 0x01)
  3147  001694  C0AC  F0A8         	movff	generateWritePulses@i_413,??_generateWritePulses
  3148  001698  C0A6  F0A9         	movff	generateWritePulses@payLoadLsb,??_generateWritePulses+1
  3149  00169C  C0A7  F0AA         	movff	generateWritePulses@payLoadLsb+1,??_generateWritePulses+2
  3150  0016A0  0100               	movlb	0	; () banked
  3151  0016A2  2BA8               	incf	??_generateWritePulses& (0+255),f,b
  3152  0016A4  D004               	goto	u4034
  3153  0016A6                     u4035:
  3154  0016A6  0100               	movlb	0	; () banked
  3155  0016A8  90D8               	bcf	status,0,c
  3156  0016AA  33AA               	rrcf	(??_generateWritePulses+2)& (0+255),f,b
  3157  0016AC  33A9               	rrcf	(??_generateWritePulses+1)& (0+255),f,b
  3158  0016AE                     u4034:
  3159  0016AE  0100               	movlb	0	; () banked
  3160  0016B0  2FA8               	decfsz	??_generateWritePulses& (0+255),f,b
  3161  0016B2  D7F9               	goto	u4035
  3162  0016B4  0100               	movlb	0	; () banked
  3163  0016B6  A1A9               	btfss	(??_generateWritePulses+1)& (0+255),0,b
  3164  0016B8  D002               	goto	l46
  3165                           
  3166                           ; BSR set to: 0
  3167                           ;programming.c: 73: LATCbits.LATC4 = 1;
  3168  0016BA  888B               	bsf	3979,4,c	;volatile
  3169  0016BC  D001               	goto	l47
  3170  0016BE                     l46:
  3171                           
  3172                           ; BSR set to: 0
  3173                           ;programming.c: 74: else
  3174                           ;programming.c: 75: LATCbits.LATC4 = 0;
  3175  0016BE  988B               	bcf	3979,4,c	;volatile
  3176  0016C0                     l47:
  3177                           
  3178                           ; BSR set to: 0
  3179                           ;programming.c: 76: (_delay((unsigned long)((1)*(12000000/4000000.0))));
  3180  0016C0  D000               	nop2		;2 cycle nop
  3181  0016C2  F000               	nop	
  3182                           
  3183                           ;programming.c: 77: LATBbits.LATB6 = 0;
  3184  0016C4  9C8A               	bcf	3978,6,c	;volatile
  3185                           
  3186                           ;programming.c: 78: (_delay((unsigned long)((1)*(12000000/4000000.0))));
  3187  0016C6  D000               	nop2		;2 cycle nop
  3188  0016C8  F000               	nop	
  3189  0016CA  0100               	movlb	0	; () banked
  3190  0016CC  2BAC               	incf	generateWritePulses@i_413& (0+255),f,b
  3191  0016CE  D7DA               	goto	l4800
  3192  0016D0                     l4812:
  3193                           
  3194                           ; BSR set to: 0
  3195                           ;programming.c: 79: }
  3196                           ;programming.c: 80: for (BYTE i = 0; i < 8; i++) {
  3197  0016D0  0E00               	movlw	0
  3198  0016D2  0100               	movlb	0	; () banked
  3199  0016D4  6FAD               	movwf	generateWritePulses@i_414& (0+255),b
  3200  0016D6                     l4814:
  3201                           
  3202                           ; BSR set to: 0
  3203  0016D6  0E07               	movlw	7
  3204  0016D8  0100               	movlb	0	; () banked
  3205  0016DA  65AD               	cpfsgt	generateWritePulses@i_414& (0+255),b
  3206  0016DC  D001               	goto	l48
  3207  0016DE  0012               	return	
  3208  0016E0                     l48:
  3209                           
  3210                           ; BSR set to: 0
  3211                           ;programming.c: 81: LATBbits.LATB6 = 1;
  3212  0016E0  8C8A               	bsf	3978,6,c	;volatile
  3213                           
  3214                           ;programming.c: 82: (_delay((unsigned long)((1)*(12000000/4000000.0))));
  3215  0016E2  D000               	nop2		;2 cycle nop
  3216  0016E4  F000               	nop	
  3217                           
  3218                           ;programming.c: 83: if ((payLoadMsb >> i) & 0x01)
  3219  0016E6  C0AD  F0A8         	movff	generateWritePulses@i_414,??_generateWritePulses
  3220  0016EA  C0A4  F0A9         	movff	generateWritePulses@payLoadMsb,??_generateWritePulses+1
  3221  0016EE  C0A5  F0AA         	movff	generateWritePulses@payLoadMsb+1,??_generateWritePulses+2
  3222  0016F2  0100               	movlb	0	; () banked
  3223  0016F4  2BA8               	incf	??_generateWritePulses& (0+255),f,b
  3224  0016F6  D004               	goto	u4074
  3225  0016F8                     u4075:
  3226  0016F8  0100               	movlb	0	; () banked
  3227  0016FA  90D8               	bcf	status,0,c
  3228  0016FC  33AA               	rrcf	(??_generateWritePulses+2)& (0+255),f,b
  3229  0016FE  33A9               	rrcf	(??_generateWritePulses+1)& (0+255),f,b
  3230  001700                     u4074:
  3231  001700  0100               	movlb	0	; () banked
  3232  001702  2FA8               	decfsz	??_generateWritePulses& (0+255),f,b
  3233  001704  D7F9               	goto	u4075
  3234  001706  0100               	movlb	0	; () banked
  3235  001708  A1A9               	btfss	(??_generateWritePulses+1)& (0+255),0,b
  3236  00170A  D002               	goto	l50
  3237                           
  3238                           ; BSR set to: 0
  3239                           ;programming.c: 84: LATCbits.LATC4 = 1;
  3240  00170C  888B               	bsf	3979,4,c	;volatile
  3241  00170E  D001               	goto	l51
  3242  001710                     l50:
  3243                           
  3244                           ; BSR set to: 0
  3245                           ;programming.c: 85: else
  3246                           ;programming.c: 86: LATCbits.LATC4 = 0;
  3247  001710  988B               	bcf	3979,4,c	;volatile
  3248  001712                     l51:
  3249                           
  3250                           ; BSR set to: 0
  3251                           ;programming.c: 87: (_delay((unsigned long)((1)*(12000000/4000000.0))));
  3252  001712  D000               	nop2		;2 cycle nop
  3253  001714  F000               	nop	
  3254                           
  3255                           ;programming.c: 88: LATBbits.LATB6 = 0;
  3256  001716  9C8A               	bcf	3978,6,c	;volatile
  3257                           
  3258                           ;programming.c: 89: (_delay((unsigned long)((1)*(12000000/4000000.0))));
  3259  001718  D000               	nop2		;2 cycle nop
  3260  00171A  F000               	nop	
  3261  00171C  0100               	movlb	0	; () banked
  3262  00171E  2BAD               	incf	generateWritePulses@i_414& (0+255),f,b
  3263  001720  D7DA               	goto	l4814
  3264  001722                     __end_of_generateWritePulses:
  3265                           	opt stack 0
  3266                           tblptru	equ	0xFF8
  3267                           tblptrh	equ	0xFF7
  3268                           tblptrl	equ	0xFF6
  3269                           tablat	equ	0xFF5
  3270                           prodh	equ	0xFF4
  3271                           prodl	equ	0xFF3
  3272                           intcon	equ	0xFF2
  3273                           postinc0	equ	0xFEE
  3274                           wreg	equ	0xFE8
  3275                           indf1	equ	0xFE7
  3276                           postdec1	equ	0xFE5
  3277                           fsr1h	equ	0xFE2
  3278                           fsr1l	equ	0xFE1
  3279                           indf2	equ	0xFDF
  3280                           postinc2	equ	0xFDE
  3281                           postdec2	equ	0xFDD
  3282                           fsr2h	equ	0xFDA
  3283                           fsr2l	equ	0xFD9
  3284                           status	equ	0xFD8
  3285                           
  3286 ;; *************** function _generateReadPulses *****************
  3287 ;; Defined at:
  3288 ;;		line 93 in file "libs/programming.c"
  3289 ;; Parameters:    Size  Location     Type
  3290 ;;  command         2    0[BANK0 ] unsigned int 
  3291 ;; Auto vars:     Size  Location     Type
  3292 ;;  i               1    8[BANK0 ] unsigned char 
  3293 ;;  i               1    7[BANK0 ] unsigned char 
  3294 ;;  OUT             2    5[BANK0 ] struct _WORD_VAL
  3295 ;; Return value:  Size  Location     Type
  3296 ;;                  2    0[BANK0 ] struct _WORD_VAL
  3297 ;; Registers used:
  3298 ;;		wreg, status,2, status,0
  3299 ;; Tracked objects:
  3300 ;;		On entry : 0/0
  3301 ;;		On exit  : 0/0
  3302 ;;		Unchanged: 0/0
  3303 ;; Data sizes:     COMRAM   BANK0   BANK1   BANK2
  3304 ;;      Params:         0       2       0       0
  3305 ;;      Locals:         0       4       0       0
  3306 ;;      Temps:          0       3       0       0
  3307 ;;      Totals:         0       9       0       0
  3308 ;;Total ram usage:        9 bytes
  3309 ;; Hardware stack levels used:    1
  3310 ;; Hardware stack levels required when called:   10
  3311 ;; This function calls:
  3312 ;;		Nothing
  3313 ;; This function is called by:
  3314 ;;		_readEepromByte
  3315 ;;		_writeEepromByte
  3316 ;; This function uses a non-reentrant model
  3317 ;;
  3318                           
  3319                           	psect	text11
  3320  001B9A                     __ptext11:
  3321                           	opt stack 0
  3322  001B9A                     _generateReadPulses:
  3323                           	opt stack 18
  3324                           
  3325                           ;programming.c: 94: WORD_VAL OUT;
  3326                           ;programming.c: 95: OUT.Val = 0x0000;
  3327                           
  3328                           ; BSR set to: 0
  3329                           ;incstack = 0
  3330  001B9A  0E00               	movlw	0
  3331  001B9C  0100               	movlb	0	; () banked
  3332  001B9E  6FA8               	movwf	(generateReadPulses@OUT+1)& (0+255),b
  3333  001BA0  0E00               	movlw	0
  3334  001BA2  6FA7               	movwf	generateReadPulses@OUT& (0+255),b
  3335                           
  3336                           ;programming.c: 96: for (BYTE i = 0; i < 4; i++) {
  3337  001BA4  0E00               	movlw	0
  3338  001BA6  0100               	movlb	0	; () banked
  3339  001BA8  6FA9               	movwf	generateReadPulses@i& (0+255),b
  3340  001BAA                     l4828:
  3341                           
  3342                           ; BSR set to: 0
  3343  001BAA  0E03               	movlw	3
  3344  001BAC  0100               	movlb	0	; () banked
  3345  001BAE  65A9               	cpfsgt	generateReadPulses@i& (0+255),b
  3346  001BB0  D001               	goto	l55
  3347  001BB2  D021               	goto	l56
  3348  001BB4                     l55:
  3349                           
  3350                           ; BSR set to: 0
  3351                           ;programming.c: 97: LATBbits.LATB6 = 1;
  3352  001BB4  8C8A               	bsf	3978,6,c	;volatile
  3353                           
  3354                           ;programming.c: 98: (_delay((unsigned long)((1)*(12000000/4000000.0))));
  3355  001BB6  D000               	nop2		;2 cycle nop
  3356  001BB8  F000               	nop	
  3357                           
  3358                           ;programming.c: 99: if ((command >> i) & 0x01)
  3359  001BBA  C0A9  F0A4         	movff	generateReadPulses@i,??_generateReadPulses
  3360  001BBE  C0A2  F0A5         	movff	generateReadPulses@command,??_generateReadPulses+1
  3361  001BC2  C0A3  F0A6         	movff	generateReadPulses@command+1,??_generateReadPulses+2
  3362  001BC6  0100               	movlb	0	; () banked
  3363  001BC8  2BA4               	incf	??_generateReadPulses& (0+255),f,b
  3364  001BCA  D004               	goto	u4114
  3365  001BCC                     u4115:
  3366  001BCC  0100               	movlb	0	; () banked
  3367  001BCE  90D8               	bcf	status,0,c
  3368  001BD0  33A6               	rrcf	(??_generateReadPulses+2)& (0+255),f,b
  3369  001BD2  33A5               	rrcf	(??_generateReadPulses+1)& (0+255),f,b
  3370  001BD4                     u4114:
  3371  001BD4  0100               	movlb	0	; () banked
  3372  001BD6  2FA4               	decfsz	??_generateReadPulses& (0+255),f,b
  3373  001BD8  D7F9               	goto	u4115
  3374  001BDA  0100               	movlb	0	; () banked
  3375  001BDC  A1A5               	btfss	(??_generateReadPulses+1)& (0+255),0,b
  3376  001BDE  D002               	goto	l57
  3377                           
  3378                           ; BSR set to: 0
  3379                           ;programming.c: 100: LATCbits.LATC4 = 1;
  3380  001BE0  888B               	bsf	3979,4,c	;volatile
  3381  001BE2  D001               	goto	l58
  3382  001BE4                     l57:
  3383                           
  3384                           ; BSR set to: 0
  3385                           ;programming.c: 101: else
  3386                           ;programming.c: 102: LATCbits.LATC4 = 0;
  3387  001BE4  988B               	bcf	3979,4,c	;volatile
  3388  001BE6                     l58:
  3389                           
  3390                           ; BSR set to: 0
  3391                           ;programming.c: 103: (_delay((unsigned long)((1)*(12000000/4000000.0))));
  3392  001BE6  D000               	nop2		;2 cycle nop
  3393  001BE8  F000               	nop	
  3394                           
  3395                           ;programming.c: 104: LATBbits.LATB6 = 0;
  3396  001BEA  9C8A               	bcf	3978,6,c	;volatile
  3397                           
  3398                           ;programming.c: 105: (_delay((unsigned long)((1)*(12000000/4000000.0))));
  3399  001BEC  D000               	nop2		;2 cycle nop
  3400  001BEE  F000               	nop	
  3401  001BF0  0100               	movlb	0	; () banked
  3402  001BF2  2BA9               	incf	generateReadPulses@i& (0+255),f,b
  3403  001BF4  D7DA               	goto	l4828
  3404  001BF6                     l56:
  3405                           
  3406                           ; BSR set to: 0
  3407                           ;programming.c: 106: }
  3408                           ;programming.c: 107: TRISCbits.TRISC4 = 1;
  3409  001BF6  8894               	bsf	3988,4,c	;volatile
  3410                           
  3411                           ; BSR set to: 0
  3412                           ;programming.c: 108: for (BYTE i = 0; i < 16; i++) {
  3413  001BF8  0E00               	movlw	0
  3414  001BFA  0100               	movlb	0	; () banked
  3415  001BFC  6FAA               	movwf	generateReadPulses@i_441& (0+255),b
  3416  001BFE                     l4842:
  3417                           
  3418                           ; BSR set to: 0
  3419  001BFE  0E0F               	movlw	15
  3420  001C00  0100               	movlb	0	; () banked
  3421  001C02  65AA               	cpfsgt	generateReadPulses@i_441& (0+255),b
  3422  001C04  D001               	goto	l59
  3423  001C06  D02B               	goto	l60
  3424  001C08                     l59:
  3425                           
  3426                           ; BSR set to: 0
  3427                           ;programming.c: 109: LATBbits.LATB6 = 1;
  3428  001C08  8C8A               	bsf	3978,6,c	;volatile
  3429                           
  3430                           ;programming.c: 110: (_delay((unsigned long)((1)*(12000000/4000000.0))));
  3431  001C0A  D000               	nop2		;2 cycle nop
  3432  001C0C  F000               	nop	
  3433                           
  3434                           ;programming.c: 111: if (PORTCbits.RC4 == 1)
  3435  001C0E  A882               	btfss	3970,4,c	;volatile
  3436  001C10  D01E               	goto	l4848
  3437                           
  3438                           ;programming.c: 112: OUT.Val = OUT.Val | ((WORD)(0x0001<<i));
  3439  001C12  C0AA  F0A4         	movff	generateReadPulses@i_441,??_generateReadPulses
  3440  001C16  0E01               	movlw	1
  3441  001C18  0100               	movlb	0	; () banked
  3442  001C1A  6FA5               	movwf	(??_generateReadPulses+1)& (0+255),b
  3443  001C1C  0E00               	movlw	0
  3444  001C1E  0100               	movlb	0	; () banked
  3445  001C20  6FA6               	movwf	(??_generateReadPulses+2)& (0+255),b
  3446  001C22  0100               	movlb	0	; () banked
  3447  001C24  2BA4               	incf	??_generateReadPulses& (0+255),f,b
  3448  001C26  D004               	goto	u4164
  3449  001C28                     u4165:
  3450  001C28  90D8               	bcf	status,0,c
  3451  001C2A  0100               	movlb	0	; () banked
  3452  001C2C  37A5               	rlcf	(??_generateReadPulses+1)& (0+255),f,b
  3453  001C2E  37A6               	rlcf	(??_generateReadPulses+2)& (0+255),f,b
  3454  001C30                     u4164:
  3455  001C30  0100               	movlb	0	; () banked
  3456  001C32  2FA4               	decfsz	??_generateReadPulses& (0+255),f,b
  3457  001C34  D7F9               	goto	u4165
  3458  001C36  0100               	movlb	0	; () banked
  3459  001C38  51A7               	movf	generateReadPulses@OUT& (0+255),w,b
  3460  001C3A  0100               	movlb	0	; () banked
  3461  001C3C  11A5               	iorwf	(??_generateReadPulses+1)& (0+255),w,b
  3462  001C3E  0100               	movlb	0	; () banked
  3463  001C40  6FA7               	movwf	generateReadPulses@OUT& (0+255),b
  3464  001C42  0100               	movlb	0	; () banked
  3465  001C44  51A8               	movf	(generateReadPulses@OUT+1)& (0+255),w,b
  3466  001C46  0100               	movlb	0	; () banked
  3467  001C48  11A6               	iorwf	(??_generateReadPulses+2)& (0+255),w,b
  3468  001C4A  0100               	movlb	0	; () banked
  3469  001C4C  6FA8               	movwf	(generateReadPulses@OUT+1)& (0+255),b
  3470  001C4E                     l4848:
  3471                           
  3472                           ;programming.c: 113: (_delay((unsigned long)((1)*(12000000/4000000.0))));
  3473  001C4E  D000               	nop2		;2 cycle nop
  3474  001C50  F000               	nop	
  3475                           
  3476                           ;programming.c: 114: LATBbits.LATB6 = 0;
  3477  001C52  9C8A               	bcf	3978,6,c	;volatile
  3478                           
  3479                           ;programming.c: 115: (_delay((unsigned long)((1)*(12000000/4000000.0))));
  3480  001C54  D000               	nop2		;2 cycle nop
  3481  001C56  F000               	nop	
  3482  001C58  0100               	movlb	0	; () banked
  3483  001C5A  2BAA               	incf	generateReadPulses@i_441& (0+255),f,b
  3484  001C5C  D7D0               	goto	l4842
  3485  001C5E                     l60:
  3486                           
  3487                           ; BSR set to: 0
  3488                           ;programming.c: 116: }
  3489                           ;programming.c: 117: TRISCbits.TRISC4 = 0;
  3490  001C5E  9894               	bcf	3988,4,c	;volatile
  3491                           
  3492                           ;programming.c: 118: return OUT;
  3493  001C60  C0A7  F0A2         	movff	generateReadPulses@OUT,?_generateReadPulses
  3494  001C64  C0A8  F0A3         	movff	generateReadPulses@OUT+1,?_generateReadPulses+1
  3495                           
  3496                           ; BSR set to: 0
  3497  001C68  0012               	return		;funcret
  3498  001C6A                     __end_of_generateReadPulses:
  3499                           	opt stack 0
  3500                           tblptru	equ	0xFF8
  3501                           tblptrh	equ	0xFF7
  3502                           tblptrl	equ	0xFF6
  3503                           tablat	equ	0xFF5
  3504                           prodh	equ	0xFF4
  3505                           prodl	equ	0xFF3
  3506                           intcon	equ	0xFF2
  3507                           postinc0	equ	0xFEE
  3508                           wreg	equ	0xFE8
  3509                           indf1	equ	0xFE7
  3510                           postdec1	equ	0xFE5
  3511                           fsr1h	equ	0xFE2
  3512                           fsr1l	equ	0xFE1
  3513                           indf2	equ	0xFDF
  3514                           postinc2	equ	0xFDE
  3515                           postdec2	equ	0xFDD
  3516                           fsr2h	equ	0xFDA
  3517                           fsr2l	equ	0xFD9
  3518                           status	equ	0xFD8
  3519                           
  3520 ;; *************** function _exitICSP *****************
  3521 ;; Defined at:
  3522 ;;		line 48 in file "libs/programming.c"
  3523 ;; Parameters:    Size  Location     Type
  3524 ;;		None
  3525 ;; Auto vars:     Size  Location     Type
  3526 ;;		None
  3527 ;; Return value:  Size  Location     Type
  3528 ;;                  1    wreg      void 
  3529 ;; Registers used:
  3530 ;;		cstack
  3531 ;; Tracked objects:
  3532 ;;		On entry : 0/0
  3533 ;;		On exit  : 0/0
  3534 ;;		Unchanged: 0/0
  3535 ;; Data sizes:     COMRAM   BANK0   BANK1   BANK2
  3536 ;;      Params:         0       0       0       0
  3537 ;;      Locals:         0       0       0       0
  3538 ;;      Temps:          0       0       0       0
  3539 ;;      Totals:         0       0       0       0
  3540 ;;Total ram usage:        0 bytes
  3541 ;; Hardware stack levels used:    1
  3542 ;; Hardware stack levels required when called:   12
  3543 ;; This function calls:
  3544 ;;		_exitHighVoltageICSP
  3545 ;;		_exitLowVoltageICSP
  3546 ;; This function is called by:
  3547 ;;		_readEepromByte
  3548 ;;		_writeEepromByte
  3549 ;; This function uses a non-reentrant model
  3550 ;;
  3551                           
  3552                           	psect	text12
  3553  0028A0                     __ptext12:
  3554                           	opt stack 0
  3555  0028A0                     _exitICSP:
  3556                           	opt stack 16
  3557                           
  3558                           ;programming.c: 50: exitLowVoltageICSP();
  3559                           
  3560                           ; BSR set to: 0
  3561                           ;incstack = 0
  3562  0028A0  EC3D  F014         	call	_exitLowVoltageICSP	;wreg free
  3563  0028A4  0012               	return	
  3564  0028A6                     __end_of_exitICSP:
  3565                           	opt stack 0
  3566                           tblptru	equ	0xFF8
  3567                           tblptrh	equ	0xFF7
  3568                           tblptrl	equ	0xFF6
  3569                           tablat	equ	0xFF5
  3570                           prodh	equ	0xFF4
  3571                           prodl	equ	0xFF3
  3572                           intcon	equ	0xFF2
  3573                           postinc0	equ	0xFEE
  3574                           wreg	equ	0xFE8
  3575                           indf1	equ	0xFE7
  3576                           postdec1	equ	0xFE5
  3577                           fsr1h	equ	0xFE2
  3578                           fsr1l	equ	0xFE1
  3579                           indf2	equ	0xFDF
  3580                           postinc2	equ	0xFDE
  3581                           postdec2	equ	0xFDD
  3582                           fsr2h	equ	0xFDA
  3583                           fsr2l	equ	0xFD9
  3584                           status	equ	0xFD8
  3585                           
  3586 ;; *************** function _exitLowVoltageICSP *****************
  3587 ;; Defined at:
  3588 ;;		line 25 in file "libs/programming.c"
  3589 ;; Parameters:    Size  Location     Type
  3590 ;;		None
  3591 ;; Auto vars:     Size  Location     Type
  3592 ;;		None
  3593 ;; Return value:  Size  Location     Type
  3594 ;;                  1    wreg      void 
  3595 ;; Registers used:
  3596 ;;		cstack
  3597 ;; Tracked objects:
  3598 ;;		On entry : 0/0
  3599 ;;		On exit  : 0/0
  3600 ;;		Unchanged: 0/0
  3601 ;; Data sizes:     COMRAM   BANK0   BANK1   BANK2
  3602 ;;      Params:         0       0       0       0
  3603 ;;      Locals:         0       0       0       0
  3604 ;;      Temps:          0       0       0       0
  3605 ;;      Totals:         0       0       0       0
  3606 ;;Total ram usage:        0 bytes
  3607 ;; Hardware stack levels used:    1
  3608 ;; Hardware stack levels required when called:   11
  3609 ;; This function calls:
  3610 ;;		_setTrisToOut
  3611 ;; This function is called by:
  3612 ;;		_exitICSP
  3613 ;; This function uses a non-reentrant model
  3614 ;;
  3615                           
  3616                           	psect	text13
  3617  00287A                     __ptext13:
  3618                           	opt stack 0
  3619  00287A                     _exitLowVoltageICSP:
  3620                           	opt stack 16
  3621                           
  3622                           ;programming.c: 26: setTrisToOut ();
  3623                           
  3624                           ;incstack = 0
  3625  00287A  EC4B  F014         	call	_setTrisToOut	;wreg free
  3626                           
  3627                           ;programming.c: 27: LATCbits.LATC4 = 0;
  3628  00287E  988B               	bcf	3979,4,c	;volatile
  3629                           
  3630                           ;programming.c: 28: LATBbits.LATB6 = 0;
  3631  002880  9C8A               	bcf	3978,6,c	;volatile
  3632                           
  3633                           ;programming.c: 30: LATCbits.LATC6 = 0;
  3634                           
  3635                           ;programming.c: 29: (_delay((unsigned long)((0)*(12000000/4000000.0))));
  3636  002882  9C8B               	bcf	3979,6,c	;volatile
  3637                           
  3638                           ;programming.c: 32: LATBbits.LATB5 = 0;
  3639                           
  3640                           ;programming.c: 31: (_delay((unsigned long)((0)*(12000000/4000000.0))));
  3641  002884  9A8A               	bcf	3978,5,c	;volatile
  3642  002886  0012               	return		;funcret
  3643  002888                     __end_of_exitLowVoltageICSP:
  3644                           	opt stack 0
  3645                           tblptru	equ	0xFF8
  3646                           tblptrh	equ	0xFF7
  3647                           tblptrl	equ	0xFF6
  3648                           tablat	equ	0xFF5
  3649                           prodh	equ	0xFF4
  3650                           prodl	equ	0xFF3
  3651                           intcon	equ	0xFF2
  3652                           postinc0	equ	0xFEE
  3653                           wreg	equ	0xFE8
  3654                           indf1	equ	0xFE7
  3655                           postdec1	equ	0xFE5
  3656                           fsr1h	equ	0xFE2
  3657                           fsr1l	equ	0xFE1
  3658                           indf2	equ	0xFDF
  3659                           postinc2	equ	0xFDE
  3660                           postdec2	equ	0xFDD
  3661                           fsr2h	equ	0xFDA
  3662                           fsr2l	equ	0xFD9
  3663                           status	equ	0xFD8
  3664                           
  3665 ;; *************** function _exitHighVoltageICSP *****************
  3666 ;; Defined at:
  3667 ;;		line 38 in file "libs/programming.c"
  3668 ;; Parameters:    Size  Location     Type
  3669 ;;		None
  3670 ;; Auto vars:     Size  Location     Type
  3671 ;;		None
  3672 ;; Return value:  Size  Location     Type
  3673 ;;                  1    wreg      void 
  3674 ;; Registers used:
  3675 ;;		None
  3676 ;; Tracked objects:
  3677 ;;		On entry : 0/0
  3678 ;;		On exit  : 0/0
  3679 ;;		Unchanged: 0/0
  3680 ;; Data sizes:     COMRAM   BANK0   BANK1   BANK2
  3681 ;;      Params:         0       0       0       0
  3682 ;;      Locals:         0       0       0       0
  3683 ;;      Temps:          0       0       0       0
  3684 ;;      Totals:         0       0       0       0
  3685 ;;Total ram usage:        0 bytes
  3686 ;; Hardware stack levels used:    1
  3687 ;; Hardware stack levels required when called:   10
  3688 ;; This function calls:
  3689 ;;		Nothing
  3690 ;; This function is called by:
  3691 ;;		_exitICSP
  3692 ;; This function uses a non-reentrant model
  3693 ;;
  3694                           
  3695                           	psect	text14
  3696  0028AC                     __ptext14:
  3697                           	opt stack 0
  3698  0028AC                     _exitHighVoltageICSP:
  3699                           	opt stack 17
  3700                           
  3701                           ;incstack = 0
  3702  0028AC  0012               	return		;funcret
  3703  0028AE                     __end_of_exitHighVoltageICSP:
  3704                           	opt stack 0
  3705                           tblptru	equ	0xFF8
  3706                           tblptrh	equ	0xFF7
  3707                           tblptrl	equ	0xFF6
  3708                           tablat	equ	0xFF5
  3709                           prodh	equ	0xFF4
  3710                           prodl	equ	0xFF3
  3711                           intcon	equ	0xFF2
  3712                           postinc0	equ	0xFEE
  3713                           wreg	equ	0xFE8
  3714                           indf1	equ	0xFE7
  3715                           postdec1	equ	0xFE5
  3716                           fsr1h	equ	0xFE2
  3717                           fsr1l	equ	0xFE1
  3718                           indf2	equ	0xFDF
  3719                           postinc2	equ	0xFDE
  3720                           postdec2	equ	0xFDD
  3721                           fsr2h	equ	0xFDA
  3722                           fsr2l	equ	0xFD9
  3723                           status	equ	0xFD8
  3724                           
  3725 ;; *************** function _enterICSP *****************
  3726 ;; Defined at:
  3727 ;;		line 42 in file "libs/programming.c"
  3728 ;; Parameters:    Size  Location     Type
  3729 ;;		None
  3730 ;; Auto vars:     Size  Location     Type
  3731 ;;		None
  3732 ;; Return value:  Size  Location     Type
  3733 ;;                  1    wreg      void 
  3734 ;; Registers used:
  3735 ;;		wreg, cstack
  3736 ;; Tracked objects:
  3737 ;;		On entry : 0/0
  3738 ;;		On exit  : 0/0
  3739 ;;		Unchanged: 0/0
  3740 ;; Data sizes:     COMRAM   BANK0   BANK1   BANK2
  3741 ;;      Params:         0       0       0       0
  3742 ;;      Locals:         0       0       0       0
  3743 ;;      Temps:          0       0       0       0
  3744 ;;      Totals:         0       0       0       0
  3745 ;;Total ram usage:        0 bytes
  3746 ;; Hardware stack levels used:    1
  3747 ;; Hardware stack levels required when called:   12
  3748 ;; This function calls:
  3749 ;;		_enterHighVoltageICSP
  3750 ;;		_enterLowVoltageICSP
  3751 ;; This function is called by:
  3752 ;;		_readEepromByte
  3753 ;;		_writeEepromByte
  3754 ;; This function uses a non-reentrant model
  3755 ;;
  3756                           
  3757                           	psect	text15
  3758  0028A6                     __ptext15:
  3759                           	opt stack 0
  3760  0028A6                     _enterICSP:
  3761                           	opt stack 16
  3762                           
  3763                           ;programming.c: 44: enterLowVoltageICSP();
  3764                           
  3765                           ;incstack = 0
  3766  0028A6  EC78  F013         	call	_enterLowVoltageICSP	;wreg free
  3767  0028AA  0012               	return	
  3768  0028AC                     __end_of_enterICSP:
  3769                           	opt stack 0
  3770                           tblptru	equ	0xFF8
  3771                           tblptrh	equ	0xFF7
  3772                           tblptrl	equ	0xFF6
  3773                           tablat	equ	0xFF5
  3774                           prodh	equ	0xFF4
  3775                           prodl	equ	0xFF3
  3776                           intcon	equ	0xFF2
  3777                           postinc0	equ	0xFEE
  3778                           wreg	equ	0xFE8
  3779                           indf1	equ	0xFE7
  3780                           postdec1	equ	0xFE5
  3781                           fsr1h	equ	0xFE2
  3782                           fsr1l	equ	0xFE1
  3783                           indf2	equ	0xFDF
  3784                           postinc2	equ	0xFDE
  3785                           postdec2	equ	0xFDD
  3786                           fsr2h	equ	0xFDA
  3787                           fsr2l	equ	0xFD9
  3788                           status	equ	0xFD8
  3789                           
  3790 ;; *************** function _enterLowVoltageICSP *****************
  3791 ;; Defined at:
  3792 ;;		line 11 in file "libs/programming.c"
  3793 ;; Parameters:    Size  Location     Type
  3794 ;;		None
  3795 ;; Auto vars:     Size  Location     Type
  3796 ;;		None
  3797 ;; Return value:  Size  Location     Type
  3798 ;;                  1    wreg      void 
  3799 ;; Registers used:
  3800 ;;		wreg, cstack
  3801 ;; Tracked objects:
  3802 ;;		On entry : 0/0
  3803 ;;		On exit  : 0/0
  3804 ;;		Unchanged: 0/0
  3805 ;; Data sizes:     COMRAM   BANK0   BANK1   BANK2
  3806 ;;      Params:         0       0       0       0
  3807 ;;      Locals:         0       0       0       0
  3808 ;;      Temps:          0       1       0       0
  3809 ;;      Totals:         0       1       0       0
  3810 ;;Total ram usage:        1 bytes
  3811 ;; Hardware stack levels used:    1
  3812 ;; Hardware stack levels required when called:   11
  3813 ;; This function calls:
  3814 ;;		_setTrisToOut
  3815 ;; This function is called by:
  3816 ;;		_enterICSP
  3817 ;; This function uses a non-reentrant model
  3818 ;;
  3819                           
  3820                           	psect	text16
  3821  0026F0                     __ptext16:
  3822                           	opt stack 0
  3823  0026F0                     _enterLowVoltageICSP:
  3824                           	opt stack 16
  3825                           
  3826                           ;programming.c: 12: setTrisToOut ();
  3827                           
  3828                           ;incstack = 0
  3829  0026F0  EC4B  F014         	call	_setTrisToOut	;wreg free
  3830                           
  3831                           ;programming.c: 14: LATCbits.LATC6 = 0;
  3832  0026F4  9C8B               	bcf	3979,6,c	;volatile
  3833                           
  3834                           ;programming.c: 15: LATCbits.LATC4 = 0;
  3835  0026F6  988B               	bcf	3979,4,c	;volatile
  3836                           
  3837                           ;programming.c: 16: LATBbits.LATB6 = 0;
  3838  0026F8  9C8A               	bcf	3978,6,c	;volatile
  3839                           
  3840                           ;programming.c: 17: LATBbits.LATB5 = 0;
  3841  0026FA  9A8A               	bcf	3978,5,c	;volatile
  3842                           
  3843                           ;programming.c: 18: _delay((unsigned long)((1)*(12000000/4000.0)));
  3844  0026FC  0E04               	movlw	4
  3845  0026FE  0100               	movlb	0	; () banked
  3846  002700  6FA2               	movwf	??_enterLowVoltageICSP& (0+255),b
  3847  002702  0EE4               	movlw	228
  3848  002704                     u4697:
  3849  002704  2EE8               	decfsz	wreg,f,c
  3850  002706  D7FE               	bra	u4697
  3851  002708  2FA2               	decfsz	??_enterLowVoltageICSP& (0+255),f,b
  3852  00270A  D7FC               	bra	u4697
  3853  00270C  F000               	nop	
  3854                           
  3855                           ;programming.c: 19: LATBbits.LATB5 = 1;
  3856  00270E  8A8A               	bsf	3978,5,c	;volatile
  3857                           
  3858                           ;programming.c: 20: (_delay((unsigned long)((2)*(12000000/4000000.0))));
  3859  002710  D000               	nop2		;2 cycle nop
  3860  002712  D000               	nop2		;2 cycle nop
  3861  002714  D000               	nop2		;2 cycle nop
  3862                           
  3863                           ;programming.c: 21: LATCbits.LATC6 = 1;
  3864  002716  8C8B               	bsf	3979,6,c	;volatile
  3865                           
  3866                           ;programming.c: 22: (_delay((unsigned long)((2)*(12000000/4000000.0))));
  3867  002718  D000               	nop2		;2 cycle nop
  3868  00271A  D000               	nop2		;2 cycle nop
  3869  00271C  D000               	nop2		;2 cycle nop
  3870  00271E  0012               	return		;funcret
  3871  002720                     __end_of_enterLowVoltageICSP:
  3872                           	opt stack 0
  3873                           tblptru	equ	0xFF8
  3874                           tblptrh	equ	0xFF7
  3875                           tblptrl	equ	0xFF6
  3876                           tablat	equ	0xFF5
  3877                           prodh	equ	0xFF4
  3878                           prodl	equ	0xFF3
  3879                           intcon	equ	0xFF2
  3880                           postinc0	equ	0xFEE
  3881                           wreg	equ	0xFE8
  3882                           indf1	equ	0xFE7
  3883                           postdec1	equ	0xFE5
  3884                           fsr1h	equ	0xFE2
  3885                           fsr1l	equ	0xFE1
  3886                           indf2	equ	0xFDF
  3887                           postinc2	equ	0xFDE
  3888                           postdec2	equ	0xFDD
  3889                           fsr2h	equ	0xFDA
  3890                           fsr2l	equ	0xFD9
  3891                           status	equ	0xFD8
  3892                           
  3893 ;; *************** function _setTrisToOut *****************
  3894 ;; Defined at:
  3895 ;;		line 4 in file "libs/programming.c"
  3896 ;; Parameters:    Size  Location     Type
  3897 ;;		None
  3898 ;; Auto vars:     Size  Location     Type
  3899 ;;		None
  3900 ;; Return value:  Size  Location     Type
  3901 ;;                  1    wreg      void 
  3902 ;; Registers used:
  3903 ;;		None
  3904 ;; Tracked objects:
  3905 ;;		On entry : 0/0
  3906 ;;		On exit  : 0/0
  3907 ;;		Unchanged: 0/0
  3908 ;; Data sizes:     COMRAM   BANK0   BANK1   BANK2
  3909 ;;      Params:         0       0       0       0
  3910 ;;      Locals:         0       0       0       0
  3911 ;;      Temps:          0       0       0       0
  3912 ;;      Totals:         0       0       0       0
  3913 ;;Total ram usage:        0 bytes
  3914 ;; Hardware stack levels used:    1
  3915 ;; Hardware stack levels required when called:   10
  3916 ;; This function calls:
  3917 ;;		Nothing
  3918 ;; This function is called by:
  3919 ;;		_enterLowVoltageICSP
  3920 ;;		_exitLowVoltageICSP
  3921 ;; This function uses a non-reentrant model
  3922 ;;
  3923                           
  3924                           	psect	text17
  3925  002896                     __ptext17:
  3926                           	opt stack 0
  3927  002896                     _setTrisToOut:
  3928                           	opt stack 16
  3929                           
  3930                           ;programming.c: 5: TRISCbits.TRISC6 = 0;
  3931                           
  3932                           ;incstack = 0
  3933  002896  9C94               	bcf	3988,6,c	;volatile
  3934                           
  3935                           ;programming.c: 6: TRISCbits.TRISC4 = 0;
  3936  002898  9894               	bcf	3988,4,c	;volatile
  3937                           
  3938                           ;programming.c: 7: TRISBbits.TRISB6 = 0;
  3939  00289A  9C93               	bcf	3987,6,c	;volatile
  3940                           
  3941                           ;programming.c: 8: TRISBbits.TRISB5 = 0;
  3942  00289C  9A93               	bcf	3987,5,c	;volatile
  3943  00289E  0012               	return		;funcret
  3944  0028A0                     __end_of_setTrisToOut:
  3945                           	opt stack 0
  3946                           tblptru	equ	0xFF8
  3947                           tblptrh	equ	0xFF7
  3948                           tblptrl	equ	0xFF6
  3949                           tablat	equ	0xFF5
  3950                           prodh	equ	0xFF4
  3951                           prodl	equ	0xFF3
  3952                           intcon	equ	0xFF2
  3953                           postinc0	equ	0xFEE
  3954                           wreg	equ	0xFE8
  3955                           indf1	equ	0xFE7
  3956                           postdec1	equ	0xFE5
  3957                           fsr1h	equ	0xFE2
  3958                           fsr1l	equ	0xFE1
  3959                           indf2	equ	0xFDF
  3960                           postinc2	equ	0xFDE
  3961                           postdec2	equ	0xFDD
  3962                           fsr2h	equ	0xFDA
  3963                           fsr2l	equ	0xFD9
  3964                           status	equ	0xFD8
  3965                           
  3966 ;; *************** function _enterHighVoltageICSP *****************
  3967 ;; Defined at:
  3968 ;;		line 34 in file "libs/programming.c"
  3969 ;; Parameters:    Size  Location     Type
  3970 ;;		None
  3971 ;; Auto vars:     Size  Location     Type
  3972 ;;		None
  3973 ;; Return value:  Size  Location     Type
  3974 ;;                  1    wreg      void 
  3975 ;; Registers used:
  3976 ;;		None
  3977 ;; Tracked objects:
  3978 ;;		On entry : 0/0
  3979 ;;		On exit  : 0/0
  3980 ;;		Unchanged: 0/0
  3981 ;; Data sizes:     COMRAM   BANK0   BANK1   BANK2
  3982 ;;      Params:         0       0       0       0
  3983 ;;      Locals:         0       0       0       0
  3984 ;;      Temps:          0       0       0       0
  3985 ;;      Totals:         0       0       0       0
  3986 ;;Total ram usage:        0 bytes
  3987 ;; Hardware stack levels used:    1
  3988 ;; Hardware stack levels required when called:   10
  3989 ;; This function calls:
  3990 ;;		Nothing
  3991 ;; This function is called by:
  3992 ;;		_enterICSP
  3993 ;; This function uses a non-reentrant model
  3994 ;;
  3995                           
  3996                           	psect	text18
  3997  0028AE                     __ptext18:
  3998                           	opt stack 0
  3999  0028AE                     _enterHighVoltageICSP:
  4000                           	opt stack 17
  4001                           
  4002                           ;incstack = 0
  4003  0028AE  0012               	return		;funcret
  4004  0028B0                     __end_of_enterHighVoltageICSP:
  4005                           	opt stack 0
  4006                           tblptru	equ	0xFF8
  4007                           tblptrh	equ	0xFF7
  4008                           tblptrl	equ	0xFF6
  4009                           tablat	equ	0xFF5
  4010                           prodh	equ	0xFF4
  4011                           prodl	equ	0xFF3
  4012                           intcon	equ	0xFF2
  4013                           postinc0	equ	0xFEE
  4014                           wreg	equ	0xFE8
  4015                           indf1	equ	0xFE7
  4016                           postdec1	equ	0xFE5
  4017                           fsr1h	equ	0xFE2
  4018                           fsr1l	equ	0xFE1
  4019                           indf2	equ	0xFDF
  4020                           postinc2	equ	0xFDE
  4021                           postdec2	equ	0xFDD
  4022                           fsr2h	equ	0xFDA
  4023                           fsr2l	equ	0xFD9
  4024                           status	equ	0xFD8
  4025                           
  4026 ;; *************** function _putrsUSBUSART *****************
  4027 ;; Defined at:
  4028 ;;		line 726 in file "picLibs/usb_device_cdc.c"
  4029 ;; Parameters:    Size  Location     Type
  4030 ;;  data            2    0[BANK0 ] PTR const unsigned char 
  4031 ;;		 -> STR_1(12), buttonMessage(18), 
  4032 ;; Auto vars:     Size  Location     Type
  4033 ;;  pData           2    4[BANK0 ] PTR const unsigned char 
  4034 ;;		 -> STR_1(12), buttonMessage(18), 
  4035 ;;  len             1    6[BANK0 ] unsigned char 
  4036 ;; Return value:  Size  Location     Type
  4037 ;;                  1    wreg      void 
  4038 ;; Registers used:
  4039 ;;		wreg, fsr1l, fsr1h, status,2, status,0, tblptrl, tblptrh, tblptru
  4040 ;; Tracked objects:
  4041 ;;		On entry : 0/0
  4042 ;;		On exit  : 0/0
  4043 ;;		Unchanged: 0/0
  4044 ;; Data sizes:     COMRAM   BANK0   BANK1   BANK2
  4045 ;;      Params:         0       2       0       0
  4046 ;;      Locals:         0       3       0       0
  4047 ;;      Temps:          0       2       0       0
  4048 ;;      Totals:         0       7       0       0
  4049 ;;Total ram usage:        7 bytes
  4050 ;; Hardware stack levels used:    1
  4051 ;; Hardware stack levels required when called:   10
  4052 ;; This function calls:
  4053 ;;		Nothing
  4054 ;; This function is called by:
  4055 ;;		_APP_DeviceCDCBasicDemoTasks
  4056 ;; This function uses a non-reentrant model
  4057 ;;
  4058                           
  4059                           	psect	text19
  4060  0022E6                     __ptext19:
  4061                           	opt stack 0
  4062  0022E6                     _putrsUSBUSART:
  4063                           	opt stack 19
  4064                           
  4065                           ;usb_device_cdc.c: 728: uint8_t len;
  4066                           ;usb_device_cdc.c: 729: const const char *pData;
  4067                           ;usb_device_cdc.c: 754: {PIE2bits.USBIE = 0;};
  4068                           
  4069                           ;incstack = 0
  4070  0022E6  94A0               	bcf	4000,2,c	;volatile
  4071                           
  4072                           ;usb_device_cdc.c: 755: if(cdc_trf_state != 0)
  4073  0022E8  0100               	movlb	0	; () banked
  4074  0022EA  5198               	movf	_cdc_trf_state& (0+255),w,b
  4075  0022EC  B4D8               	btfsc	status,2,c
  4076  0022EE  D002               	goto	l4992
  4077                           
  4078                           ; BSR set to: 0
  4079                           ;usb_device_cdc.c: 756: {
  4080                           ;usb_device_cdc.c: 757: {PIE2bits.USBIE = 1;};
  4081  0022F0  84A0               	bsf	4000,2,c	;volatile
  4082                           
  4083                           ;usb_device_cdc.c: 758: return;
  4084  0022F2  0012               	return	
  4085  0022F4                     l4992:
  4086                           
  4087                           ; BSR set to: 0
  4088                           ;usb_device_cdc.c: 759: }
  4089                           ;usb_device_cdc.c: 765: len = 0;
  4090  0022F4  0E00               	movlw	0
  4091  0022F6  0100               	movlb	0	; () banked
  4092  0022F8  6FA8               	movwf	putrsUSBUSART@len& (0+255),b
  4093                           
  4094                           ; BSR set to: 0
  4095                           ;usb_device_cdc.c: 766: pData = data;
  4096  0022FA  C0A2  F0A6         	movff	putrsUSBUSART@data,putrsUSBUSART@pData
  4097  0022FE  C0A3  F0A7         	movff	putrsUSBUSART@data+1,putrsUSBUSART@pData+1
  4098  002302                     l4996:
  4099                           
  4100                           ;usb_device_cdc.c: 768: {
  4101                           ;usb_device_cdc.c: 769: len++;
  4102  002302  0100               	movlb	0	; () banked
  4103  002304  2BA8               	incf	putrsUSBUSART@len& (0+255),f,b
  4104                           
  4105                           ; BSR set to: 0
  4106                           ;usb_device_cdc.c: 770: if(len == 255) break;
  4107  002306  0100               	movlb	0	; () banked
  4108  002308  29A8               	incf	putrsUSBUSART@len& (0+255),w,b
  4109  00230A  B4D8               	btfsc	status,2,c
  4110  00230C  D01E               	goto	l5004
  4111                           
  4112                           ; BSR set to: 0
  4113                           ;usb_device_cdc.c: 771: }while(*pData++);
  4114                           
  4115                           ; BSR set to: 0
  4116                           
  4117                           ; BSR set to: 0
  4118  00230E  0100               	movlb	0	; () banked
  4119  002310  51A6               	movf	putrsUSBUSART@pData& (0+255),w,b
  4120  002312  0100               	movlb	0	; () banked
  4121  002314  6FA4               	movwf	??_putrsUSBUSART& (0+255),b
  4122  002316  0100               	movlb	0	; () banked
  4123  002318  51A7               	movf	(putrsUSBUSART@pData+1)& (0+255),w,b
  4124  00231A  0100               	movlb	0	; () banked
  4125  00231C  6FA5               	movwf	(??_putrsUSBUSART+1)& (0+255),b
  4126  00231E  0100               	movlb	0	; () banked
  4127  002320  4BA6               	infsnz	putrsUSBUSART@pData& (0+255),f,b
  4128  002322  2BA7               	incf	(putrsUSBUSART@pData+1)& (0+255),f,b
  4129  002324  C0A4  FFF6         	movff	??_putrsUSBUSART,tblptrl
  4130  002328  C0A5  FFF7         	movff	??_putrsUSBUSART+1,tblptrh
  4131  00232C  6AF8               	clrf	tblptru,c
  4132  00232E  0E02               	movlw	(high __ramtop+-1)
  4133  002330  64F7               	cpfsgt	tblptrh,c
  4134  002332  D003               	bra	u4287
  4135  002334  0008               	tblrd		*
  4136  002336  50F5               	movf	tablat,w,c
  4137  002338  D005               	bra	u4280
  4138  00233A                     u4287:
  4139  00233A  CFF6 FFE1          	movff	tblptrl,fsr1l
  4140  00233E  CFF7 FFE2          	movff	tblptrh,fsr1h
  4141  002342  50E7               	movf	indf1,w,c
  4142  002344                     u4280:
  4143  002344  0900               	iorlw	0
  4144  002346  A4D8               	btfss	status,2,c
  4145  002348  D7DC               	goto	l4996
  4146  00234A                     l5004:
  4147                           
  4148                           ;usb_device_cdc.c: 780: { pCDCSrc.bRom = (const uint8_t*)data; cdc_tx_len = len; cdc_mem
      +                          _type = 0x00; cdc_trf_state = 1; };
  4149  00234A  C0A2  F087         	movff	putrsUSBUSART@data,_pCDCSrc
  4150  00234E  C0A3  F088         	movff	putrsUSBUSART@data+1,_pCDCSrc+1
  4151  002352  C0A8  F095         	movff	putrsUSBUSART@len,_cdc_tx_len
  4152  002356  0E00               	movlw	0
  4153  002358  0100               	movlb	0	; () banked
  4154  00235A  6F94               	movwf	_cdc_mem_type& (0+255),b
  4155                           
  4156                           ; BSR set to: 0
  4157  00235C  0E01               	movlw	1
  4158  00235E  0100               	movlb	0	; () banked
  4159  002360  6F98               	movwf	_cdc_trf_state& (0+255),b
  4160                           
  4161                           ; BSR set to: 0
  4162                           ;usb_device_cdc.c: 781: {PIE2bits.USBIE = 1;};
  4163  002362  84A0               	bsf	4000,2,c	;volatile
  4164                           
  4165                           ; BSR set to: 0
  4166  002364  0012               	return		;funcret
  4167  002366                     __end_of_putrsUSBUSART:
  4168                           	opt stack 0
  4169                           tblptru	equ	0xFF8
  4170                           tblptrh	equ	0xFF7
  4171                           tblptrl	equ	0xFF6
  4172                           tablat	equ	0xFF5
  4173                           prodh	equ	0xFF4
  4174                           prodl	equ	0xFF3
  4175                           intcon	equ	0xFF2
  4176                           postinc0	equ	0xFEE
  4177                           wreg	equ	0xFE8
  4178                           indf1	equ	0xFE7
  4179                           postdec1	equ	0xFE5
  4180                           fsr1h	equ	0xFE2
  4181                           fsr1l	equ	0xFE1
  4182                           indf2	equ	0xFDF
  4183                           postinc2	equ	0xFDE
  4184                           postdec2	equ	0xFDD
  4185                           fsr2h	equ	0xFDA
  4186                           fsr2l	equ	0xFD9
  4187                           status	equ	0xFD8
  4188                           
  4189 ;; *************** function _putUSBUSART *****************
  4190 ;; Defined at:
  4191 ;;		line 556 in file "picLibs/usb_device_cdc.c"
  4192 ;; Parameters:    Size  Location     Type
  4193 ;;  data            2    0[BANK0 ] PTR unsigned char 
  4194 ;;		 -> writeBuffer(64), 
  4195 ;;  length          1    2[BANK0 ] unsigned char 
  4196 ;; Auto vars:     Size  Location     Type
  4197 ;;		None
  4198 ;; Return value:  Size  Location     Type
  4199 ;;                  1    wreg      void 
  4200 ;; Registers used:
  4201 ;;		wreg, status,2, status,0
  4202 ;; Tracked objects:
  4203 ;;		On entry : 0/0
  4204 ;;		On exit  : 0/0
  4205 ;;		Unchanged: 0/0
  4206 ;; Data sizes:     COMRAM   BANK0   BANK1   BANK2
  4207 ;;      Params:         0       3       0       0
  4208 ;;      Locals:         0       0       0       0
  4209 ;;      Temps:          0       0       0       0
  4210 ;;      Totals:         0       3       0       0
  4211 ;;Total ram usage:        3 bytes
  4212 ;; Hardware stack levels used:    1
  4213 ;; Hardware stack levels required when called:   10
  4214 ;; This function calls:
  4215 ;;		Nothing
  4216 ;; This function is called by:
  4217 ;;		_APP_DeviceCDCBasicDemoTasks
  4218 ;; This function uses a non-reentrant model
  4219 ;;
  4220                           
  4221                           	psect	text20
  4222  0027CA                     __ptext20:
  4223                           	opt stack 0
  4224  0027CA                     _putUSBUSART:
  4225                           	opt stack 19
  4226                           
  4227                           ;usb_device_cdc.c: 581: {PIE2bits.USBIE = 0;};
  4228                           
  4229                           ; BSR set to: 0
  4230                           ;incstack = 0
  4231  0027CA  94A0               	bcf	4000,2,c	;volatile
  4232                           
  4233                           ;usb_device_cdc.c: 582: if(cdc_trf_state == 0)
  4234  0027CC  0100               	movlb	0	; () banked
  4235  0027CE  5198               	movf	_cdc_trf_state& (0+255),w,b
  4236  0027D0  A4D8               	btfss	status,2,c
  4237  0027D2  D00C               	goto	l5050
  4238                           
  4239                           ; BSR set to: 0
  4240                           ;usb_device_cdc.c: 583: {
  4241                           ;usb_device_cdc.c: 584: { pCDCSrc.bRam = (uint8_t*)data; cdc_tx_len = length; cdc_mem_ty
      +                          pe = 0x01; cdc_trf_state = 1; };
  4242  0027D4  C0A2  F087         	movff	putUSBUSART@data,_pCDCSrc
  4243  0027D8  C0A3  F088         	movff	putUSBUSART@data+1,_pCDCSrc+1
  4244                           
  4245                           ; BSR set to: 0
  4246  0027DC  C0A4  F095         	movff	putUSBUSART@length,_cdc_tx_len
  4247                           
  4248                           ; BSR set to: 0
  4249  0027E0  0E01               	movlw	1
  4250  0027E2  0100               	movlb	0	; () banked
  4251  0027E4  6F94               	movwf	_cdc_mem_type& (0+255),b
  4252                           
  4253                           ; BSR set to: 0
  4254  0027E6  0E01               	movlw	1
  4255  0027E8  0100               	movlb	0	; () banked
  4256  0027EA  6F98               	movwf	_cdc_trf_state& (0+255),b
  4257  0027EC                     l5050:
  4258                           
  4259                           ; BSR set to: 0
  4260                           ;usb_device_cdc.c: 585: }
  4261                           ;usb_device_cdc.c: 586: {PIE2bits.USBIE = 1;};
  4262  0027EC  84A0               	bsf	4000,2,c	;volatile
  4263                           
  4264                           ; BSR set to: 0
  4265  0027EE  0012               	return		;funcret
  4266  0027F0                     __end_of_putUSBUSART:
  4267                           	opt stack 0
  4268                           tblptru	equ	0xFF8
  4269                           tblptrh	equ	0xFF7
  4270                           tblptrl	equ	0xFF6
  4271                           tablat	equ	0xFF5
  4272                           prodh	equ	0xFF4
  4273                           prodl	equ	0xFF3
  4274                           intcon	equ	0xFF2
  4275                           postinc0	equ	0xFEE
  4276                           wreg	equ	0xFE8
  4277                           indf1	equ	0xFE7
  4278                           postdec1	equ	0xFE5
  4279                           fsr1h	equ	0xFE2
  4280                           fsr1l	equ	0xFE1
  4281                           indf2	equ	0xFDF
  4282                           postinc2	equ	0xFDE
  4283                           postdec2	equ	0xFDD
  4284                           fsr2h	equ	0xFDA
  4285                           fsr2l	equ	0xFD9
  4286                           status	equ	0xFD8
  4287                           
  4288 ;; *************** function _getsUSBUSART *****************
  4289 ;; Defined at:
  4290 ;;		line 485 in file "picLibs/usb_device_cdc.c"
  4291 ;; Parameters:    Size  Location     Type
  4292 ;;  buffer          2   11[BANK0 ] PTR unsigned char 
  4293 ;;		 -> readBuffer(64), 
  4294 ;;  len             1   13[BANK0 ] unsigned char 
  4295 ;; Auto vars:     Size  Location     Type
  4296 ;;		None
  4297 ;; Return value:  Size  Location     Type
  4298 ;;                  1    wreg      unsigned char 
  4299 ;; Registers used:
  4300 ;;		wreg, fsr1l, fsr1h, fsr2l, fsr2h, status,2, status,0, prodl, prodh, cstack
  4301 ;; Tracked objects:
  4302 ;;		On entry : 0/0
  4303 ;;		On exit  : 0/0
  4304 ;;		Unchanged: 0/0
  4305 ;; Data sizes:     COMRAM   BANK0   BANK1   BANK2
  4306 ;;      Params:         0       3       0       0
  4307 ;;      Locals:         0       0       0       0
  4308 ;;      Temps:          0       1       0       0
  4309 ;;      Totals:         0       4       0       0
  4310 ;;Total ram usage:        4 bytes
  4311 ;; Hardware stack levels used:    1
  4312 ;; Hardware stack levels required when called:   11
  4313 ;; This function calls:
  4314 ;;		_USBTransferOnePacket
  4315 ;; This function is called by:
  4316 ;;		_APP_DeviceCDCBasicDemoTasks
  4317 ;; This function uses a non-reentrant model
  4318 ;;
  4319                           
  4320                           	psect	text21
  4321  001DFE                     __ptext21:
  4322                           	opt stack 0
  4323  001DFE                     _getsUSBUSART:
  4324                           	opt stack 18
  4325                           
  4326                           ;usb_device_cdc.c: 487: cdc_rx_len = 0;
  4327                           
  4328                           ; BSR set to: 0
  4329                           ;incstack = 0
  4330  001DFE  0E00               	movlw	0
  4331  001E00  0100               	movlb	0	; () banked
  4332  001E02  6F96               	movwf	_cdc_rx_len& (0+255),b
  4333                           
  4334                           ; BSR set to: 0
  4335                           ;usb_device_cdc.c: 489: if(!((CDCDataOutHandle != 0x0000) && ((*(volatile uint8_t*)CDCDa
      +                          taOutHandle & 0x80) != 0x00)))
  4336  001E04  0100               	movlb	0	; () banked
  4337  001E06  5192               	movf	_CDCDataOutHandle& (0+255),w,b
  4338  001E08  0100               	movlb	0	; () banked
  4339  001E0A  1193               	iorwf	(_CDCDataOutHandle+1)& (0+255),w,b
  4340  001E0C  B4D8               	btfsc	status,2,c
  4341  001E0E  D007               	goto	l5020
  4342                           
  4343                           ; BSR set to: 0
  4344  001E10  C092  FFD9         	movff	_CDCDataOutHandle,fsr2l
  4345  001E14  C093  FFDA         	movff	_CDCDataOutHandle+1,fsr2h
  4346  001E18  0100               	movlb	0	; () banked
  4347  001E1A  BEDF               	btfsc	indf2,7,c
  4348  001E1C  D04B               	goto	l5034
  4349  001E1E                     l5020:
  4350                           
  4351                           ; BSR set to: 0
  4352                           ;usb_device_cdc.c: 490: {
  4353                           ;usb_device_cdc.c: 495: if(len > (((volatile BDT_ENTRY*)CDCDataOutHandle)->CNT))
  4354  001E1E  0100               	movlb	0	; () banked
  4355  001E20  EE20 F001          	lfsr	2,1
  4356  001E24  5192               	movf	_CDCDataOutHandle& (0+255),w,b
  4357  001E26  26D9               	addwf	fsr2l,f,c
  4358  001E28  5193               	movf	(_CDCDataOutHandle+1)& (0+255),w,b
  4359  001E2A  22DA               	addwfc	fsr2h,f,c
  4360  001E2C  0100               	movlb	0	; () banked
  4361  001E2E  51AF               	movf	getsUSBUSART@len& (0+255),w,b
  4362  001E30  5CDE               	subwf	postinc2,w,c
  4363  001E32  B0D8               	btfsc	status,0,c
  4364  001E34  D00A               	goto	l5024
  4365                           
  4366                           ; BSR set to: 0
  4367                           ;usb_device_cdc.c: 496: len = (((volatile BDT_ENTRY*)CDCDataOutHandle)->CNT);
  4368  001E36  0100               	movlb	0	; () banked
  4369  001E38  EE20 F001          	lfsr	2,1
  4370  001E3C  5192               	movf	_CDCDataOutHandle& (0+255),w,b
  4371  001E3E  26D9               	addwf	fsr2l,f,c
  4372  001E40  5193               	movf	(_CDCDataOutHandle+1)& (0+255),w,b
  4373  001E42  22DA               	addwfc	fsr2h,f,c
  4374  001E44  50DF               	movf	indf2,w,c
  4375  001E46  0100               	movlb	0	; () banked
  4376  001E48  6FAF               	movwf	getsUSBUSART@len& (0+255),b
  4377  001E4A                     l5024:
  4378                           
  4379                           ; BSR set to: 0
  4380                           ;usb_device_cdc.c: 501: for(cdc_rx_len = 0; cdc_rx_len < len; cdc_rx_len++)
  4381  001E4A  0E00               	movlw	0
  4382  001E4C  0100               	movlb	0	; () banked
  4383  001E4E  6F96               	movwf	_cdc_rx_len& (0+255),b
  4384  001E50  D018               	goto	l5030
  4385  001E52                     l5026:
  4386                           
  4387                           ; BSR set to: 0
  4388                           ;usb_device_cdc.c: 502: buffer[cdc_rx_len] = cdc_data_rx[cdc_rx_len];
  4389  001E52  0100               	movlb	0	; () banked
  4390  001E54  5196               	movf	_cdc_rx_len& (0+255),w,b
  4391  001E56  0D01               	mullw	1
  4392  001E58  0E80               	movlw	128
  4393  001E5A  24F3               	addwf	prodl,w,c
  4394  001E5C  6ED9               	movwf	fsr2l,c
  4395  001E5E  0E02               	movlw	2
  4396  001E60  20F4               	addwfc	prodh,w,c
  4397  001E62  6EDA               	movwf	fsr2h,c
  4398  001E64  0100               	movlb	0	; () banked
  4399  001E66  5196               	movf	_cdc_rx_len& (0+255),w,b
  4400  001E68  0D01               	mullw	1
  4401  001E6A  50F3               	movf	prodl,w,c
  4402  001E6C  0100               	movlb	0	; () banked
  4403  001E6E  25AD               	addwf	getsUSBUSART@buffer& (0+255),w,b
  4404  001E70  6EE1               	movwf	fsr1l,c
  4405  001E72  50F4               	movf	prodh,w,c
  4406  001E74  0100               	movlb	0	; () banked
  4407  001E76  21AE               	addwfc	(getsUSBUSART@buffer+1)& (0+255),w,b
  4408  001E78  6EE2               	movwf	fsr1h,c
  4409  001E7A  CFDF FFE7          	movff	indf2,indf1
  4410                           
  4411                           ; BSR set to: 0
  4412  001E7E  0100               	movlb	0	; () banked
  4413  001E80  2B96               	incf	_cdc_rx_len& (0+255),f,b
  4414  001E82                     l5030:
  4415                           
  4416                           ; BSR set to: 0
  4417  001E82  0100               	movlb	0	; () banked
  4418  001E84  51AF               	movf	getsUSBUSART@len& (0+255),w,b
  4419  001E86  0100               	movlb	0	; () banked
  4420  001E88  5D96               	subwf	_cdc_rx_len& (0+255),w,b
  4421  001E8A  A0D8               	btfss	status,0,c
  4422  001E8C  D7E2               	goto	l5026
  4423                           
  4424                           ; BSR set to: 0
  4425                           ;usb_device_cdc.c: 508: CDCDataOutHandle = USBTransferOnePacket(2,0,(uint8_t*)&cdc_data_
      +                          rx,sizeof(cdc_data_rx));
  4426                           
  4427                           ; BSR set to: 0
  4428  001E8E  0E00               	movlw	0
  4429  001E90  0100               	movlb	0	; () banked
  4430  001E92  6FA2               	movwf	USBTransferOnePacket@dir& (0+255),b
  4431  001E94  0E80               	movlw	128
  4432  001E96  0100               	movlb	0	; () banked
  4433  001E98  6FA3               	movwf	USBTransferOnePacket@data& (0+255),b
  4434  001E9A  0E02               	movlw	2
  4435  001E9C  0100               	movlb	0	; () banked
  4436  001E9E  6FA4               	movwf	(USBTransferOnePacket@data+1)& (0+255),b
  4437  001EA0  0E40               	movlw	64
  4438  001EA2  0100               	movlb	0	; () banked
  4439  001EA4  6FA5               	movwf	USBTransferOnePacket@len& (0+255),b
  4440  001EA6  0E02               	movlw	2
  4441  001EA8  EC6B  F009         	call	_USBTransferOnePacket
  4442  001EAC  C0A2  F092         	movff	?_USBTransferOnePacket,_CDCDataOutHandle
  4443  001EB0  C0A3  F093         	movff	?_USBTransferOnePacket+1,_CDCDataOutHandle+1
  4444  001EB4                     l5034:
  4445                           
  4446                           ;usb_device_cdc.c: 510: }
  4447                           ;usb_device_cdc.c: 512: return cdc_rx_len;
  4448  001EB4  0100               	movlb	0	; () banked
  4449  001EB6  5196               	movf	_cdc_rx_len& (0+255),w,b
  4450  001EB8  0012               	return	
  4451  001EBA                     __end_of_getsUSBUSART:
  4452                           	opt stack 0
  4453                           tblptru	equ	0xFF8
  4454                           tblptrh	equ	0xFF7
  4455                           tblptrl	equ	0xFF6
  4456                           tablat	equ	0xFF5
  4457                           prodh	equ	0xFF4
  4458                           prodl	equ	0xFF3
  4459                           intcon	equ	0xFF2
  4460                           postinc0	equ	0xFEE
  4461                           wreg	equ	0xFE8
  4462                           indf1	equ	0xFE7
  4463                           postdec1	equ	0xFE5
  4464                           fsr1h	equ	0xFE2
  4465                           fsr1l	equ	0xFE1
  4466                           indf2	equ	0xFDF
  4467                           postinc2	equ	0xFDE
  4468                           postdec2	equ	0xFDD
  4469                           fsr2h	equ	0xFDA
  4470                           fsr2l	equ	0xFD9
  4471                           status	equ	0xFD8
  4472                           
  4473 ;; *************** function _CDCTxService *****************
  4474 ;; Defined at:
  4475 ;;		line 836 in file "picLibs/usb_device_cdc.c"
  4476 ;; Parameters:    Size  Location     Type
  4477 ;;		None
  4478 ;; Auto vars:     Size  Location     Type
  4479 ;;  byte_to_send    1   12[BANK0 ] unsigned char 
  4480 ;;  i               1   11[BANK0 ] unsigned char 
  4481 ;; Return value:  Size  Location     Type
  4482 ;;                  1    wreg      void 
  4483 ;; Registers used:
  4484 ;;		wreg, fsr1l, fsr1h, fsr2l, fsr2h, status,2, status,0, tblptrl, tblptrh, tblptru, prodl, prodh, cstack
  4485 ;; Tracked objects:
  4486 ;;		On entry : 0/0
  4487 ;;		On exit  : 0/0
  4488 ;;		Unchanged: 0/0
  4489 ;; Data sizes:     COMRAM   BANK0   BANK1   BANK2
  4490 ;;      Params:         0       0       0       0
  4491 ;;      Locals:         0       2       0       0
  4492 ;;      Temps:          0       0       0       0
  4493 ;;      Totals:         0       2       0       0
  4494 ;;Total ram usage:        2 bytes
  4495 ;; Hardware stack levels used:    1
  4496 ;; Hardware stack levels required when called:   11
  4497 ;; This function calls:
  4498 ;;		_USBTransferOnePacket
  4499 ;; This function is called by:
  4500 ;;		_APP_DeviceCDCBasicDemoTasks
  4501 ;; This function uses a non-reentrant model
  4502 ;;
  4503                           
  4504                           	psect	text22
  4505  000AA2                     __ptext22:
  4506                           	opt stack 0
  4507  000AA2                     _CDCTxService:
  4508                           	opt stack 18
  4509                           
  4510                           ;usb_device_cdc.c: 838: uint8_t byte_to_send;
  4511                           ;usb_device_cdc.c: 839: uint8_t i;
  4512                           ;usb_device_cdc.c: 841: {PIE2bits.USBIE = 0;};
  4513                           
  4514                           ; BSR set to: 0
  4515                           ;incstack = 0
  4516  000AA2  94A0               	bcf	4000,2,c	;volatile
  4517                           
  4518                           ;usb_device_cdc.c: 843: {};
  4519                           ;usb_device_cdc.c: 845: if(((CDCDataInHandle != 0x0000) && ((*(volatile uint8_t*)CDCData
      +                          InHandle & 0x80) != 0x00)))
  4520  000AA4  0100               	movlb	0	; () banked
  4521  000AA6  5190               	movf	_CDCDataInHandle& (0+255),w,b
  4522  000AA8  0100               	movlb	0	; () banked
  4523  000AAA  1191               	iorwf	(_CDCDataInHandle+1)& (0+255),w,b
  4524  000AAC  B4D8               	btfsc	status,2,c
  4525  000AAE  D009               	goto	l5060
  4526                           
  4527                           ; BSR set to: 0
  4528  000AB0  C090  FFD9         	movff	_CDCDataInHandle,fsr2l
  4529  000AB4  C091  FFDA         	movff	_CDCDataInHandle+1,fsr2h
  4530  000AB8  0100               	movlb	0	; () banked
  4531  000ABA  AEDF               	btfss	indf2,7,c
  4532  000ABC  D002               	goto	l5060
  4533                           
  4534                           ; BSR set to: 0
  4535                           ;usb_device_cdc.c: 846: {
  4536                           ;usb_device_cdc.c: 847: {PIE2bits.USBIE = 1;};
  4537  000ABE  84A0               	bsf	4000,2,c	;volatile
  4538                           
  4539                           ;usb_device_cdc.c: 848: return;
  4540  000AC0  0012               	return	
  4541  000AC2                     l5060:
  4542                           
  4543                           ; BSR set to: 0
  4544                           ;usb_device_cdc.c: 849: }
  4545                           ;usb_device_cdc.c: 856: if(cdc_trf_state == 3)
  4546  000AC2  0E03               	movlw	3
  4547  000AC4  0100               	movlb	0	; () banked
  4548  000AC6  1998               	xorwf	_cdc_trf_state& (0+255),w,b
  4549  000AC8  A4D8               	btfss	status,2,c
  4550  000ACA  D003               	goto	l756
  4551                           
  4552                           ; BSR set to: 0
  4553                           ;usb_device_cdc.c: 857: cdc_trf_state = 0;
  4554  000ACC  0E00               	movlw	0
  4555  000ACE  0100               	movlb	0	; () banked
  4556  000AD0  6F98               	movwf	_cdc_trf_state& (0+255),b
  4557  000AD2                     l756:
  4558                           
  4559                           ; BSR set to: 0
  4560                           ;usb_device_cdc.c: 862: if(cdc_trf_state == 0)
  4561  000AD2  0100               	movlb	0	; () banked
  4562  000AD4  5198               	movf	_cdc_trf_state& (0+255),w,b
  4563  000AD6  A4D8               	btfss	status,2,c
  4564  000AD8  D002               	goto	l5066
  4565                           
  4566                           ; BSR set to: 0
  4567                           ;usb_device_cdc.c: 863: {
  4568                           ;usb_device_cdc.c: 864: {PIE2bits.USBIE = 1;};
  4569  000ADA  84A0               	bsf	4000,2,c	;volatile
  4570                           
  4571                           ;usb_device_cdc.c: 865: return;
  4572  000ADC  0012               	return	
  4573  000ADE                     l5066:
  4574                           
  4575                           ; BSR set to: 0
  4576                           ;usb_device_cdc.c: 866: }
  4577                           ;usb_device_cdc.c: 871: if(cdc_trf_state == 2)
  4578  000ADE  0E02               	movlw	2
  4579  000AE0  0100               	movlb	0	; () banked
  4580  000AE2  1998               	xorwf	_cdc_trf_state& (0+255),w,b
  4581  000AE4  A4D8               	btfss	status,2,c
  4582  000AE6  D017               	goto	l5072
  4583                           
  4584                           ; BSR set to: 0
  4585                           ;usb_device_cdc.c: 872: {
  4586                           ;usb_device_cdc.c: 873: CDCDataInHandle = USBTransferOnePacket(2,1,(0),0);
  4587  000AE8  0E01               	movlw	1
  4588  000AEA  0100               	movlb	0	; () banked
  4589  000AEC  6FA2               	movwf	USBTransferOnePacket@dir& (0+255),b
  4590  000AEE  0E00               	movlw	0
  4591  000AF0  0100               	movlb	0	; () banked
  4592  000AF2  6FA3               	movwf	USBTransferOnePacket@data& (0+255),b
  4593  000AF4  0E00               	movlw	0
  4594  000AF6  0100               	movlb	0	; () banked
  4595  000AF8  6FA4               	movwf	(USBTransferOnePacket@data+1)& (0+255),b
  4596  000AFA  0E00               	movlw	0
  4597  000AFC  0100               	movlb	0	; () banked
  4598  000AFE  6FA5               	movwf	USBTransferOnePacket@len& (0+255),b
  4599  000B00  0E02               	movlw	2
  4600  000B02  EC6B  F009         	call	_USBTransferOnePacket
  4601  000B06  C0A2  F090         	movff	?_USBTransferOnePacket,_CDCDataInHandle
  4602  000B0A  C0A3  F091         	movff	?_USBTransferOnePacket+1,_CDCDataInHandle+1
  4603                           
  4604                           ;usb_device_cdc.c: 875: cdc_trf_state = 3;
  4605  000B0E  0E03               	movlw	3
  4606  000B10  0100               	movlb	0	; () banked
  4607  000B12  6F98               	movwf	_cdc_trf_state& (0+255),b
  4608                           
  4609                           ;usb_device_cdc.c: 876: }
  4610  000B14  D087               	goto	l5116
  4611  000B16                     l5072:
  4612                           
  4613                           ; BSR set to: 0
  4614                           ;usb_device_cdc.c: 877: else if(cdc_trf_state == 1)
  4615  000B16  0100               	movlb	0	; () banked
  4616  000B18  0598               	decf	_cdc_trf_state& (0+255),w,b
  4617  000B1A  A4D8               	btfss	status,2,c
  4618  000B1C  D083               	goto	l5116
  4619                           
  4620                           ; BSR set to: 0
  4621                           ;usb_device_cdc.c: 878: {
  4622                           ;usb_device_cdc.c: 882: if(cdc_tx_len > sizeof(cdc_data_tx))
  4623  000B1E  0E40               	movlw	64
  4624  000B20  0100               	movlb	0	; () banked
  4625  000B22  6595               	cpfsgt	_cdc_tx_len& (0+255),b
  4626  000B24  D004               	goto	l761
  4627                           
  4628                           ; BSR set to: 0
  4629                           ;usb_device_cdc.c: 883: byte_to_send = sizeof(cdc_data_tx);
  4630  000B26  0E40               	movlw	64
  4631  000B28  0100               	movlb	0	; () banked
  4632  000B2A  6FAE               	movwf	CDCTxService@byte_to_send& (0+255),b
  4633  000B2C  D002               	goto	l5078
  4634  000B2E                     l761:
  4635                           
  4636                           ; BSR set to: 0
  4637                           ;usb_device_cdc.c: 884: else
  4638                           ;usb_device_cdc.c: 885: byte_to_send = cdc_tx_len;
  4639  000B2E  C095  F0AE         	movff	_cdc_tx_len,CDCTxService@byte_to_send
  4640  000B32                     l5078:
  4641                           
  4642                           ; BSR set to: 0
  4643                           ;usb_device_cdc.c: 890: cdc_tx_len = cdc_tx_len - byte_to_send;
  4644  000B32  0100               	movlb	0	; () banked
  4645  000B34  51AE               	movf	CDCTxService@byte_to_send& (0+255),w,b
  4646  000B36  0800               	sublw	0
  4647  000B38  0100               	movlb	0	; () banked
  4648  000B3A  2595               	addwf	_cdc_tx_len& (0+255),w,b
  4649  000B3C  0100               	movlb	0	; () banked
  4650  000B3E  6F95               	movwf	_cdc_tx_len& (0+255),b
  4651                           
  4652                           ;usb_device_cdc.c: 892: pCDCDst.bRam = (uint8_t*)&cdc_data_tx;
  4653  000B40  0E40               	movlw	64
  4654  000B42  0100               	movlb	0	; () banked
  4655  000B44  6F84               	movwf	_pCDCDst& (0+255),b
  4656  000B46  0E02               	movlw	2
  4657  000B48  0100               	movlb	0	; () banked
  4658  000B4A  6F85               	movwf	(_pCDCDst+1)& (0+255),b
  4659                           
  4660                           ; BSR set to: 0
  4661                           ;usb_device_cdc.c: 894: i = byte_to_send;
  4662  000B4C  C0AE  F0AD         	movff	CDCTxService@byte_to_send,CDCTxService@i
  4663                           
  4664                           ; BSR set to: 0
  4665                           ;usb_device_cdc.c: 895: if(cdc_mem_type == 0x00)
  4666  000B50  0100               	movlb	0	; () banked
  4667  000B52  5194               	movf	_cdc_mem_type& (0+255),w,b
  4668  000B54  B4D8               	btfsc	status,2,c
  4669  000B56  D01E               	goto	l5094
  4670  000B58  D040               	goto	l5104
  4671  000B5A                     l5086:
  4672                           
  4673                           ; BSR set to: 0
  4674                           ;usb_device_cdc.c: 898: {
  4675                           ;usb_device_cdc.c: 899: *pCDCDst.bRam = *pCDCSrc.bRom;
  4676  000B5A  C087  FFF6         	movff	_pCDCSrc,tblptrl
  4677  000B5E  C088  FFF7         	movff	_pCDCSrc+1,tblptrh
  4678  000B62  6AF8               	clrf	tblptru,c
  4679  000B64  C084  FFD9         	movff	_pCDCDst,fsr2l
  4680  000B68  C085  FFDA         	movff	_pCDCDst+1,fsr2h
  4681  000B6C  0E02               	movlw	(high __ramtop+-1)
  4682  000B6E  64F7               	cpfsgt	tblptrh,c
  4683  000B70  D003               	bra	u4437
  4684  000B72  0008               	tblrd		*
  4685  000B74  50F5               	movf	tablat,w,c
  4686  000B76  D005               	bra	u4430
  4687  000B78                     u4437:
  4688  000B78  CFF6 FFE1          	movff	tblptrl,fsr1l
  4689  000B7C  CFF7 FFE2          	movff	tblptrh,fsr1h
  4690  000B80  50E7               	movf	indf1,w,c
  4691  000B82                     u4430:
  4692  000B82  6EDF               	movwf	indf2,c
  4693                           
  4694                           ;usb_device_cdc.c: 900: pCDCDst.bRam++;
  4695  000B84  0100               	movlb	0	; () banked
  4696  000B86  4B84               	infsnz	_pCDCDst& (0+255),f,b
  4697  000B88  2B85               	incf	(_pCDCDst+1)& (0+255),f,b
  4698                           
  4699                           ; BSR set to: 0
  4700                           ;usb_device_cdc.c: 901: pCDCSrc.bRom++;
  4701  000B8A  0100               	movlb	0	; () banked
  4702  000B8C  4B87               	infsnz	_pCDCSrc& (0+255),f,b
  4703  000B8E  2B88               	incf	(_pCDCSrc+1)& (0+255),f,b
  4704                           
  4705                           ; BSR set to: 0
  4706                           ;usb_device_cdc.c: 902: i--;
  4707  000B90  0100               	movlb	0	; () banked
  4708  000B92  07AD               	decf	CDCTxService@i& (0+255),f,b
  4709  000B94                     l5094:
  4710                           
  4711                           ; BSR set to: 0
  4712  000B94  0100               	movlb	0	; () banked
  4713  000B96  51AD               	movf	CDCTxService@i& (0+255),w,b
  4714  000B98  0100               	movlb	0	; () banked
  4715  000B9A  B4D8               	btfsc	status,2,c
  4716  000B9C  D023               	goto	l5106
  4717  000B9E  D7DD               	goto	l5086
  4718  000BA0                     l5096:
  4719                           
  4720                           ; BSR set to: 0
  4721                           ;usb_device_cdc.c: 908: {
  4722                           ;usb_device_cdc.c: 909: *pCDCDst.bRam = *pCDCSrc.bRam;
  4723  000BA0  C087  FFF6         	movff	_pCDCSrc,tblptrl
  4724  000BA4  C088  FFF7         	movff	_pCDCSrc+1,tblptrh
  4725  000BA8  6AF8               	clrf	tblptru,c
  4726  000BAA  C084  FFD9         	movff	_pCDCDst,fsr2l
  4727  000BAE  C085  FFDA         	movff	_pCDCDst+1,fsr2h
  4728  000BB2  0E02               	movlw	(high __ramtop+-1)
  4729  000BB4  64F7               	cpfsgt	tblptrh,c
  4730  000BB6  D003               	bra	u4457
  4731  000BB8  0008               	tblrd		*
  4732  000BBA  50F5               	movf	tablat,w,c
  4733  000BBC  D005               	bra	u4450
  4734  000BBE                     u4457:
  4735  000BBE  CFF6 FFE1          	movff	tblptrl,fsr1l
  4736  000BC2  CFF7 FFE2          	movff	tblptrh,fsr1h
  4737  000BC6  50E7               	movf	indf1,w,c
  4738  000BC8                     u4450:
  4739  000BC8  6EDF               	movwf	indf2,c
  4740                           
  4741                           ;usb_device_cdc.c: 910: pCDCDst.bRam++;
  4742  000BCA  0100               	movlb	0	; () banked
  4743  000BCC  4B84               	infsnz	_pCDCDst& (0+255),f,b
  4744  000BCE  2B85               	incf	(_pCDCDst+1)& (0+255),f,b
  4745                           
  4746                           ; BSR set to: 0
  4747                           ;usb_device_cdc.c: 911: pCDCSrc.bRam++;
  4748  000BD0  0100               	movlb	0	; () banked
  4749  000BD2  4B87               	infsnz	_pCDCSrc& (0+255),f,b
  4750  000BD4  2B88               	incf	(_pCDCSrc+1)& (0+255),f,b
  4751                           
  4752                           ; BSR set to: 0
  4753                           ;usb_device_cdc.c: 912: i--;
  4754  000BD6  0100               	movlb	0	; () banked
  4755  000BD8  07AD               	decf	CDCTxService@i& (0+255),f,b
  4756  000BDA                     l5104:
  4757                           
  4758                           ; BSR set to: 0
  4759  000BDA  0100               	movlb	0	; () banked
  4760  000BDC  51AD               	movf	CDCTxService@i& (0+255),w,b
  4761  000BDE  0100               	movlb	0	; () banked
  4762  000BE0  A4D8               	btfss	status,2,c
  4763  000BE2  D7DE               	goto	l5096
  4764  000BE4                     l5106:
  4765                           
  4766                           ; BSR set to: 0
  4767                           ;usb_device_cdc.c: 913: }
  4768                           ;usb_device_cdc.c: 914: }
  4769                           ;usb_device_cdc.c: 920: if(cdc_tx_len == 0)
  4770  000BE4  0100               	movlb	0	; () banked
  4771  000BE6  5195               	movf	_cdc_tx_len& (0+255),w,b
  4772  000BE8  A4D8               	btfss	status,2,c
  4773  000BEA  D00A               	goto	l5114
  4774                           
  4775                           ; BSR set to: 0
  4776                           ;usb_device_cdc.c: 921: {
  4777                           ;usb_device_cdc.c: 922: if(byte_to_send == 64)
  4778  000BEC  0E40               	movlw	64
  4779  000BEE  0100               	movlb	0	; () banked
  4780  000BF0  19AE               	xorwf	CDCTxService@byte_to_send& (0+255),w,b
  4781  000BF2  A4D8               	btfss	status,2,c
  4782  000BF4  D002               	goto	l5112
  4783                           
  4784                           ; BSR set to: 0
  4785                           ;usb_device_cdc.c: 923: cdc_trf_state = 2;
  4786  000BF6  0E02               	movlw	2
  4787  000BF8  D001               	goto	L1
  4788  000BFA                     l5112:
  4789                           
  4790                           ; BSR set to: 0
  4791                           ;usb_device_cdc.c: 924: else
  4792                           ;usb_device_cdc.c: 925: cdc_trf_state = 3;
  4793  000BFA  0E03               	movlw	3
  4794  000BFC                     L1:
  4795  000BFC  0100               	movlb	0	; () banked
  4796  000BFE  6F98               	movwf	_cdc_trf_state& (0+255),b
  4797  000C00                     l5114:
  4798                           
  4799                           ; BSR set to: 0
  4800                           ;usb_device_cdc.c: 926: }
  4801                           ;usb_device_cdc.c: 927: CDCDataInHandle = USBTransferOnePacket(2,1,(uint8_t*)&cdc_data_t
      +                          x,byte_to_send);
  4802  000C00  0E01               	movlw	1
  4803  000C02  0100               	movlb	0	; () banked
  4804  000C04  6FA2               	movwf	USBTransferOnePacket@dir& (0+255),b
  4805  000C06  0E40               	movlw	64
  4806  000C08  0100               	movlb	0	; () banked
  4807  000C0A  6FA3               	movwf	USBTransferOnePacket@data& (0+255),b
  4808  000C0C  0E02               	movlw	2
  4809  000C0E  0100               	movlb	0	; () banked
  4810  000C10  6FA4               	movwf	(USBTransferOnePacket@data+1)& (0+255),b
  4811  000C12  C0AE  F0A5         	movff	CDCTxService@byte_to_send,USBTransferOnePacket@len
  4812  000C16  0E02               	movlw	2
  4813  000C18  EC6B  F009         	call	_USBTransferOnePacket
  4814  000C1C  C0A2  F090         	movff	?_USBTransferOnePacket,_CDCDataInHandle
  4815  000C20  C0A3  F091         	movff	?_USBTransferOnePacket+1,_CDCDataInHandle+1
  4816  000C24                     l5116:
  4817                           
  4818                           ;usb_device_cdc.c: 929: }
  4819                           ;usb_device_cdc.c: 931: {PIE2bits.USBIE = 1;};
  4820  000C24  84A0               	bsf	4000,2,c	;volatile
  4821  000C26  0012               	return		;funcret
  4822  000C28                     __end_of_CDCTxService:
  4823                           	opt stack 0
  4824                           tblptru	equ	0xFF8
  4825                           tblptrh	equ	0xFF7
  4826                           tblptrl	equ	0xFF6
  4827                           tablat	equ	0xFF5
  4828                           prodh	equ	0xFF4
  4829                           prodl	equ	0xFF3
  4830                           intcon	equ	0xFF2
  4831                           postinc0	equ	0xFEE
  4832                           wreg	equ	0xFE8
  4833                           indf1	equ	0xFE7
  4834                           postdec1	equ	0xFE5
  4835                           fsr1h	equ	0xFE2
  4836                           fsr1l	equ	0xFE1
  4837                           indf2	equ	0xFDF
  4838                           postinc2	equ	0xFDE
  4839                           postdec2	equ	0xFDD
  4840                           fsr2h	equ	0xFDA
  4841                           fsr2l	equ	0xFD9
  4842                           status	equ	0xFD8
  4843                           
  4844 ;; *************** function _USBTransferOnePacket *****************
  4845 ;; Defined at:
  4846 ;;		line 995 in file "picLibs/usb_device.c"
  4847 ;; Parameters:    Size  Location     Type
  4848 ;;  ep              1    wreg     unsigned char 
  4849 ;;  dir             1    0[BANK0 ] unsigned char 
  4850 ;;  data            2    1[BANK0 ] PTR unsigned char 
  4851 ;;		 -> cdc_data_tx(64), cdc_data_rx(64), NULL(0), 
  4852 ;;  len             1    3[BANK0 ] unsigned char 
  4853 ;; Auto vars:     Size  Location     Type
  4854 ;;  ep              1    8[BANK0 ] unsigned char 
  4855 ;;  handle          2    9[BANK0 ] PTR volatile struct __BD
  4856 ;;		 -> RAM(767), NULL(0), BDT(48), 
  4857 ;; Return value:  Size  Location     Type
  4858 ;;                  2    0[BANK0 ] PTR void 
  4859 ;; Registers used:
  4860 ;;		wreg, fsr2l, fsr2h, status,2, status,0, prodl, prodh
  4861 ;; Tracked objects:
  4862 ;;		On entry : 0/0
  4863 ;;		On exit  : 0/0
  4864 ;;		Unchanged: 0/0
  4865 ;; Data sizes:     COMRAM   BANK0   BANK1   BANK2
  4866 ;;      Params:         0       4       0       0
  4867 ;;      Locals:         0       3       0       0
  4868 ;;      Temps:          0       4       0       0
  4869 ;;      Totals:         0      11       0       0
  4870 ;;Total ram usage:       11 bytes
  4871 ;; Hardware stack levels used:    1
  4872 ;; Hardware stack levels required when called:   10
  4873 ;; This function calls:
  4874 ;;		Nothing
  4875 ;; This function is called by:
  4876 ;;		_getsUSBUSART
  4877 ;;		_CDCTxService
  4878 ;;		_USBCDCEventHandler
  4879 ;; This function uses a non-reentrant model
  4880 ;;
  4881                           
  4882                           	psect	text23
  4883  0012D6                     __ptext23:
  4884                           	opt stack 0
  4885  0012D6                     _USBTransferOnePacket:
  4886                           	opt stack 18
  4887                           
  4888                           ;incstack = 0
  4889                           ;USBTransferOnePacket@ep stored from wreg
  4890  0012D6  0100               	movlb	0	; () banked
  4891  0012D8  6FAA               	movwf	USBTransferOnePacket@ep& (0+255),b
  4892                           
  4893                           ;usb_device.c: 997: volatile BDT_ENTRY* handle;
  4894                           ;usb_device.c: 1000: if(dir != 0)
  4895  0012DA  0100               	movlb	0	; () banked
  4896  0012DC  51A2               	movf	USBTransferOnePacket@dir& (0+255),w,b
  4897  0012DE  0100               	movlb	0	; () banked
  4898  0012E0  B4D8               	btfsc	status,2,c
  4899  0012E2  D008               	goto	l4862
  4900                           
  4901                           ; BSR set to: 0
  4902                           ;usb_device.c: 1001: {
  4903                           ;usb_device.c: 1003: handle = pBDTEntryIn[ep];
  4904  0012E4  0100               	movlb	0	; () banked
  4905  0012E6  51AA               	movf	USBTransferOnePacket@ep& (0+255),w,b
  4906  0012E8  0D02               	mullw	2
  4907  0012EA  0E78               	movlw	low _pBDTEntryIn
  4908  0012EC  24F3               	addwf	prodl,w,c
  4909  0012EE  6ED9               	movwf	fsr2l,c
  4910  0012F0  0E00               	movlw	high _pBDTEntryIn
  4911  0012F2  D007               	goto	L2
  4912  0012F4                     l4862:
  4913                           
  4914                           ; BSR set to: 0
  4915                           ;usb_device.c: 1005: else
  4916                           ;usb_device.c: 1006: {
  4917                           ;usb_device.c: 1008: handle = pBDTEntryOut[ep];
  4918  0012F4  0100               	movlb	0	; () banked
  4919  0012F6  51AA               	movf	USBTransferOnePacket@ep& (0+255),w,b
  4920  0012F8  0D02               	mullw	2
  4921  0012FA  0E7E               	movlw	low _pBDTEntryOut
  4922  0012FC  24F3               	addwf	prodl,w,c
  4923  0012FE  6ED9               	movwf	fsr2l,c
  4924  001300  0E00               	movlw	high _pBDTEntryOut
  4925  001302                     L2:
  4926  001302  20F4               	addwfc	prodh,w,c
  4927  001304  6EDA               	movwf	fsr2h,c
  4928  001306  CFDE F0AB          	movff	postinc2,USBTransferOnePacket@handle
  4929  00130A  CFDD F0AC          	movff	postdec2,USBTransferOnePacket@handle+1
  4930                           
  4931                           ; BSR set to: 0
  4932                           ;usb_device.c: 1009: }
  4933                           ;usb_device.c: 1013: if(handle == 0)
  4934                           
  4935                           ; BSR set to: 0
  4936  00130E  0100               	movlb	0	; () banked
  4937  001310  51AB               	movf	USBTransferOnePacket@handle& (0+255),w,b
  4938  001312  0100               	movlb	0	; () banked
  4939  001314  11AC               	iorwf	(USBTransferOnePacket@handle+1)& (0+255),w,b
  4940  001316  A4D8               	btfss	status,2,c
  4941  001318  D007               	goto	l4870
  4942                           
  4943                           ; BSR set to: 0
  4944                           ;usb_device.c: 1014: {
  4945                           ;usb_device.c: 1015: return 0;
  4946  00131A  0E00               	movlw	0
  4947  00131C  0100               	movlb	0	; () banked
  4948  00131E  6FA2               	movwf	?_USBTransferOnePacket& (0+255),b
  4949  001320  0E00               	movlw	0
  4950  001322  0100               	movlb	0	; () banked
  4951  001324  6FA3               	movwf	(?_USBTransferOnePacket+1)& (0+255),b
  4952                           
  4953                           ; BSR set to: 0
  4954  001326  0012               	return	
  4955  001328                     l4870:
  4956                           
  4957                           ; BSR set to: 0
  4958                           ;usb_device.c: 1016: }
  4959                           ;usb_device.c: 1029: handle->ADR = ((uint16_t)(data));
  4960  001328  0100               	movlb	0	; () banked
  4961  00132A  EE20 F002          	lfsr	2,2
  4962  00132E  51AB               	movf	USBTransferOnePacket@handle& (0+255),w,b
  4963  001330  26D9               	addwf	fsr2l,f,c
  4964  001332  51AC               	movf	(USBTransferOnePacket@handle+1)& (0+255),w,b
  4965  001334  22DA               	addwfc	fsr2h,f,c
  4966  001336  C0A3  FFDE         	movff	USBTransferOnePacket@data,postinc2
  4967  00133A  C0A4  FFDD         	movff	USBTransferOnePacket@data+1,postdec2
  4968                           
  4969                           ;usb_device.c: 1030: handle->CNT = len;
  4970  00133E  0100               	movlb	0	; () banked
  4971  001340  EE20 F001          	lfsr	2,1
  4972  001344  51AB               	movf	USBTransferOnePacket@handle& (0+255),w,b
  4973  001346  26D9               	addwf	fsr2l,f,c
  4974  001348  51AC               	movf	(USBTransferOnePacket@handle+1)& (0+255),w,b
  4975  00134A  22DA               	addwfc	fsr2h,f,c
  4976  00134C  C0A5  FFDF         	movff	USBTransferOnePacket@len,indf2
  4977                           
  4978                           ; BSR set to: 0
  4979                           ;usb_device.c: 1031: handle->STAT.Val &= 0x40;
  4980  001350  C0AB  FFD9         	movff	USBTransferOnePacket@handle,fsr2l
  4981  001354  C0AC  FFDA         	movff	USBTransferOnePacket@handle+1,fsr2h
  4982  001358  0E40               	movlw	64
  4983  00135A  16DF               	andwf	indf2,f,c
  4984                           
  4985                           ; BSR set to: 0
  4986                           ;usb_device.c: 1032: handle->STAT.Val |= (0x08 & 0x08);
  4987  00135C  C0AB  FFD9         	movff	USBTransferOnePacket@handle,fsr2l
  4988  001360  C0AC  FFDA         	movff	USBTransferOnePacket@handle+1,fsr2h
  4989  001364  0E00               	movlw	0
  4990  001366  86DB               	bsf	plusw2,3,c
  4991                           
  4992                           ; BSR set to: 0
  4993                           ;usb_device.c: 1033: handle->STAT.Val |= 0x80;
  4994  001368  C0AB  FFD9         	movff	USBTransferOnePacket@handle,fsr2l
  4995  00136C  C0AC  FFDA         	movff	USBTransferOnePacket@handle+1,fsr2h
  4996  001370  0E00               	movlw	0
  4997  001372  8EDB               	bsf	plusw2,7,c
  4998                           
  4999                           ; BSR set to: 0
  5000                           ;usb_device.c: 1036: if(dir != 0)
  5001  001374  0100               	movlb	0	; () banked
  5002  001376  51A2               	movf	USBTransferOnePacket@dir& (0+255),w,b
  5003  001378  0100               	movlb	0	; () banked
  5004  00137A  B4D8               	btfsc	status,2,c
  5005  00137C  D01E               	goto	l4882
  5006                           
  5007                           ; BSR set to: 0
  5008                           ;usb_device.c: 1037: {
  5009                           ;usb_device.c: 1039: pBDTEntryIn[ep] = (BDT_ENTRY*)(((uintptr_t)pBDTEntryIn[ep]) ^ 0x000
      +                          4);
  5010  00137E  0100               	movlb	0	; () banked
  5011  001380  51AA               	movf	USBTransferOnePacket@ep& (0+255),w,b
  5012  001382  0D02               	mullw	2
  5013  001384  0E78               	movlw	low _pBDTEntryIn
  5014  001386  24F3               	addwf	prodl,w,c
  5015  001388  6ED9               	movwf	fsr2l,c
  5016  00138A  0E00               	movlw	high _pBDTEntryIn
  5017  00138C  20F4               	addwfc	prodh,w,c
  5018  00138E  6EDA               	movwf	fsr2h,c
  5019  001390  CFDE F0A6          	movff	postinc2,??_USBTransferOnePacket
  5020  001394  CFDD F0A7          	movff	postdec2,??_USBTransferOnePacket+1
  5021  001398  0E04               	movlw	4
  5022  00139A  0100               	movlb	0	; () banked
  5023  00139C  19A6               	xorwf	??_USBTransferOnePacket& (0+255),w,b
  5024  00139E  0100               	movlb	0	; () banked
  5025  0013A0  6FA8               	movwf	(??_USBTransferOnePacket+2)& (0+255),b
  5026  0013A2  0100               	movlb	0	; () banked
  5027  0013A4  51A7               	movf	(??_USBTransferOnePacket+1)& (0+255),w,b
  5028  0013A6  0100               	movlb	0	; () banked
  5029  0013A8  6FA9               	movwf	(??_USBTransferOnePacket+3)& (0+255),b
  5030  0013AA  0100               	movlb	0	; () banked
  5031  0013AC  51AA               	movf	USBTransferOnePacket@ep& (0+255),w,b
  5032  0013AE  0D02               	mullw	2
  5033  0013B0  0E78               	movlw	low _pBDTEntryIn
  5034  0013B2  24F3               	addwf	prodl,w,c
  5035  0013B4  6ED9               	movwf	fsr2l,c
  5036  0013B6  0E00               	movlw	high _pBDTEntryIn
  5037  0013B8  D01D               	goto	L3
  5038  0013BA                     l4882:
  5039                           
  5040                           ; BSR set to: 0
  5041                           ;usb_device.c: 1041: else
  5042                           ;usb_device.c: 1042: {
  5043                           ;usb_device.c: 1044: pBDTEntryOut[ep] = (BDT_ENTRY*)(((uintptr_t)pBDTEntryOut[ep]) ^ 0x0
      +                          004);
  5044  0013BA  0100               	movlb	0	; () banked
  5045  0013BC  51AA               	movf	USBTransferOnePacket@ep& (0+255),w,b
  5046  0013BE  0D02               	mullw	2
  5047  0013C0  0E7E               	movlw	low _pBDTEntryOut
  5048  0013C2  24F3               	addwf	prodl,w,c
  5049  0013C4  6ED9               	movwf	fsr2l,c
  5050  0013C6  0E00               	movlw	high _pBDTEntryOut
  5051  0013C8  20F4               	addwfc	prodh,w,c
  5052  0013CA  6EDA               	movwf	fsr2h,c
  5053  0013CC  CFDE F0A6          	movff	postinc2,??_USBTransferOnePacket
  5054  0013D0  CFDD F0A7          	movff	postdec2,??_USBTransferOnePacket+1
  5055  0013D4  0E04               	movlw	4
  5056  0013D6  0100               	movlb	0	; () banked
  5057  0013D8  19A6               	xorwf	??_USBTransferOnePacket& (0+255),w,b
  5058  0013DA  0100               	movlb	0	; () banked
  5059  0013DC  6FA8               	movwf	(??_USBTransferOnePacket+2)& (0+255),b
  5060  0013DE  0100               	movlb	0	; () banked
  5061  0013E0  51A7               	movf	(??_USBTransferOnePacket+1)& (0+255),w,b
  5062  0013E2  0100               	movlb	0	; () banked
  5063  0013E4  6FA9               	movwf	(??_USBTransferOnePacket+3)& (0+255),b
  5064  0013E6  0100               	movlb	0	; () banked
  5065  0013E8  51AA               	movf	USBTransferOnePacket@ep& (0+255),w,b
  5066  0013EA  0D02               	mullw	2
  5067  0013EC  0E7E               	movlw	low _pBDTEntryOut
  5068  0013EE  24F3               	addwf	prodl,w,c
  5069  0013F0  6ED9               	movwf	fsr2l,c
  5070  0013F2  0E00               	movlw	high _pBDTEntryOut
  5071  0013F4                     L3:
  5072  0013F4  20F4               	addwfc	prodh,w,c
  5073  0013F6  6EDA               	movwf	fsr2h,c
  5074  0013F8  C0A8  FFDE         	movff	??_USBTransferOnePacket+2,postinc2
  5075  0013FC  C0A9  FFDD         	movff	??_USBTransferOnePacket+3,postdec2
  5076                           
  5077                           ; BSR set to: 0
  5078                           ;usb_device.c: 1045: }
  5079                           ;usb_device.c: 1046: return (void*)handle;
  5080                           
  5081                           ; BSR set to: 0
  5082  001400  C0AB  F0A2         	movff	USBTransferOnePacket@handle,?_USBTransferOnePacket
  5083  001404  C0AC  F0A3         	movff	USBTransferOnePacket@handle+1,?_USBTransferOnePacket+1
  5084  001408  0012               	return	
  5085  00140A                     __end_of_USBTransferOnePacket:
  5086                           	opt stack 0
  5087                           tblptru	equ	0xFF8
  5088                           tblptrh	equ	0xFF7
  5089                           tblptrl	equ	0xFF6
  5090                           tablat	equ	0xFF5
  5091                           prodh	equ	0xFF4
  5092                           prodl	equ	0xFF3
  5093                           intcon	equ	0xFF2
  5094                           postinc0	equ	0xFEE
  5095                           wreg	equ	0xFE8
  5096                           indf1	equ	0xFE7
  5097                           postdec1	equ	0xFE5
  5098                           fsr1h	equ	0xFE2
  5099                           fsr1l	equ	0xFE1
  5100                           indf2	equ	0xFDF
  5101                           postinc2	equ	0xFDE
  5102                           postdec2	equ	0xFDD
  5103                           plusw2	equ	0xFDB
  5104                           fsr2h	equ	0xFDA
  5105                           fsr2l	equ	0xFD9
  5106                           status	equ	0xFD8
  5107                           
  5108 ;; *************** function _BUTTON_IsPressed *****************
  5109 ;; Defined at:
  5110 ;;		line 55 in file "picLibs/buttons.c"
  5111 ;; Parameters:    Size  Location     Type
  5112 ;;  button          1    wreg     enum E3304
  5113 ;; Auto vars:     Size  Location     Type
  5114 ;;  button          1    0[BANK0 ] enum E3304
  5115 ;; Return value:  Size  Location     Type
  5116 ;;                  1    wreg      unsigned char 
  5117 ;; Registers used:
  5118 ;;		wreg, status,2, status,0
  5119 ;; Tracked objects:
  5120 ;;		On entry : 0/0
  5121 ;;		On exit  : 0/0
  5122 ;;		Unchanged: 0/0
  5123 ;; Data sizes:     COMRAM   BANK0   BANK1   BANK2
  5124 ;;      Params:         0       0       0       0
  5125 ;;      Locals:         0       1       0       0
  5126 ;;      Temps:          0       0       0       0
  5127 ;;      Totals:         0       1       0       0
  5128 ;;Total ram usage:        1 bytes
  5129 ;; Hardware stack levels used:    1
  5130 ;; Hardware stack levels required when called:   10
  5131 ;; This function calls:
  5132 ;;		Nothing
  5133 ;; This function is called by:
  5134 ;;		_APP_DeviceCDCBasicDemoTasks
  5135 ;; This function uses a non-reentrant model
  5136 ;;
  5137                           
  5138                           	psect	text24
  5139  002778                     __ptext24:
  5140                           	opt stack 0
  5141  002778                     _BUTTON_IsPressed:
  5142                           	opt stack 19
  5143                           
  5144                           ; BSR set to: 0
  5145                           ;incstack = 0
  5146                           ;BUTTON_IsPressed@button stored from wreg
  5147  002778  0100               	movlb	0	; () banked
  5148  00277A  6FA2               	movwf	BUTTON_IsPressed@button& (0+255),b
  5149                           
  5150                           ;buttons.c: 57: switch(button)
  5151  00277C  D008               	goto	l4980
  5152  00277E                     l160:
  5153                           
  5154                           ; BSR set to: 0
  5155                           ;buttons.c: 60: return ( (PORTAbits.RA3 == 0) ? 1 : 0);
  5156  00277E  B680               	btfsc	3968,3,c	;volatile
  5157  002780  D002               	goto	u4240
  5158  002782  0E01               	movlw	1
  5159  002784  0012               	return	
  5160  002786                     u4240:
  5161  002786  0E00               	movlw	0
  5162  002788  0012               	return	
  5163  00278A                     l4974:
  5164                           
  5165                           ; BSR set to: 0
  5166                           ;buttons.c: 63: return 0;
  5167  00278A  0E00               	movlw	0
  5168                           
  5169                           ; BSR set to: 0
  5170  00278C  0012               	return	
  5171  00278E                     l4980:
  5172  00278E  0100               	movlb	0	; () banked
  5173  002790  51A2               	movf	BUTTON_IsPressed@button& (0+255),w,b
  5174                           
  5175                           ; Switch size 1, requested type "space"
  5176                           ; Number of cases is 2, Range of values is 0 to 1
  5177                           ; switch strategies available:
  5178                           ; Name         Instructions Cycles
  5179                           ; simple_byte            7     4 (average)
  5180                           ;	Chosen strategy is simple_byte
  5181  002792  0A00               	xorlw	0	; case 0
  5182  002794  B4D8               	btfsc	status,2,c
  5183  002796  D7F9               	goto	l4974
  5184  002798  0A01               	xorlw	1	; case 1
  5185  00279A  B4D8               	btfsc	status,2,c
  5186  00279C  D7F0               	goto	l160
  5187                           
  5188                           ; BSR set to: 0
  5189                           ;buttons.c: 66: return 0;
  5190                           
  5191                           ; BSR set to: 0
  5192  00279E  0E00               	movlw	0
  5193  0027A0  0012               	return	
  5194  0027A2                     __end_of_BUTTON_IsPressed:
  5195                           	opt stack 0
  5196                           tblptru	equ	0xFF8
  5197                           tblptrh	equ	0xFF7
  5198                           tblptrl	equ	0xFF6
  5199                           tablat	equ	0xFF5
  5200                           prodh	equ	0xFF4
  5201                           prodl	equ	0xFF3
  5202                           intcon	equ	0xFF2
  5203                           postinc0	equ	0xFEE
  5204                           wreg	equ	0xFE8
  5205                           indf1	equ	0xFE7
  5206                           postdec1	equ	0xFE5
  5207                           fsr1h	equ	0xFE2
  5208                           fsr1l	equ	0xFE1
  5209                           indf2	equ	0xFDF
  5210                           postinc2	equ	0xFDE
  5211                           postdec2	equ	0xFDD
  5212                           plusw2	equ	0xFDB
  5213                           fsr2h	equ	0xFDA
  5214                           fsr2l	equ	0xFD9
  5215                           status	equ	0xFD8
  5216                           
  5217 ;; *************** function _SYS_InterruptHigh *****************
  5218 ;; Defined at:
  5219 ;;		line 86 in file "picLibs/system.c"
  5220 ;; Parameters:    Size  Location     Type
  5221 ;;		None
  5222 ;; Auto vars:     Size  Location     Type
  5223 ;;		None
  5224 ;; Return value:  Size  Location     Type
  5225 ;;                  1    wreg      void 
  5226 ;; Registers used:
  5227 ;;		wreg, fsr1l, fsr1h, fsr2l, fsr2h, status,2, status,0, tblptrl, tblptrh, tblptru, prodl, prodh, cstack
  5228 ;; Tracked objects:
  5229 ;;		On entry : 0/0
  5230 ;;		On exit  : 0/0
  5231 ;;		Unchanged: 0/0
  5232 ;; Data sizes:     COMRAM   BANK0   BANK1   BANK2
  5233 ;;      Params:         0       0       0       0
  5234 ;;      Locals:         0       0       0       0
  5235 ;;      Temps:         14       0       0       0
  5236 ;;      Totals:        14       0       0       0
  5237 ;;Total ram usage:       14 bytes
  5238 ;; Hardware stack levels used:    1
  5239 ;; Hardware stack levels required when called:    9
  5240 ;; This function calls:
  5241 ;;		_USBDeviceTasks
  5242 ;; This function is called by:
  5243 ;;		Interrupt level 2
  5244 ;; This function uses a non-reentrant model
  5245 ;;
  5246                           
  5247                           	psect	intcode
  5248  000008                     __pintcode:
  5249                           	opt stack 0
  5250  000008                     _SYS_InterruptHigh:
  5251                           	opt stack 16
  5252                           
  5253                           ; BSR set to: 0
  5254                           ;incstack = 0
  5255  000008  8254               	bsf	btemp,1,c	;set compiler interrupt flag (level 2)
  5256  00000A  CFFA F01D          	movff	pclath,??_SYS_InterruptHigh
  5257  00000E  CFFB F01E          	movff	pclatu,??_SYS_InterruptHigh+1
  5258  000012  CFE9 F01F          	movff	fsr0l,??_SYS_InterruptHigh+2
  5259  000016  CFEA F020          	movff	fsr0h,??_SYS_InterruptHigh+3
  5260  00001A  CFE1 F021          	movff	fsr1l,??_SYS_InterruptHigh+4
  5261  00001E  CFE2 F022          	movff	fsr1h,??_SYS_InterruptHigh+5
  5262  000022  CFD9 F023          	movff	fsr2l,??_SYS_InterruptHigh+6
  5263  000026  CFDA F024          	movff	fsr2h,??_SYS_InterruptHigh+7
  5264  00002A  CFF3 F025          	movff	prodl,??_SYS_InterruptHigh+8
  5265  00002E  CFF4 F026          	movff	prodh,??_SYS_InterruptHigh+9
  5266  000032  CFF6 F027          	movff	tblptrl,??_SYS_InterruptHigh+10
  5267  000036  CFF7 F028          	movff	tblptrh,??_SYS_InterruptHigh+11
  5268  00003A  CFF8 F029          	movff	tblptru,??_SYS_InterruptHigh+12
  5269  00003E  CFF5 F02A          	movff	tablat,??_SYS_InterruptHigh+13
  5270                           
  5271                           ;system.c: 89: USBDeviceTasks();
  5272  000042  ECCF  F008         	call	_USBDeviceTasks	;wreg free
  5273  000046  C02A  FFF5         	movff	??_SYS_InterruptHigh+13,tablat
  5274  00004A  C029  FFF8         	movff	??_SYS_InterruptHigh+12,tblptru
  5275  00004E  C028  FFF7         	movff	??_SYS_InterruptHigh+11,tblptrh
  5276  000052  C027  FFF6         	movff	??_SYS_InterruptHigh+10,tblptrl
  5277  000056  C026  FFF4         	movff	??_SYS_InterruptHigh+9,prodh
  5278  00005A  C025  FFF3         	movff	??_SYS_InterruptHigh+8,prodl
  5279  00005E  C024  FFDA         	movff	??_SYS_InterruptHigh+7,fsr2h
  5280  000062  C023  FFD9         	movff	??_SYS_InterruptHigh+6,fsr2l
  5281  000066  C022  FFE2         	movff	??_SYS_InterruptHigh+5,fsr1h
  5282  00006A  C021  FFE1         	movff	??_SYS_InterruptHigh+4,fsr1l
  5283  00006E  C020  FFEA         	movff	??_SYS_InterruptHigh+3,fsr0h
  5284  000072  C01F  FFE9         	movff	??_SYS_InterruptHigh+2,fsr0l
  5285  000076  C01E  FFFB         	movff	??_SYS_InterruptHigh+1,pclatu
  5286  00007A  C01D  FFFA         	movff	??_SYS_InterruptHigh,pclath
  5287  00007E  9254               	bcf	btemp,1,c	;clear compiler interrupt flag (level 2)
  5288  000080  0011               	retfie		f
  5289  000082                     __end_of_SYS_InterruptHigh:
  5290                           	opt stack 0
  5291                           pclatu	equ	0xFFB
  5292                           pclath	equ	0xFFA
  5293                           tblptru	equ	0xFF8
  5294                           tblptrh	equ	0xFF7
  5295                           tblptrl	equ	0xFF6
  5296                           tablat	equ	0xFF5
  5297                           prodh	equ	0xFF4
  5298                           prodl	equ	0xFF3
  5299                           intcon	equ	0xFF2
  5300                           postinc0	equ	0xFEE
  5301                           fsr0h	equ	0xFEA
  5302                           fsr0l	equ	0xFE9
  5303                           wreg	equ	0xFE8
  5304                           indf1	equ	0xFE7
  5305                           postdec1	equ	0xFE5
  5306                           fsr1h	equ	0xFE2
  5307                           fsr1l	equ	0xFE1
  5308                           indf2	equ	0xFDF
  5309                           postinc2	equ	0xFDE
  5310                           postdec2	equ	0xFDD
  5311                           plusw2	equ	0xFDB
  5312                           fsr2h	equ	0xFDA
  5313                           fsr2l	equ	0xFD9
  5314                           status	equ	0xFD8
  5315                           
  5316 ;; *************** function _USBDeviceTasks *****************
  5317 ;; Defined at:
  5318 ;;		line 477 in file "picLibs/usb_device.c"
  5319 ;; Parameters:    Size  Location     Type
  5320 ;;		None
  5321 ;; Auto vars:     Size  Location     Type
  5322 ;;  i               1   27[COMRAM] unsigned char 
  5323 ;; Return value:  Size  Location     Type
  5324 ;;                  1    wreg      void 
  5325 ;; Registers used:
  5326 ;;		wreg, fsr1l, fsr1h, fsr2l, fsr2h, status,2, status,0, tblptrl, tblptrh, tblptru, prodl, prodh, cstack
  5327 ;; Tracked objects:
  5328 ;;		On entry : 0/0
  5329 ;;		On exit  : 0/0
  5330 ;;		Unchanged: 0/0
  5331 ;; Data sizes:     COMRAM   BANK0   BANK1   BANK2
  5332 ;;      Params:         0       0       0       0
  5333 ;;      Locals:         1       0       0       0
  5334 ;;      Temps:          0       0       0       0
  5335 ;;      Totals:         1       0       0       0
  5336 ;;Total ram usage:        1 bytes
  5337 ;; Hardware stack levels used:    1
  5338 ;; Hardware stack levels required when called:    8
  5339 ;; This function calls:
  5340 ;;		_USBCtrlEPAllowStatusStage
  5341 ;;		_USBCtrlEPService
  5342 ;;		_USBIncrement1msInternalTimers
  5343 ;;		_USBStallHandler
  5344 ;;		_USBSuspend
  5345 ;;		_USBWakeFromSuspend
  5346 ;;		_USER_USB_CALLBACK_EVENT_HANDLER
  5347 ;;		i2_USBDeviceInit
  5348 ;; This function is called by:
  5349 ;;		_SYS_InterruptHigh
  5350 ;; This function uses a non-reentrant model
  5351 ;;
  5352                           
  5353                           	psect	text26
  5354  00119E                     __ptext26:
  5355                           	opt stack 0
  5356  00119E                     _USBDeviceTasks:
  5357                           	opt stack 16
  5358                           
  5359                           ;usb_device.c: 479: uint8_t i;
  5360                           ;usb_device.c: 590: if(USBDeviceState == ATTACHED_STATE)
  5361                           
  5362                           ;incstack = 0
  5363  00119E  0100               	movlb	0	; () banked
  5364  0011A0  0599               	decf	_USBDeviceState& (0+255),w,b	;volatile
  5365  0011A2  B4D8               	btfsc	status,2,c
  5366                           
  5367                           ; BSR set to: 0
  5368                           ;usb_device.c: 591: {
  5369                           ;usb_device.c: 601: if(!UCONbits.SE0)
  5370  0011A4  BA64               	btfsc	3940,5,c	;volatile
  5371  0011A6  D007               	goto	i2l4430
  5372                           
  5373                           ; BSR set to: 0
  5374                           ;usb_device.c: 602: {
  5375                           ;usb_device.c: 608: {UIR = 0;};
  5376  0011A8  0E00               	movlw	0
  5377  0011AA  6E62               	movwf	3938,c	;volatile
  5378                           
  5379                           ; BSR set to: 0
  5380                           ;usb_device.c: 614: UIEbits.URSTIE = 1;
  5381  0011AC  8060               	bsf	3936,0,c	;volatile
  5382                           
  5383                           ; BSR set to: 0
  5384                           ;usb_device.c: 615: UIEbits.IDLEIE = 1;
  5385  0011AE  8860               	bsf	3936,4,c	;volatile
  5386                           
  5387                           ;usb_device.c: 616: USBDeviceState = POWERED_STATE;
  5388  0011B0  0E02               	movlw	2
  5389  0011B2  0100               	movlb	0	; () banked
  5390  0011B4  6F99               	movwf	_USBDeviceState& (0+255),b	;volatile
  5391  0011B6                     i2l4430:
  5392                           
  5393                           ; BSR set to: 0
  5394                           ;usb_device.c: 617: }
  5395                           ;usb_device.c: 618: }
  5396                           ;usb_device.c: 634: if(UIRbits.ACTVIF && UIEbits.ACTVIE)
  5397  0011B6  B462               	btfsc	3938,2,c	;volatile
  5398                           
  5399                           ; BSR set to: 0
  5400  0011B8  A460               	btfss	3936,2,c	;volatile
  5401  0011BA  D003               	goto	i2l4438
  5402                           
  5403                           ; BSR set to: 0
  5404                           ;usb_device.c: 635: {
  5405                           ;usb_device.c: 636: (UIR &= 0xFB);
  5406  0011BC  9462               	bcf	3938,2,c	;volatile
  5407                           
  5408                           ; BSR set to: 0
  5409                           ;usb_device.c: 640: USBWakeFromSuspend();
  5410  0011BE  EC5F  F013         	call	_USBWakeFromSuspend	;wreg free
  5411  0011C2                     i2l4438:
  5412                           
  5413                           ;usb_device.c: 642: }
  5414                           ;usb_device.c: 647: if(UCONbits.SUSPND==1)
  5415  0011C2  A264               	btfss	3940,1,c	;volatile
  5416  0011C4  D002               	goto	i2l408
  5417                           
  5418                           ;usb_device.c: 648: {
  5419                           ;usb_device.c: 649: {PIR2bits.USBIF = 0;};
  5420  0011C6  94A1               	bcf	4001,2,c	;volatile
  5421                           
  5422                           ;usb_device.c: 650: return;
  5423  0011C8  0012               	return	
  5424  0011CA                     i2l408:
  5425                           
  5426                           ;usb_device.c: 651: }
  5427                           ;usb_device.c: 663: if(UIRbits.URSTIF && UIEbits.URSTIE)
  5428  0011CA  B062               	btfsc	3938,0,c	;volatile
  5429  0011CC  A060               	btfss	3936,0,c	;volatile
  5430  0011CE  D007               	goto	i2l4452
  5431                           
  5432                           ;usb_device.c: 664: {
  5433                           ;usb_device.c: 665: USBDeviceInit();
  5434  0011D0  EC87  F007         	call	i2_USBDeviceInit	;wreg free
  5435                           
  5436                           ;usb_device.c: 669: {PIE2bits.USBIE = 1;};
  5437  0011D4  84A0               	bsf	4000,2,c	;volatile
  5438                           
  5439                           ;usb_device.c: 671: USBDeviceState = DEFAULT_STATE;
  5440  0011D6  0E04               	movlw	4
  5441  0011D8  0100               	movlb	0	; () banked
  5442  0011DA  6F99               	movwf	_USBDeviceState& (0+255),b	;volatile
  5443                           
  5444                           ; BSR set to: 0
  5445                           ;usb_device.c: 681: (UIR &= 0xFE);
  5446  0011DC  9062               	bcf	3938,0,c	;volatile
  5447  0011DE                     i2l4452:
  5448                           
  5449                           ;usb_device.c: 682: }
  5450                           ;usb_device.c: 687: if(UIRbits.IDLEIF && UIEbits.IDLEIE)
  5451  0011DE  B862               	btfsc	3938,4,c	;volatile
  5452  0011E0  A860               	btfss	3936,4,c	;volatile
  5453  0011E2  D002               	goto	i2l4458
  5454                           
  5455                           ;usb_device.c: 688: {
  5456                           ;usb_device.c: 694: USBSuspend();
  5457  0011E4  EC90  F013         	call	_USBSuspend	;wreg free
  5458  0011E8                     i2l4458:
  5459                           
  5460                           ;usb_device.c: 696: }
  5461                           ;usb_device.c: 708: if(UIRbits.SOFIF)
  5462  0011E8  AC62               	btfss	3938,6,c	;volatile
  5463  0011EA  D01A               	goto	i2l4476
  5464                           
  5465                           ;usb_device.c: 709: {
  5466                           ;usb_device.c: 711: if(UIEbits.SOFIE)
  5467  0011EC  AC60               	btfss	3936,6,c	;volatile
  5468  0011EE  D00E               	goto	i2l4464
  5469                           
  5470                           ;usb_device.c: 712: {
  5471                           ;usb_device.c: 713: USER_USB_CALLBACK_EVENT_HANDLER(EVENT_SOF,0,1);
  5472  0011F0  0E00               	movlw	0
  5473  0011F2  6E0E               	movwf	USER_USB_CALLBACK_EVENT_HANDLER@event+1,c
  5474  0011F4  0E73               	movlw	115
  5475  0011F6  6E0D               	movwf	USER_USB_CALLBACK_EVENT_HANDLER@event,c
  5476  0011F8  0E00               	movlw	0
  5477  0011FA  6E0F               	movwf	USER_USB_CALLBACK_EVENT_HANDLER@pdata,c
  5478  0011FC  0E00               	movlw	0
  5479  0011FE  6E10               	movwf	USER_USB_CALLBACK_EVENT_HANDLER@pdata+1,c
  5480  001200  0E00               	movlw	0
  5481  001202  6E12               	movwf	USER_USB_CALLBACK_EVENT_HANDLER@size+1,c
  5482  001204  0E01               	movlw	1
  5483  001206  6E11               	movwf	USER_USB_CALLBACK_EVENT_HANDLER@size,c
  5484  001208  ECF1  F010         	call	_USER_USB_CALLBACK_EVENT_HANDLER	;wreg free
  5485  00120C                     i2l4464:
  5486                           
  5487                           ;usb_device.c: 714: }
  5488                           ;usb_device.c: 715: (UIR &= 0xBF);
  5489  00120C  9C62               	bcf	3938,6,c	;volatile
  5490                           
  5491                           ;usb_device.c: 718: USBIncrement1msInternalTimers();
  5492  00120E  EC1C  F014         	call	_USBIncrement1msInternalTimers	;wreg free
  5493                           
  5494                           ;usb_device.c: 735: if(USBStatusStageTimeoutCounter != 0u)
  5495  001212  5042               	movf	_USBStatusStageTimeoutCounter,w,c	;volatile
  5496  001214  A4D8               	btfss	status,2,c
  5497                           
  5498                           ;usb_device.c: 736: {
  5499                           ;usb_device.c: 737: USBStatusStageTimeoutCounter--;
  5500  001216  0642               	decf	_USBStatusStageTimeoutCounter,f,c	;volatile
  5501                           
  5502                           ;usb_device.c: 738: }
  5503                           ;usb_device.c: 744: if(USBStatusStageTimeoutCounter == 0)
  5504  001218  5042               	movf	_USBStatusStageTimeoutCounter,w,c	;volatile
  5505  00121A  B4D8               	btfsc	status,2,c
  5506                           
  5507                           ;usb_device.c: 745: {
  5508                           ;usb_device.c: 746: USBCtrlEPAllowStatusStage();
  5509  00121C  EC9D  F00E         	call	_USBCtrlEPAllowStatusStage	;wreg free
  5510  001220                     i2l4476:
  5511                           
  5512                           ;usb_device.c: 747: }
  5513                           ;usb_device.c: 749: }
  5514                           ;usb_device.c: 751: if(UIRbits.STALLIF && UIEbits.STALLIE)
  5515  001220  BA62               	btfsc	3938,5,c	;volatile
  5516  001222  AA60               	btfss	3936,5,c	;volatile
  5517  001224  D002               	goto	i2l4482
  5518                           
  5519                           ;usb_device.c: 752: {
  5520                           ;usb_device.c: 753: USBStallHandler();
  5521  001226  EC3E  F012         	call	_USBStallHandler	;wreg free
  5522  00122A                     i2l4482:
  5523                           
  5524                           ;usb_device.c: 754: }
  5525                           ;usb_device.c: 756: if(UIRbits.UERRIF && UIEbits.UERRIE)
  5526  00122A  B262               	btfsc	3938,1,c	;volatile
  5527  00122C  A260               	btfss	3936,1,c	;volatile
  5528  00122E  D010               	goto	i2l4490
  5529                           
  5530                           ;usb_device.c: 757: {
  5531                           ;usb_device.c: 758: USER_USB_CALLBACK_EVENT_HANDLER(EVENT_BUS_ERROR,0,1);
  5532  001230  0E7F               	movlw	127
  5533  001232  6E0E               	movwf	USER_USB_CALLBACK_EVENT_HANDLER@event+1,c
  5534  001234  680D               	setf	USER_USB_CALLBACK_EVENT_HANDLER@event,c
  5535  001236  0E00               	movlw	0
  5536  001238  6E0F               	movwf	USER_USB_CALLBACK_EVENT_HANDLER@pdata,c
  5537  00123A  0E00               	movlw	0
  5538  00123C  6E10               	movwf	USER_USB_CALLBACK_EVENT_HANDLER@pdata+1,c
  5539  00123E  0E00               	movlw	0
  5540  001240  6E12               	movwf	USER_USB_CALLBACK_EVENT_HANDLER@size+1,c
  5541  001242  0E01               	movlw	1
  5542  001244  6E11               	movwf	USER_USB_CALLBACK_EVENT_HANDLER@size,c
  5543  001246  ECF1  F010         	call	_USER_USB_CALLBACK_EVENT_HANDLER	;wreg free
  5544                           
  5545                           ;usb_device.c: 759: {UEIR = 0;};
  5546  00124A  0E00               	movlw	0
  5547  00124C  010F               	movlb	15	; () banked
  5548  00124E  6F5F               	movwf	95,b	;volatile
  5549  001250                     i2l4490:
  5550                           
  5551                           ;usb_device.c: 767: }
  5552                           ;usb_device.c: 774: if(USBDeviceState < DEFAULT_STATE)
  5553  001250  0E04               	movlw	4
  5554  001252  0100               	movlb	0	; () banked
  5555  001254  6199               	cpfslt	_USBDeviceState& (0+255),b	;volatile
  5556  001256  D002               	goto	i2l418
  5557                           
  5558                           ; BSR set to: 0
  5559                           ;usb_device.c: 775: {
  5560                           ;usb_device.c: 776: {PIR2bits.USBIF = 0;};
  5561  001258  94A1               	bcf	4001,2,c	;volatile
  5562                           
  5563                           ;usb_device.c: 777: return;
  5564  00125A  0012               	return	
  5565  00125C                     i2l418:
  5566                           
  5567                           ; BSR set to: 0
  5568                           ;usb_device.c: 778: }
  5569                           ;usb_device.c: 783: if(UIEbits.TRNIE)
  5570  00125C  A660               	btfss	3936,3,c	;volatile
  5571  00125E  D039               	goto	i2l419
  5572                           
  5573                           ; BSR set to: 0
  5574                           ;usb_device.c: 784: {
  5575                           ;usb_device.c: 785: for(i = 0; i < 4u; i++)
  5576  001260  0E00               	movlw	0
  5577  001262  6E1C               	movwf	USBDeviceTasks@i,c
  5578  001264                     i2l4496:
  5579                           
  5580                           ; BSR set to: 0
  5581  001264  0E03               	movlw	3
  5582  001266  641C               	cpfsgt	USBDeviceTasks@i,c
  5583  001268  D001               	goto	i2l420
  5584  00126A  D033               	goto	i2l419
  5585  00126C                     i2l420:
  5586                           
  5587                           ;usb_device.c: 786: {
  5588                           ;usb_device.c: 787: if(UIRbits.TRNIF)
  5589  00126C  A662               	btfss	3938,3,c	;volatile
  5590  00126E  D031               	goto	i2l419
  5591                           
  5592                           ;usb_device.c: 788: {
  5593                           ;usb_device.c: 790: USTATcopy.Val = USTAT;
  5594  001270  CF63 F052          	movff	3939,_USTATcopy	;volatile
  5595                           
  5596                           ;usb_device.c: 791: endpoint_number = USTATcopy.endpoint_number;
  5597  001274  3052               	rrcf	_USTATcopy,w,c	;volatile
  5598  001276  32E8               	rrcf	wreg,f,c
  5599  001278  32E8               	rrcf	wreg,f,c
  5600  00127A  0B0F               	andlw	15
  5601  00127C  6E44               	movwf	_endpoint_number,c	;volatile
  5602                           
  5603                           ;usb_device.c: 793: (UIR &= 0xF7);
  5604  00127E  9662               	bcf	3938,3,c	;volatile
  5605                           
  5606                           ;usb_device.c: 798: if(USTATcopy.direction == 0)
  5607  001280  B452               	btfsc	_USTATcopy,2,c	;volatile
  5608  001282  D007               	goto	i2l4510
  5609                           
  5610                           ;usb_device.c: 799: {
  5611                           ;usb_device.c: 800: ep_data_out[endpoint_number].bits.ping_pong_state ^= 1;
  5612  001284  5044               	movf	_endpoint_number,w,c	;volatile
  5613  001286  0D01               	mullw	1
  5614  001288  0E8A               	movlw	low _ep_data_out
  5615  00128A  24F3               	addwf	prodl,w,c
  5616  00128C  6ED9               	movwf	fsr2l,c
  5617  00128E  0E00               	movlw	high _ep_data_out
  5618  001290  D006               	goto	L4
  5619  001292                     i2l4510:
  5620                           
  5621                           ;usb_device.c: 802: else
  5622                           ;usb_device.c: 803: {
  5623                           ;usb_device.c: 804: ep_data_in[endpoint_number].bits.ping_pong_state ^= 1;
  5624  001292  5044               	movf	_endpoint_number,w,c	;volatile
  5625  001294  0D01               	mullw	1
  5626  001296  0E8D               	movlw	low _ep_data_in
  5627  001298  24F3               	addwf	prodl,w,c
  5628  00129A  6ED9               	movwf	fsr2l,c
  5629  00129C  0E00               	movlw	high _ep_data_in
  5630  00129E                     L4:
  5631  00129E  20F4               	addwfc	prodh,w,c
  5632  0012A0  6EDA               	movwf	fsr2h,c
  5633  0012A2  0100               	movlb	0	; () banked
  5634  0012A4  70DF               	btg	indf2,0,c
  5635                           
  5636                           ; BSR set to: 0
  5637                           ;usb_device.c: 805: }
  5638                           ;usb_device.c: 810: if(endpoint_number == 0)
  5639                           
  5640                           ; BSR set to: 0
  5641  0012A6  5044               	movf	_endpoint_number,w,c	;volatile
  5642  0012A8  A4D8               	btfss	status,2,c
  5643  0012AA  D003               	goto	i2l4516
  5644                           
  5645                           ; BSR set to: 0
  5646                           ;usb_device.c: 811: {
  5647                           ;usb_device.c: 812: USBCtrlEPService();
  5648  0012AC  EC5C  F010         	call	_USBCtrlEPService	;wreg free
  5649                           
  5650                           ;usb_device.c: 813: }
  5651  0012B0  D00E               	goto	i2l4518
  5652  0012B2                     i2l4516:
  5653                           
  5654                           ;usb_device.c: 814: else
  5655                           ;usb_device.c: 815: {
  5656                           ;usb_device.c: 816: USER_USB_CALLBACK_EVENT_HANDLER(EVENT_TRANSFER,(uint8_t*)&USTATcopy.
      +                          Val,0);
  5657  0012B2  0E00               	movlw	0
  5658  0012B4  6E0E               	movwf	USER_USB_CALLBACK_EVENT_HANDLER@event+1,c
  5659  0012B6  0E72               	movlw	114
  5660  0012B8  6E0D               	movwf	USER_USB_CALLBACK_EVENT_HANDLER@event,c
  5661  0012BA  0E52               	movlw	low _USTATcopy
  5662  0012BC  6E0F               	movwf	USER_USB_CALLBACK_EVENT_HANDLER@pdata,c
  5663  0012BE  0E00               	movlw	high _USTATcopy
  5664  0012C0  6E10               	movwf	USER_USB_CALLBACK_EVENT_HANDLER@pdata+1,c
  5665  0012C2  0E00               	movlw	0
  5666  0012C4  6E12               	movwf	USER_USB_CALLBACK_EVENT_HANDLER@size+1,c
  5667  0012C6  0E00               	movlw	0
  5668  0012C8  6E11               	movwf	USER_USB_CALLBACK_EVENT_HANDLER@size,c
  5669  0012CA  ECF1  F010         	call	_USER_USB_CALLBACK_EVENT_HANDLER	;wreg free
  5670  0012CE                     i2l4518:
  5671  0012CE  2A1C               	incf	USBDeviceTasks@i,f,c
  5672  0012D0  D7C9               	goto	i2l4496
  5673  0012D2                     i2l419:
  5674                           
  5675                           ;usb_device.c: 822: }
  5676                           ;usb_device.c: 823: }
  5677                           ;usb_device.c: 824: }
  5678                           ;usb_device.c: 826: {PIR2bits.USBIF = 0;};
  5679  0012D2  94A1               	bcf	4001,2,c	;volatile
  5680  0012D4  0012               	return		;funcret
  5681  0012D6                     __end_of_USBDeviceTasks:
  5682                           	opt stack 0
  5683                           pclatu	equ	0xFFB
  5684                           pclath	equ	0xFFA
  5685                           tblptru	equ	0xFF8
  5686                           tblptrh	equ	0xFF7
  5687                           tblptrl	equ	0xFF6
  5688                           tablat	equ	0xFF5
  5689                           prodh	equ	0xFF4
  5690                           prodl	equ	0xFF3
  5691                           intcon	equ	0xFF2
  5692                           postinc0	equ	0xFEE
  5693                           fsr0h	equ	0xFEA
  5694                           fsr0l	equ	0xFE9
  5695                           wreg	equ	0xFE8
  5696                           indf1	equ	0xFE7
  5697                           postdec1	equ	0xFE5
  5698                           fsr1h	equ	0xFE2
  5699                           fsr1l	equ	0xFE1
  5700                           indf2	equ	0xFDF
  5701                           postinc2	equ	0xFDE
  5702                           postdec2	equ	0xFDD
  5703                           plusw2	equ	0xFDB
  5704                           fsr2h	equ	0xFDA
  5705                           fsr2l	equ	0xFD9
  5706                           status	equ	0xFD8
  5707                           
  5708 ;; *************** function i2_USBDeviceInit *****************
  5709 ;; Defined at:
  5710 ;;		line 277 in file "picLibs/usb_device.c"
  5711 ;; Parameters:    Size  Location     Type
  5712 ;;		None
  5713 ;; Auto vars:     Size  Location     Type
  5714 ;;  USBDeviceIni    1    8[COMRAM] unsigned char 
  5715 ;; Return value:  Size  Location     Type
  5716 ;;                  1    wreg      void 
  5717 ;; Registers used:
  5718 ;;		wreg, fsr2l, fsr2h, status,2, status,0, prodl, prodh, cstack
  5719 ;; Tracked objects:
  5720 ;;		On entry : 0/0
  5721 ;;		On exit  : 0/0
  5722 ;;		Unchanged: 0/0
  5723 ;; Data sizes:     COMRAM   BANK0   BANK1   BANK2
  5724 ;;      Params:         0       0       0       0
  5725 ;;      Locals:         1       0       0       0
  5726 ;;      Temps:          0       0       0       0
  5727 ;;      Totals:         1       0       0       0
  5728 ;;Total ram usage:        1 bytes
  5729 ;; Hardware stack levels used:    1
  5730 ;; Hardware stack levels required when called:    1
  5731 ;; This function calls:
  5732 ;;		i2_memset
  5733 ;; This function is called by:
  5734 ;;		_USBDeviceTasks
  5735 ;; This function uses a non-reentrant model
  5736 ;;
  5737                           
  5738                           	psect	text27
  5739  000F0E                     __ptext27:
  5740                           	opt stack 0
  5741  000F0E                     i2_USBDeviceInit:
  5742                           	opt stack 22
  5743                           
  5744                           ;usb_device.c: 279: uint8_t i;
  5745                           ;usb_device.c: 281: {PIE2bits.USBIE = 0;};
  5746                           
  5747                           ;incstack = 0
  5748  000F0E  94A0               	bcf	4000,2,c	;volatile
  5749                           
  5750                           ;usb_device.c: 285: ;
  5751                           ;usb_device.c: 288: {UEIR = 0;};
  5752  000F10  0E00               	movlw	0
  5753  000F12  010F               	movlb	15	; () banked
  5754  000F14  6F5F               	movwf	95,b	;volatile
  5755                           
  5756                           ;usb_device.c: 291: {UIR = 0;};
  5757  000F16  0E00               	movlw	0
  5758  000F18  6E62               	movwf	3938,c	;volatile
  5759                           
  5760                           ;usb_device.c: 294: UEP0 = 0;
  5761  000F1A  0E00               	movlw	0
  5762  000F1C  010F               	movlb	15	; () banked
  5763  000F1E  6F53               	movwf	83,b	;volatile
  5764                           
  5765                           ; BSR set to: 15
  5766                           ;usb_device.c: 296: memset((void*)&UEP1,0x00,(2));;
  5767  000F20  0E54               	movlw	84
  5768  000F22  6E01               	movwf	i2memset@p1,c
  5769  000F24  0E0F               	movlw	15
  5770  000F26  6E02               	movwf	i2memset@p1+1,c
  5771  000F28  0E00               	movlw	0
  5772  000F2A  6E04               	movwf	i2memset@c+1,c
  5773  000F2C  0E00               	movlw	0
  5774  000F2E  6E03               	movwf	i2memset@c,c
  5775  000F30  0E00               	movlw	0
  5776  000F32  6E06               	movwf	i2memset@n+1,c
  5777  000F34  0E02               	movlw	2
  5778  000F36  6E05               	movwf	i2memset@n,c
  5779  000F38  ECA6  F013         	call	i2_memset	;wreg free
  5780                           
  5781                           ;usb_device.c: 298: { UCFG = 0x10 | 0x00 | 0x04 | 0x02; UEIE = 0x9F; UIE = 0x39 | 0x40 |
      +                           0x02; };
  5782  000F3C  0E16               	movlw	22
  5783  000F3E  6E61               	movwf	3937,c	;volatile
  5784  000F40  0E9F               	movlw	159
  5785  000F42  010F               	movlb	15	; () banked
  5786  000F44  6F5B               	movwf	91,b	;volatile
  5787                           
  5788                           ; BSR set to: 15
  5789  000F46  0E7B               	movlw	123
  5790  000F48  6E60               	movwf	3936,c	;volatile
  5791                           
  5792                           ; BSR set to: 15
  5793                           ;usb_device.c: 301: ;
  5794                           ;usb_device.c: 304: ;
  5795                           ;usb_device.c: 307: for(i = 0; i < (sizeof(BDT)/sizeof(BDT_ENTRY)); i++)
  5796  000F4A  0E00               	movlw	0
  5797  000F4C  6E09               	movwf	i2USBDeviceInit@i,c
  5798  000F4E                     i2l4314:
  5799                           
  5800                           ; BSR set to: 15
  5801  000F4E  0E0B               	movlw	11
  5802  000F50  6409               	cpfsgt	i2USBDeviceInit@i,c
  5803  000F52  D001               	goto	i2l4318
  5804  000F54  D00E               	goto	i2l397
  5805  000F56                     i2l4318:
  5806                           
  5807                           ;usb_device.c: 308: {
  5808                           ;usb_device.c: 309: BDT[i].Val = 0x00;
  5809  000F56  5009               	movf	i2USBDeviceInit@i,w,c
  5810  000F58  0D04               	mullw	4
  5811  000F5A  0E00               	movlw	0
  5812  000F5C  24F3               	addwf	prodl,w,c
  5813  000F5E  6ED9               	movwf	fsr2l,c
  5814  000F60  0E02               	movlw	2
  5815  000F62  20F4               	addwfc	prodh,w,c
  5816  000F64  6EDA               	movwf	fsr2h,c
  5817  000F66  6ADE               	clrf	postinc2,c
  5818  000F68  6ADE               	clrf	postinc2,c
  5819  000F6A  6ADE               	clrf	postinc2,c
  5820  000F6C  6ADD               	clrf	postdec2,c
  5821  000F6E  2A09               	incf	i2USBDeviceInit@i,f,c
  5822  000F70  D7EE               	goto	i2l4314
  5823  000F72                     i2l397:
  5824                           
  5825                           ;usb_device.c: 310: }
  5826                           ;usb_device.c: 313: UCONbits.PPBRST = 1;
  5827  000F72  8C64               	bsf	3940,6,c	;volatile
  5828                           
  5829                           ;usb_device.c: 316: UADDR = 0x00;
  5830  000F74  0E00               	movlw	0
  5831  000F76  010F               	movlb	15	; () banked
  5832  000F78  6F5C               	movwf	92,b	;volatile
  5833                           
  5834                           ; BSR set to: 15
  5835                           ;usb_device.c: 319: UCONbits.PKTDIS = 0;
  5836  000F7A  9864               	bcf	3940,4,c	;volatile
  5837                           
  5838                           ; BSR set to: 15
  5839                           ;usb_device.c: 322: UCONbits.PPBRST = 0;
  5840  000F7C  9C64               	bcf	3940,6,c	;volatile
  5841  000F7E                     i2l4330:
  5842                           
  5843                           ;usb_device.c: 326: {
  5844                           ;usb_device.c: 327: (UIR &= 0xF7);
  5845  000F7E  9662               	bcf	3938,3,c	;volatile
  5846                           
  5847                           ;usb_device.c: 329: inPipes[0].info.Val = 0;
  5848  000F80  0E00               	movlw	0
  5849  000F82  0100               	movlb	0	; () banked
  5850  000F84  6F75               	movwf	(_inPipes+3)& (0+255),b	;volatile
  5851                           
  5852                           ; BSR set to: 0
  5853                           ;usb_device.c: 330: outPipes[0].info.Val = 0;
  5854  000F86  0E00               	movlw	0
  5855  000F88  0100               	movlb	0	; () banked
  5856  000F8A  6F6D               	movwf	(_outPipes+3)& (0+255),b	;volatile
  5857                           
  5858                           ; BSR set to: 0
  5859                           ;usb_device.c: 331: outPipes[0].wCount.Val = 0;
  5860  000F8C  0E00               	movlw	0
  5861  000F8E  0100               	movlb	0	; () banked
  5862  000F90  6F6F               	movwf	(_outPipes+5)& (0+255),b	;volatile
  5863  000F92  0E00               	movlw	0
  5864  000F94  6F6E               	movwf	(_outPipes+4)& (0+255),b	;volatile
  5865                           
  5866                           ; BSR set to: 0
  5867                           ;usb_device.c: 332: }while(UIRbits.TRNIF == 1);
  5868  000F96  B662               	btfsc	3938,3,c	;volatile
  5869  000F98  D7F2               	goto	i2l4330
  5870                           
  5871                           ; BSR set to: 0
  5872                           ;usb_device.c: 336: USBStatusStageEnabledFlag1 = 1;
  5873                           
  5874                           ; BSR set to: 0
  5875  000F9A  0E01               	movlw	1
  5876  000F9C  6E40               	movwf	_USBStatusStageEnabledFlag1,c	;volatile
  5877                           
  5878                           ;usb_device.c: 337: USBStatusStageEnabledFlag2 = 1;
  5879  000F9E  0E01               	movlw	1
  5880  000FA0  6E3F               	movwf	_USBStatusStageEnabledFlag2,c	;volatile
  5881                           
  5882                           ;usb_device.c: 339: USBDeferINDataStagePackets = 0;
  5883  000FA2  0E00               	movlw	0
  5884  000FA4  6E3E               	movwf	_USBDeferINDataStagePackets,c	;volatile
  5885                           
  5886                           ;usb_device.c: 340: USBDeferOUTDataStagePackets = 0;
  5887  000FA6  0E00               	movlw	0
  5888  000FA8  6E3D               	movwf	_USBDeferOUTDataStagePackets,c	;volatile
  5889                           
  5890                           ;usb_device.c: 341: USBBusIsSuspended = 0;
  5891  000FAA  0E00               	movlw	0
  5892  000FAC  6E45               	movwf	_USBBusIsSuspended,c	;volatile
  5893                           
  5894                           ;usb_device.c: 345: for(i = 0; i < (uint8_t)(2+1u); i++)
  5895  000FAE  0E00               	movlw	0
  5896  000FB0  6E09               	movwf	i2USBDeviceInit@i,c
  5897  000FB2                     i2l4342:
  5898                           
  5899                           ; BSR set to: 0
  5900  000FB2  0E02               	movlw	2
  5901  000FB4  6409               	cpfsgt	i2USBDeviceInit@i,c
  5902  000FB6  D001               	goto	i2l4346
  5903  000FB8  D02E               	goto	i2l4352
  5904  000FBA                     i2l4346:
  5905                           
  5906                           ;usb_device.c: 346: {
  5907                           ;usb_device.c: 347: pBDTEntryIn[i] = 0u;
  5908  000FBA  5009               	movf	i2USBDeviceInit@i,w,c
  5909  000FBC  0D02               	mullw	2
  5910  000FBE  0E78               	movlw	low _pBDTEntryIn
  5911  000FC0  24F3               	addwf	prodl,w,c
  5912  000FC2  6ED9               	movwf	fsr2l,c
  5913  000FC4  0E00               	movlw	high _pBDTEntryIn
  5914  000FC6  20F4               	addwfc	prodh,w,c
  5915  000FC8  6EDA               	movwf	fsr2h,c
  5916  000FCA  0E00               	movlw	0
  5917  000FCC  6EDE               	movwf	postinc2,c
  5918  000FCE  0E00               	movlw	0
  5919  000FD0  6EDD               	movwf	postdec2,c
  5920                           
  5921                           ;usb_device.c: 348: pBDTEntryOut[i] = 0u;
  5922  000FD2  5009               	movf	i2USBDeviceInit@i,w,c
  5923  000FD4  0D02               	mullw	2
  5924  000FD6  0E7E               	movlw	low _pBDTEntryOut
  5925  000FD8  24F3               	addwf	prodl,w,c
  5926  000FDA  6ED9               	movwf	fsr2l,c
  5927  000FDC  0E00               	movlw	high _pBDTEntryOut
  5928  000FDE  20F4               	addwfc	prodh,w,c
  5929  000FE0  6EDA               	movwf	fsr2h,c
  5930  000FE2  0E00               	movlw	0
  5931  000FE4  6EDE               	movwf	postinc2,c
  5932  000FE6  0E00               	movlw	0
  5933  000FE8  6EDD               	movwf	postdec2,c
  5934                           
  5935                           ;usb_device.c: 349: ep_data_in[i].Val = 0u;
  5936  000FEA  5009               	movf	i2USBDeviceInit@i,w,c
  5937  000FEC  0D01               	mullw	1
  5938  000FEE  0E8D               	movlw	low _ep_data_in
  5939  000FF0  24F3               	addwf	prodl,w,c
  5940  000FF2  6ED9               	movwf	fsr2l,c
  5941  000FF4  0E00               	movlw	high _ep_data_in
  5942  000FF6  20F4               	addwfc	prodh,w,c
  5943  000FF8  6EDA               	movwf	fsr2h,c
  5944  000FFA  0E00               	movlw	0
  5945  000FFC  6EDF               	movwf	indf2,c
  5946                           
  5947                           ;usb_device.c: 350: ep_data_out[i].Val = 0u;
  5948  000FFE  5009               	movf	i2USBDeviceInit@i,w,c
  5949  001000  0D01               	mullw	1
  5950  001002  0E8A               	movlw	low _ep_data_out
  5951  001004  24F3               	addwf	prodl,w,c
  5952  001006  6ED9               	movwf	fsr2l,c
  5953  001008  0E00               	movlw	high _ep_data_out
  5954  00100A  20F4               	addwfc	prodh,w,c
  5955  00100C  6EDA               	movwf	fsr2h,c
  5956  00100E  0E00               	movlw	0
  5957  001010  6EDF               	movwf	indf2,c
  5958  001012  2A09               	incf	i2USBDeviceInit@i,f,c
  5959  001014  D7CE               	goto	i2l4342
  5960  001016                     i2l4352:
  5961                           
  5962                           ;usb_device.c: 351: }
  5963                           ;usb_device.c: 354: pBDTEntryIn[0] = (volatile BDT_ENTRY*)&BDT[2];
  5964  001016  0E08               	movlw	8
  5965  001018  0100               	movlb	0	; () banked
  5966  00101A  6F78               	movwf	_pBDTEntryIn& (0+255),b
  5967  00101C  0E02               	movlw	2
  5968  00101E  0100               	movlb	0	; () banked
  5969  001020  6F79               	movwf	(_pBDTEntryIn+1)& (0+255),b
  5970                           
  5971                           ; BSR set to: 0
  5972                           ;usb_device.c: 356: UEP0 = 0x06|0x10;
  5973  001022  0E16               	movlw	22
  5974  001024  010F               	movlb	15	; () banked
  5975  001026  6F53               	movwf	83,b	;volatile
  5976                           
  5977                           ; BSR set to: 15
  5978                           ;usb_device.c: 358: BDT[0].ADR = ((uint16_t)(&SetupPkt));
  5979  001028  0E02               	movlw	2
  5980  00102A  0102               	movlb	2	; () banked
  5981  00102C  6F03               	movwf	3,b	;volatile
  5982  00102E  0E30               	movlw	48
  5983  001030  6F02               	movwf	2,b	;volatile
  5984                           
  5985                           ; BSR set to: 2
  5986                           ;usb_device.c: 359: BDT[0].CNT = 8;
  5987  001032  0E08               	movlw	8
  5988  001034  0102               	movlb	2	; () banked
  5989  001036  6F01               	movwf	1,b	;volatile
  5990                           
  5991                           ; BSR set to: 2
  5992                           ;usb_device.c: 360: BDT[0].STAT.Val = 0x00|0x04;
  5993  001038  0E04               	movlw	4
  5994  00103A  0102               	movlb	2	; () banked
  5995  00103C  6F00               	movwf	0,b	;volatile
  5996                           
  5997                           ; BSR set to: 2
  5998                           ;usb_device.c: 361: BDT[0].STAT.Val |= 0x80;
  5999  00103E  0102               	movlb	2	; () banked
  6000  001040  8F00               	bsf	0,7,b	;volatile
  6001                           
  6002                           ; BSR set to: 2
  6003                           ;usb_device.c: 364: USBActiveConfiguration = 0;
  6004  001042  0E00               	movlw	0
  6005  001044  6E53               	movwf	_USBActiveConfiguration,c	;volatile
  6006                           
  6007                           ; BSR set to: 2
  6008                           ;usb_device.c: 366: USB1msTickCount = 0;
  6009  001046  0E00               	movlw	0
  6010  001048  6E2F               	movwf	_USB1msTickCount,c	;volatile
  6011  00104A  0E00               	movlw	0
  6012  00104C  6E30               	movwf	_USB1msTickCount+1,c	;volatile
  6013  00104E  0E00               	movlw	0
  6014  001050  6E31               	movwf	_USB1msTickCount+2,c	;volatile
  6015  001052  0E00               	movlw	0
  6016  001054  6E32               	movwf	_USB1msTickCount+3,c	;volatile
  6017                           
  6018                           ; BSR set to: 2
  6019                           ;usb_device.c: 367: USBTicksSinceSuspendEnd = 0;
  6020  001056  0E00               	movlw	0
  6021  001058  6E3C               	movwf	_USBTicksSinceSuspendEnd,c	;volatile
  6022                           
  6023                           ; BSR set to: 2
  6024                           ;usb_device.c: 370: USBDeviceState = DETACHED_STATE;
  6025  00105A  0E00               	movlw	0
  6026  00105C  0100               	movlb	0	; () banked
  6027  00105E  6F99               	movwf	_USBDeviceState& (0+255),b	;volatile
  6028                           
  6029                           ; BSR set to: 0
  6030  001060  0012               	return		;funcret
  6031  001062                     __end_ofi2_USBDeviceInit:
  6032                           	opt stack 0
  6033                           pclatu	equ	0xFFB
  6034                           pclath	equ	0xFFA
  6035                           tblptru	equ	0xFF8
  6036                           tblptrh	equ	0xFF7
  6037                           tblptrl	equ	0xFF6
  6038                           tablat	equ	0xFF5
  6039                           prodh	equ	0xFF4
  6040                           prodl	equ	0xFF3
  6041                           intcon	equ	0xFF2
  6042                           postinc0	equ	0xFEE
  6043                           fsr0h	equ	0xFEA
  6044                           fsr0l	equ	0xFE9
  6045                           wreg	equ	0xFE8
  6046                           indf1	equ	0xFE7
  6047                           postdec1	equ	0xFE5
  6048                           fsr1h	equ	0xFE2
  6049                           fsr1l	equ	0xFE1
  6050                           indf2	equ	0xFDF
  6051                           postinc2	equ	0xFDE
  6052                           postdec2	equ	0xFDD
  6053                           plusw2	equ	0xFDB
  6054                           fsr2h	equ	0xFDA
  6055                           fsr2l	equ	0xFD9
  6056                           status	equ	0xFD8
  6057                           
  6058 ;; *************** function _USBWakeFromSuspend *****************
  6059 ;; Defined at:
  6060 ;;		line 2303 in file "picLibs/usb_device.c"
  6061 ;; Parameters:    Size  Location     Type
  6062 ;;		None
  6063 ;; Auto vars:     Size  Location     Type
  6064 ;;		None
  6065 ;; Return value:  Size  Location     Type
  6066 ;;                  1    wreg      void 
  6067 ;; Registers used:
  6068 ;;		wreg, fsr2l, fsr2h, status,2, status,0, prodl, prodh, cstack
  6069 ;; Tracked objects:
  6070 ;;		On entry : 0/0
  6071 ;;		On exit  : 0/0
  6072 ;;		Unchanged: 0/0
  6073 ;; Data sizes:     COMRAM   BANK0   BANK1   BANK2
  6074 ;;      Params:         0       0       0       0
  6075 ;;      Locals:         0       0       0       0
  6076 ;;      Temps:          0       0       0       0
  6077 ;;      Totals:         0       0       0       0
  6078 ;;Total ram usage:        0 bytes
  6079 ;; Hardware stack levels used:    1
  6080 ;; Hardware stack levels required when called:    4
  6081 ;; This function calls:
  6082 ;;		_USER_USB_CALLBACK_EVENT_HANDLER
  6083 ;; This function is called by:
  6084 ;;		_USBDeviceTasks
  6085 ;; This function uses a non-reentrant model
  6086 ;;
  6087                           
  6088                           	psect	text28
  6089  0026BE                     __ptext28:
  6090                           	opt stack 0
  6091  0026BE                     _USBWakeFromSuspend:
  6092                           	opt stack 19
  6093                           
  6094                           ;usb_device.c: 2305: USBBusIsSuspended = 0;
  6095                           
  6096                           ; BSR set to: 0
  6097                           ;incstack = 0
  6098  0026BE  0E00               	movlw	0
  6099  0026C0  6E45               	movwf	_USBBusIsSuspended,c	;volatile
  6100                           
  6101                           ;usb_device.c: 2311: USER_USB_CALLBACK_EVENT_HANDLER(EVENT_RESUME,0,0);
  6102  0026C2  0E00               	movlw	0
  6103  0026C4  6E0E               	movwf	USER_USB_CALLBACK_EVENT_HANDLER@event+1,c
  6104  0026C6  0E74               	movlw	116
  6105  0026C8  6E0D               	movwf	USER_USB_CALLBACK_EVENT_HANDLER@event,c
  6106  0026CA  0E00               	movlw	0
  6107  0026CC  6E0F               	movwf	USER_USB_CALLBACK_EVENT_HANDLER@pdata,c
  6108  0026CE  0E00               	movlw	0
  6109  0026D0  6E10               	movwf	USER_USB_CALLBACK_EVENT_HANDLER@pdata+1,c
  6110  0026D2  0E00               	movlw	0
  6111  0026D4  6E12               	movwf	USER_USB_CALLBACK_EVENT_HANDLER@size+1,c
  6112  0026D6  0E00               	movlw	0
  6113  0026D8  6E11               	movwf	USER_USB_CALLBACK_EVENT_HANDLER@size,c
  6114  0026DA  ECF1  F010         	call	_USER_USB_CALLBACK_EVENT_HANDLER	;wreg free
  6115                           
  6116                           ;usb_device.c: 2318: UCONbits.SUSPND = 0;
  6117  0026DE  9264               	bcf	3940,1,c	;volatile
  6118                           
  6119                           ;usb_device.c: 2323: UIEbits.ACTVIE = 0;
  6120  0026E0  9460               	bcf	3936,2,c	;volatile
  6121                           
  6122                           ;usb_device.c: 2341: while(UIRbits.ACTVIF)
  6123  0026E2  D001               	goto	i2l4240
  6124  0026E4                     i2l4238:
  6125                           
  6126                           ;usb_device.c: 2343: {
  6127                           ;usb_device.c: 2344: (UIR &= 0xFB);
  6128  0026E4  9462               	bcf	3938,2,c	;volatile
  6129  0026E6                     i2l4240:
  6130  0026E6  B462               	btfsc	3938,2,c	;volatile
  6131  0026E8  D7FD               	goto	i2l4238
  6132                           
  6133                           ;usb_device.c: 2345: }
  6134                           ;usb_device.c: 2347: USBTicksSinceSuspendEnd = 0;
  6135  0026EA  0E00               	movlw	0
  6136  0026EC  6E3C               	movwf	_USBTicksSinceSuspendEnd,c	;volatile
  6137  0026EE  0012               	return		;funcret
  6138  0026F0                     __end_of_USBWakeFromSuspend:
  6139                           	opt stack 0
  6140                           pclatu	equ	0xFFB
  6141                           pclath	equ	0xFFA
  6142                           tblptru	equ	0xFF8
  6143                           tblptrh	equ	0xFF7
  6144                           tblptrl	equ	0xFF6
  6145                           tablat	equ	0xFF5
  6146                           prodh	equ	0xFF4
  6147                           prodl	equ	0xFF3
  6148                           intcon	equ	0xFF2
  6149                           postinc0	equ	0xFEE
  6150                           fsr0h	equ	0xFEA
  6151                           fsr0l	equ	0xFE9
  6152                           wreg	equ	0xFE8
  6153                           indf1	equ	0xFE7
  6154                           postdec1	equ	0xFE5
  6155                           fsr1h	equ	0xFE2
  6156                           fsr1l	equ	0xFE1
  6157                           indf2	equ	0xFDF
  6158                           postinc2	equ	0xFDE
  6159                           postdec2	equ	0xFDD
  6160                           plusw2	equ	0xFDB
  6161                           fsr2h	equ	0xFDA
  6162                           fsr2l	equ	0xFD9
  6163                           status	equ	0xFD8
  6164                           
  6165 ;; *************** function _USBSuspend *****************
  6166 ;; Defined at:
  6167 ;;		line 2245 in file "picLibs/usb_device.c"
  6168 ;; Parameters:    Size  Location     Type
  6169 ;;		None
  6170 ;; Auto vars:     Size  Location     Type
  6171 ;;		None
  6172 ;; Return value:  Size  Location     Type
  6173 ;;                  1    wreg      void 
  6174 ;; Registers used:
  6175 ;;		wreg, fsr2l, fsr2h, status,2, status,0, prodl, prodh, cstack
  6176 ;; Tracked objects:
  6177 ;;		On entry : 0/0
  6178 ;;		On exit  : 0/0
  6179 ;;		Unchanged: 0/0
  6180 ;; Data sizes:     COMRAM   BANK0   BANK1   BANK2
  6181 ;;      Params:         0       0       0       0
  6182 ;;      Locals:         0       0       0       0
  6183 ;;      Temps:          0       0       0       0
  6184 ;;      Totals:         0       0       0       0
  6185 ;;Total ram usage:        0 bytes
  6186 ;; Hardware stack levels used:    1
  6187 ;; Hardware stack levels required when called:    4
  6188 ;; This function calls:
  6189 ;;		_USER_USB_CALLBACK_EVENT_HANDLER
  6190 ;; This function is called by:
  6191 ;;		_USBDeviceTasks
  6192 ;; This function uses a non-reentrant model
  6193 ;;
  6194                           
  6195                           	psect	text29
  6196  002720                     __ptext29:
  6197                           	opt stack 0
  6198  002720                     _USBSuspend:
  6199                           	opt stack 19
  6200                           
  6201                           ;usb_device.c: 2270: UIEbits.ACTVIE = 1;
  6202                           
  6203                           ;incstack = 0
  6204  002720  8460               	bsf	3936,2,c	;volatile
  6205                           
  6206                           ;usb_device.c: 2271: (UIR &= 0xEF);
  6207  002722  9862               	bcf	3938,4,c	;volatile
  6208                           
  6209                           ;usb_device.c: 2274: UCONbits.SUSPND = 1;
  6210  002724  8264               	bsf	3940,1,c	;volatile
  6211                           
  6212                           ;usb_device.c: 2277: USBBusIsSuspended = 1;
  6213  002726  0E01               	movlw	1
  6214  002728  6E45               	movwf	_USBBusIsSuspended,c	;volatile
  6215                           
  6216                           ;usb_device.c: 2278: USBTicksSinceSuspendEnd = 0;
  6217  00272A  0E00               	movlw	0
  6218  00272C  6E3C               	movwf	_USBTicksSinceSuspendEnd,c	;volatile
  6219                           
  6220                           ;usb_device.c: 2285: USER_USB_CALLBACK_EVENT_HANDLER(EVENT_SUSPEND,0,0);
  6221  00272E  0E00               	movlw	0
  6222  002730  6E0E               	movwf	USER_USB_CALLBACK_EVENT_HANDLER@event+1,c
  6223  002732  0E75               	movlw	117
  6224  002734  6E0D               	movwf	USER_USB_CALLBACK_EVENT_HANDLER@event,c
  6225  002736  0E00               	movlw	0
  6226  002738  6E0F               	movwf	USER_USB_CALLBACK_EVENT_HANDLER@pdata,c
  6227  00273A  0E00               	movlw	0
  6228  00273C  6E10               	movwf	USER_USB_CALLBACK_EVENT_HANDLER@pdata+1,c
  6229  00273E  0E00               	movlw	0
  6230  002740  6E12               	movwf	USER_USB_CALLBACK_EVENT_HANDLER@size+1,c
  6231  002742  0E00               	movlw	0
  6232  002744  6E11               	movwf	USER_USB_CALLBACK_EVENT_HANDLER@size,c
  6233  002746  ECF1  F010         	call	_USER_USB_CALLBACK_EVENT_HANDLER	;wreg free
  6234  00274A  0012               	return		;funcret
  6235  00274C                     __end_of_USBSuspend:
  6236                           	opt stack 0
  6237                           pclatu	equ	0xFFB
  6238                           pclath	equ	0xFFA
  6239                           tblptru	equ	0xFF8
  6240                           tblptrh	equ	0xFF7
  6241                           tblptrl	equ	0xFF6
  6242                           tablat	equ	0xFF5
  6243                           prodh	equ	0xFF4
  6244                           prodl	equ	0xFF3
  6245                           intcon	equ	0xFF2
  6246                           postinc0	equ	0xFEE
  6247                           fsr0h	equ	0xFEA
  6248                           fsr0l	equ	0xFE9
  6249                           wreg	equ	0xFE8
  6250                           indf1	equ	0xFE7
  6251                           postdec1	equ	0xFE5
  6252                           fsr1h	equ	0xFE2
  6253                           fsr1l	equ	0xFE1
  6254                           indf2	equ	0xFDF
  6255                           postinc2	equ	0xFDE
  6256                           postdec2	equ	0xFDD
  6257                           plusw2	equ	0xFDB
  6258                           fsr2h	equ	0xFDA
  6259                           fsr2l	equ	0xFD9
  6260                           status	equ	0xFD8
  6261                           
  6262 ;; *************** function _USBStallHandler *****************
  6263 ;; Defined at:
  6264 ;;		line 2202 in file "picLibs/usb_device.c"
  6265 ;; Parameters:    Size  Location     Type
  6266 ;;		None
  6267 ;; Auto vars:     Size  Location     Type
  6268 ;;		None
  6269 ;; Return value:  Size  Location     Type
  6270 ;;                  1    wreg      void 
  6271 ;; Registers used:
  6272 ;;		wreg, fsr2l, fsr2h, status,2, status,0
  6273 ;; Tracked objects:
  6274 ;;		On entry : 0/0
  6275 ;;		On exit  : 0/0
  6276 ;;		Unchanged: 0/0
  6277 ;; Data sizes:     COMRAM   BANK0   BANK1   BANK2
  6278 ;;      Params:         0       0       0       0
  6279 ;;      Locals:         0       0       0       0
  6280 ;;      Temps:          1       0       0       0
  6281 ;;      Totals:         1       0       0       0
  6282 ;;Total ram usage:        1 bytes
  6283 ;; Hardware stack levels used:    1
  6284 ;; This function calls:
  6285 ;;		Nothing
  6286 ;; This function is called by:
  6287 ;;		_USBDeviceTasks
  6288 ;; This function uses a non-reentrant model
  6289 ;;
  6290                           
  6291                           	psect	text30
  6292  00247C                     __ptext30:
  6293                           	opt stack 0
  6294  00247C                     _USBStallHandler:
  6295                           	opt stack 23
  6296                           
  6297                           ;usb_device.c: 2214: if(UEP0bits.EPSTALL == 1)
  6298                           
  6299                           ;incstack = 0
  6300  00247C  010F               	movlb	15	; () banked
  6301  00247E  A153               	btfss	83,0,b	;volatile
  6302  002480  D01E               	goto	i2l558
  6303                           
  6304                           ; BSR set to: 15
  6305                           ;usb_device.c: 2215: {
  6306                           ;usb_device.c: 2217: if((pBDTEntryEP0OutCurrent->STAT.Val == 0x80) && (pBDTEntryIn[0]->S
      +                          TAT.Val == (0x80|0x04)))
  6307  002482  C037  FFD9         	movff	_pBDTEntryEP0OutCurrent,fsr2l
  6308  002486  C038  FFDA         	movff	_pBDTEntryEP0OutCurrent+1,fsr2h
  6309  00248A  0E80               	movlw	128
  6310  00248C  18DE               	xorwf	postinc2,w,c
  6311  00248E  A4D8               	btfss	status,2,c
  6312  002490  D014               	goto	i2l4276
  6313                           
  6314                           ; BSR set to: 15
  6315  002492  C078  FFD9         	movff	_pBDTEntryIn,fsr2l
  6316  002496  C079  FFDA         	movff	_pBDTEntryIn+1,fsr2h
  6317  00249A  0E84               	movlw	132
  6318  00249C  18DE               	xorwf	postinc2,w,c
  6319  00249E  A4D8               	btfss	status,2,c
  6320  0024A0  D00C               	goto	i2l4276
  6321                           
  6322                           ; BSR set to: 15
  6323                           ;usb_device.c: 2218: {
  6324                           ;usb_device.c: 2220: pBDTEntryEP0OutCurrent->STAT.Val = 0x00|(0x08 & 0x08)|0x04;
  6325  0024A2  C037  FFD9         	movff	_pBDTEntryEP0OutCurrent,fsr2l
  6326  0024A6  C038  FFDA         	movff	_pBDTEntryEP0OutCurrent+1,fsr2h
  6327  0024AA  0E0C               	movlw	12
  6328  0024AC  6EDF               	movwf	indf2,c
  6329                           
  6330                           ; BSR set to: 15
  6331                           ;usb_device.c: 2221: pBDTEntryEP0OutCurrent->STAT.Val |= 0x80;
  6332  0024AE  C037  FFD9         	movff	_pBDTEntryEP0OutCurrent,fsr2l
  6333  0024B2  C038  FFDA         	movff	_pBDTEntryEP0OutCurrent+1,fsr2h
  6334  0024B6  0E00               	movlw	0
  6335  0024B8  8EDB               	bsf	plusw2,7,c
  6336  0024BA                     i2l4276:
  6337                           
  6338                           ; BSR set to: 15
  6339                           ;usb_device.c: 2222: }
  6340                           ;usb_device.c: 2223: UEP0bits.EPSTALL = 0;
  6341  0024BA  010F               	movlb	15	; () banked
  6342  0024BC  9153               	bcf	83,0,b	;volatile
  6343  0024BE                     i2l558:
  6344                           
  6345                           ; BSR set to: 15
  6346                           ;usb_device.c: 2224: }
  6347                           ;usb_device.c: 2226: (UIR &= 0xDF);
  6348  0024BE  9A62               	bcf	3938,5,c	;volatile
  6349                           
  6350                           ; BSR set to: 15
  6351  0024C0  0012               	return		;funcret
  6352  0024C2                     __end_of_USBStallHandler:
  6353                           	opt stack 0
  6354                           pclatu	equ	0xFFB
  6355                           pclath	equ	0xFFA
  6356                           tblptru	equ	0xFF8
  6357                           tblptrh	equ	0xFF7
  6358                           tblptrl	equ	0xFF6
  6359                           tablat	equ	0xFF5
  6360                           prodh	equ	0xFF4
  6361                           prodl	equ	0xFF3
  6362                           intcon	equ	0xFF2
  6363                           postinc0	equ	0xFEE
  6364                           fsr0h	equ	0xFEA
  6365                           fsr0l	equ	0xFE9
  6366                           wreg	equ	0xFE8
  6367                           indf1	equ	0xFE7
  6368                           postdec1	equ	0xFE5
  6369                           fsr1h	equ	0xFE2
  6370                           fsr1l	equ	0xFE1
  6371                           indf2	equ	0xFDF
  6372                           postinc2	equ	0xFDE
  6373                           postdec2	equ	0xFDD
  6374                           plusw2	equ	0xFDB
  6375                           fsr2h	equ	0xFDA
  6376                           fsr2l	equ	0xFD9
  6377                           status	equ	0xFD8
  6378                           
  6379 ;; *************** function _USBIncrement1msInternalTimers *****************
  6380 ;; Defined at:
  6381 ;;		line 3025 in file "picLibs/usb_device.c"
  6382 ;; Parameters:    Size  Location     Type
  6383 ;;		None
  6384 ;; Auto vars:     Size  Location     Type
  6385 ;;		None
  6386 ;; Return value:  Size  Location     Type
  6387 ;;                  1    wreg      void 
  6388 ;; Registers used:
  6389 ;;		wreg, status,2, status,0
  6390 ;; Tracked objects:
  6391 ;;		On entry : 0/0
  6392 ;;		On exit  : 0/0
  6393 ;;		Unchanged: 0/0
  6394 ;; Data sizes:     COMRAM   BANK0   BANK1   BANK2
  6395 ;;      Params:         0       0       0       0
  6396 ;;      Locals:         0       0       0       0
  6397 ;;      Temps:          0       0       0       0
  6398 ;;      Totals:         0       0       0       0
  6399 ;;Total ram usage:        0 bytes
  6400 ;; Hardware stack levels used:    1
  6401 ;; This function calls:
  6402 ;;		Nothing
  6403 ;; This function is called by:
  6404 ;;		_USBDeviceTasks
  6405 ;; This function uses a non-reentrant model
  6406 ;;
  6407                           
  6408                           	psect	text31
  6409  002838                     __ptext31:
  6410                           	opt stack 0
  6411  002838                     _USBIncrement1msInternalTimers:
  6412                           	opt stack 23
  6413                           
  6414                           ;usb_device.c: 3033: USB1msTickCount++;
  6415                           
  6416                           ; BSR set to: 15
  6417                           ;incstack = 0
  6418  002838  0E01               	movlw	1
  6419  00283A  262F               	addwf	_USB1msTickCount,f,c	;volatile
  6420  00283C  0E00               	movlw	0
  6421  00283E  2230               	addwfc	_USB1msTickCount+1,f,c	;volatile
  6422  002840  2231               	addwfc	_USB1msTickCount+2,f,c	;volatile
  6423  002842  2232               	addwfc	_USB1msTickCount+3,f,c	;volatile
  6424                           
  6425                           ;usb_device.c: 3034: if(USBBusIsSuspended == 0)
  6426  002844  5045               	movf	_USBBusIsSuspended,w,c	;volatile
  6427  002846  A4D8               	btfss	status,2,c
  6428  002848  0012               	return	
  6429                           
  6430                           ;usb_device.c: 3035: {
  6431                           ;usb_device.c: 3036: USBTicksSinceSuspendEnd++;
  6432  00284A  2A3C               	incf	_USBTicksSinceSuspendEnd,f,c	;volatile
  6433                           
  6434                           ;usb_device.c: 3038: if(USBTicksSinceSuspendEnd == 0)
  6435  00284C  503C               	movf	_USBTicksSinceSuspendEnd,w,c	;volatile
  6436  00284E  A4D8               	btfss	status,2,c
  6437  002850  0012               	return	
  6438                           
  6439                           ;usb_device.c: 3039: {
  6440                           ;usb_device.c: 3040: USBTicksSinceSuspendEnd = 255;
  6441  002852  683C               	setf	_USBTicksSinceSuspendEnd,c	;volatile
  6442  002854  0012               	return	
  6443  002856                     __end_of_USBIncrement1msInternalTimers:
  6444                           	opt stack 0
  6445                           pclatu	equ	0xFFB
  6446                           pclath	equ	0xFFA
  6447                           tblptru	equ	0xFF8
  6448                           tblptrh	equ	0xFF7
  6449                           tblptrl	equ	0xFF6
  6450                           tablat	equ	0xFF5
  6451                           prodh	equ	0xFF4
  6452                           prodl	equ	0xFF3
  6453                           intcon	equ	0xFF2
  6454                           postinc0	equ	0xFEE
  6455                           fsr0h	equ	0xFEA
  6456                           fsr0l	equ	0xFE9
  6457                           wreg	equ	0xFE8
  6458                           indf1	equ	0xFE7
  6459                           postdec1	equ	0xFE5
  6460                           fsr1h	equ	0xFE2
  6461                           fsr1l	equ	0xFE1
  6462                           indf2	equ	0xFDF
  6463                           postinc2	equ	0xFDE
  6464                           postdec2	equ	0xFDD
  6465                           plusw2	equ	0xFDB
  6466                           fsr2h	equ	0xFDA
  6467                           fsr2l	equ	0xFD9
  6468                           status	equ	0xFD8
  6469                           
  6470 ;; *************** function _USBCtrlEPService *****************
  6471 ;; Defined at:
  6472 ;;		line 2372 in file "picLibs/usb_device.c"
  6473 ;; Parameters:    Size  Location     Type
  6474 ;;		None
  6475 ;; Auto vars:     Size  Location     Type
  6476 ;;		None
  6477 ;; Return value:  Size  Location     Type
  6478 ;;                  1    wreg      void 
  6479 ;; Registers used:
  6480 ;;		wreg, fsr1l, fsr1h, fsr2l, fsr2h, status,2, status,0, tblptrl, tblptrh, tblptru, prodl, prodh, cstack
  6481 ;; Tracked objects:
  6482 ;;		On entry : 0/0
  6483 ;;		On exit  : 0/0
  6484 ;;		Unchanged: 0/0
  6485 ;; Data sizes:     COMRAM   BANK0   BANK1   BANK2
  6486 ;;      Params:         0       0       0       0
  6487 ;;      Locals:         0       0       0       0
  6488 ;;      Temps:          1       0       0       0
  6489 ;;      Totals:         1       0       0       0
  6490 ;;Total ram usage:        1 bytes
  6491 ;; Hardware stack levels used:    1
  6492 ;; Hardware stack levels required when called:    7
  6493 ;; This function calls:
  6494 ;;		_USBCtrlTrfInHandler
  6495 ;;		_USBCtrlTrfOutHandler
  6496 ;;		_USBCtrlTrfSetupHandler
  6497 ;;		_memcpy
  6498 ;; This function is called by:
  6499 ;;		_USBDeviceTasks
  6500 ;; This function uses a non-reentrant model
  6501 ;;
  6502                           
  6503                           	psect	text32
  6504  0020B8                     __ptext32:
  6505                           	opt stack 0
  6506  0020B8                     _USBCtrlEPService:
  6507                           	opt stack 16
  6508                           
  6509                           ;usb_device.c: 2378: USBStatusStageTimeoutCounter = (uint8_t)45;
  6510                           
  6511                           ;incstack = 0
  6512  0020B8  0E2D               	movlw	45
  6513  0020BA  6E42               	movwf	_USBStatusStageTimeoutCounter,c	;volatile
  6514                           
  6515                           ;usb_device.c: 2382: if((USTATcopy.Val & ~0x02) == 0x00)
  6516  0020BC  C052  F01B         	movff	_USTATcopy,??_USBCtrlEPService	;volatile
  6517  0020C0  0EFD               	movlw	253
  6518  0020C2  161B               	andwf	??_USBCtrlEPService,f,c
  6519  0020C4  A4D8               	btfss	status,2,c
  6520  0020C6  D03B               	goto	i2l4296
  6521                           
  6522                           ;usb_device.c: 2383: {
  6523                           ;usb_device.c: 2386: pBDTEntryEP0OutCurrent = (volatile BDT_ENTRY*)&BDT[(USTATcopy.Val &
      +                           0x7E)>>1];
  6524  0020C8  C052  F01B         	movff	_USTATcopy,??_USBCtrlEPService	;volatile
  6525  0020CC  90D8               	bcf	status,0,c
  6526  0020CE  321B               	rrcf	??_USBCtrlEPService,f,c
  6527  0020D0  0E3F               	movlw	63
  6528  0020D2  161B               	andwf	??_USBCtrlEPService,f,c
  6529  0020D4  501B               	movf	??_USBCtrlEPService,w,c
  6530  0020D6  0D04               	mullw	4
  6531  0020D8  0E00               	movlw	0
  6532  0020DA  24F3               	addwf	prodl,w,c
  6533  0020DC  6E37               	movwf	_pBDTEntryEP0OutCurrent,c
  6534  0020DE  0E02               	movlw	2
  6535  0020E0  20F4               	addwfc	prodh,w,c
  6536  0020E2  6E38               	movwf	_pBDTEntryEP0OutCurrent+1,c
  6537                           
  6538                           ;usb_device.c: 2394: pBDTEntryEP0OutNext = pBDTEntryEP0OutCurrent;
  6539  0020E4  C037  F035         	movff	_pBDTEntryEP0OutCurrent,_pBDTEntryEP0OutNext
  6540  0020E8  C038  F036         	movff	_pBDTEntryEP0OutCurrent+1,_pBDTEntryEP0OutNext+1
  6541                           
  6542                           ;usb_device.c: 2396: pBDTEntryEP0OutNext = (volatile BDT_ENTRY*)(((uintptr_t)pBDTEntryEP
      +                          0OutNext) ^ 0x0004);
  6543  0020EC  0E04               	movlw	4
  6544  0020EE  1835               	xorwf	_pBDTEntryEP0OutNext,w,c
  6545  0020F0  6E35               	movwf	_pBDTEntryEP0OutNext,c
  6546  0020F2  5036               	movf	_pBDTEntryEP0OutNext+1,w,c
  6547  0020F4  6E36               	movwf	_pBDTEntryEP0OutNext+1,c
  6548                           
  6549                           ;usb_device.c: 2399: if(pBDTEntryEP0OutCurrent->STAT.PID == 0xD)
  6550  0020F6  C037  FFD9         	movff	_pBDTEntryEP0OutCurrent,fsr2l
  6551  0020FA  C038  FFDA         	movff	_pBDTEntryEP0OutCurrent+1,fsr2h
  6552  0020FE  30DF               	rrcf	indf2,w,c
  6553  002100  32E8               	rrcf	wreg,f,c
  6554  002102  0B0F               	andlw	15
  6555  002104  0A0D               	xorlw	13
  6556  002106  A4D8               	btfss	status,2,c
  6557  002108  D017               	goto	i2l4294
  6558                           
  6559                           ;usb_device.c: 2400: {
  6560                           ;usb_device.c: 2405: memcpy((uint8_t*)&SetupPkt, (uint8_t*)((void *)(pBDTEntryEP0OutCurr
      +                          ent->ADR)), 8);
  6561  00210A  0E30               	movlw	48
  6562  00210C  6E01               	movwf	memcpy@d1,c
  6563  00210E  0E02               	movlw	2
  6564  002110  6E02               	movwf	memcpy@d1+1,c
  6565  002112  EE20 F002          	lfsr	2,2
  6566  002116  5037               	movf	_pBDTEntryEP0OutCurrent,w,c
  6567  002118  26D9               	addwf	fsr2l,f,c
  6568  00211A  5038               	movf	_pBDTEntryEP0OutCurrent+1,w,c
  6569  00211C  22DA               	addwfc	fsr2h,f,c
  6570  00211E  CFDE F003          	movff	postinc2,memcpy@s1
  6571  002122  CFDD F004          	movff	postdec2,memcpy@s1+1
  6572  002126  0E00               	movlw	0
  6573  002128  6E06               	movwf	memcpy@n+1,c
  6574  00212A  0E08               	movlw	8
  6575  00212C  6E05               	movwf	memcpy@n,c
  6576  00212E  EC61  F012         	call	_memcpy	;wreg free
  6577                           
  6578                           ;usb_device.c: 2408: USBCtrlTrfSetupHandler();
  6579  002132  ECBA  F00F         	call	_USBCtrlTrfSetupHandler	;wreg free
  6580                           
  6581                           ;usb_device.c: 2409: }
  6582  002136  0012               	return	
  6583  002138                     i2l4294:
  6584                           
  6585                           ;usb_device.c: 2410: else
  6586                           ;usb_device.c: 2411: {
  6587                           ;usb_device.c: 2413: USBCtrlTrfOutHandler();
  6588  002138  ECE7  F011         	call	_USBCtrlTrfOutHandler	;wreg free
  6589                           
  6590                           ;usb_device.c: 2414: }
  6591                           ;usb_device.c: 2415: }
  6592  00213C  0012               	return	
  6593  00213E                     i2l4296:
  6594                           
  6595                           ;usb_device.c: 2416: else if((USTATcopy.Val & ~0x02) == 0x04)
  6596  00213E  5052               	movf	_USTATcopy,w,c	;volatile
  6597  002140  0BFD               	andlw	253
  6598  002142  0A04               	xorlw	4
  6599  002144  A4D8               	btfss	status,2,c
  6600  002146  0012               	return	
  6601                           
  6602                           ;usb_device.c: 2417: {
  6603                           ;usb_device.c: 2420: USBCtrlTrfInHandler();
  6604  002148  ECF8  F00C         	call	_USBCtrlTrfInHandler	;wreg free
  6605  00214C  0012               	return	
  6606  00214E                     __end_of_USBCtrlEPService:
  6607                           	opt stack 0
  6608                           pclatu	equ	0xFFB
  6609                           pclath	equ	0xFFA
  6610                           tblptru	equ	0xFF8
  6611                           tblptrh	equ	0xFF7
  6612                           tblptrl	equ	0xFF6
  6613                           tablat	equ	0xFF5
  6614                           prodh	equ	0xFF4
  6615                           prodl	equ	0xFF3
  6616                           intcon	equ	0xFF2
  6617                           postinc0	equ	0xFEE
  6618                           fsr0h	equ	0xFEA
  6619                           fsr0l	equ	0xFE9
  6620                           wreg	equ	0xFE8
  6621                           indf1	equ	0xFE7
  6622                           postdec1	equ	0xFE5
  6623                           fsr1h	equ	0xFE2
  6624                           fsr1l	equ	0xFE1
  6625                           indf2	equ	0xFDF
  6626                           postinc2	equ	0xFDE
  6627                           postdec2	equ	0xFDD
  6628                           plusw2	equ	0xFDB
  6629                           fsr2h	equ	0xFDA
  6630                           fsr2l	equ	0xFD9
  6631                           status	equ	0xFD8
  6632                           
  6633 ;; *************** function _memcpy *****************
  6634 ;; Defined at:
  6635 ;;		line 27 in file "C:\Program Files (x86)\Microchip\xc8\v1.42\sources\common\memcpy.c"
  6636 ;; Parameters:    Size  Location     Type
  6637 ;;  d1              2    0[COMRAM] PTR void 
  6638 ;;		 -> SetupPkt(8), 
  6639 ;;  s1              2    2[COMRAM] PTR const void 
  6640 ;;		 -> CtrlTrfData(8), RAM(767), SetupPkt(8), 
  6641 ;;  n               2    4[COMRAM] unsigned int 
  6642 ;; Auto vars:     Size  Location     Type
  6643 ;;  s               2    8[COMRAM] PTR const unsigned char 
  6644 ;;		 -> CtrlTrfData(8), RAM(767), SetupPkt(8), 
  6645 ;;  d               2    6[COMRAM] PTR unsigned char 
  6646 ;;		 -> SetupPkt(8), 
  6647 ;;  tmp             1   10[COMRAM] unsigned char 
  6648 ;; Return value:  Size  Location     Type
  6649 ;;                  2    0[COMRAM] PTR void 
  6650 ;; Registers used:
  6651 ;;		wreg, fsr2l, fsr2h, status,2, status,0
  6652 ;; Tracked objects:
  6653 ;;		On entry : 0/0
  6654 ;;		On exit  : 0/0
  6655 ;;		Unchanged: 0/0
  6656 ;; Data sizes:     COMRAM   BANK0   BANK1   BANK2
  6657 ;;      Params:         6       0       0       0
  6658 ;;      Locals:         5       0       0       0
  6659 ;;      Temps:          0       0       0       0
  6660 ;;      Totals:        11       0       0       0
  6661 ;;Total ram usage:       11 bytes
  6662 ;; Hardware stack levels used:    1
  6663 ;; This function calls:
  6664 ;;		Nothing
  6665 ;; This function is called by:
  6666 ;;		_USBCtrlEPService
  6667 ;; This function uses a non-reentrant model
  6668 ;;
  6669                           
  6670                           	psect	text33
  6671  0024C2                     __ptext33:
  6672                           	opt stack 0
  6673  0024C2                     _memcpy:
  6674                           	opt stack 22
  6675                           
  6676                           ;incstack = 0
  6677  0024C2  C003  F009         	movff	memcpy@s1,memcpy@s
  6678  0024C6  C004  F00A         	movff	memcpy@s1+1,memcpy@s+1
  6679  0024CA  C001  F007         	movff	memcpy@d1,memcpy@d
  6680  0024CE  C002  F008         	movff	memcpy@d1+1,memcpy@d+1
  6681  0024D2  D010               	goto	i2l3910
  6682  0024D4                     i2l3902:
  6683  0024D4  C009  FFD9         	movff	memcpy@s,fsr2l
  6684  0024D8  C00A  FFDA         	movff	memcpy@s+1,fsr2h
  6685  0024DC  50DF               	movf	indf2,w,c
  6686  0024DE  6E0B               	movwf	memcpy@tmp,c
  6687  0024E0  4A09               	infsnz	memcpy@s,f,c
  6688  0024E2  2A0A               	incf	memcpy@s+1,f,c
  6689  0024E4  C007  FFD9         	movff	memcpy@d,fsr2l
  6690  0024E8  C008  FFDA         	movff	memcpy@d+1,fsr2h
  6691  0024EC  C00B  FFDF         	movff	memcpy@tmp,indf2
  6692  0024F0  4A07               	infsnz	memcpy@d,f,c
  6693  0024F2  2A08               	incf	memcpy@d+1,f,c
  6694  0024F4                     i2l3910:
  6695  0024F4  0605               	decf	memcpy@n,f,c
  6696  0024F6  A0D8               	btfss	status,0,c
  6697  0024F8  0606               	decf	memcpy@n+1,f,c
  6698  0024FA  2805               	incf	memcpy@n,w,c
  6699  0024FC  E1EB               	bnz	i2l3902
  6700  0024FE  2806               	incf	memcpy@n+1,w,c
  6701  002500  B4D8               	btfsc	status,2,c
  6702  002502  0012               	return	
  6703  002504  D7E7               	goto	i2l3902
  6704  002506                     __end_of_memcpy:
  6705                           	opt stack 0
  6706                           pclatu	equ	0xFFB
  6707                           pclath	equ	0xFFA
  6708                           tblptru	equ	0xFF8
  6709                           tblptrh	equ	0xFF7
  6710                           tblptrl	equ	0xFF6
  6711                           tablat	equ	0xFF5
  6712                           prodh	equ	0xFF4
  6713                           prodl	equ	0xFF3
  6714                           intcon	equ	0xFF2
  6715                           postinc0	equ	0xFEE
  6716                           fsr0h	equ	0xFEA
  6717                           fsr0l	equ	0xFE9
  6718                           wreg	equ	0xFE8
  6719                           indf1	equ	0xFE7
  6720                           postdec1	equ	0xFE5
  6721                           fsr1h	equ	0xFE2
  6722                           fsr1l	equ	0xFE1
  6723                           indf2	equ	0xFDF
  6724                           postinc2	equ	0xFDE
  6725                           postdec2	equ	0xFDD
  6726                           plusw2	equ	0xFDB
  6727                           fsr2h	equ	0xFDA
  6728                           fsr2l	equ	0xFD9
  6729                           status	equ	0xFD8
  6730                           
  6731 ;; *************** function _USBCtrlTrfSetupHandler *****************
  6732 ;; Defined at:
  6733 ;;		line 2465 in file "picLibs/usb_device.c"
  6734 ;; Parameters:    Size  Location     Type
  6735 ;;		None
  6736 ;; Auto vars:     Size  Location     Type
  6737 ;;		None
  6738 ;; Return value:  Size  Location     Type
  6739 ;;                  1    wreg      void 
  6740 ;; Registers used:
  6741 ;;		wreg, fsr1l, fsr1h, fsr2l, fsr2h, status,2, status,0, tblptrl, tblptrh, tblptru, prodl, prodh, cstack
  6742 ;; Tracked objects:
  6743 ;;		On entry : 0/0
  6744 ;;		On exit  : 0/0
  6745 ;;		Unchanged: 0/0
  6746 ;; Data sizes:     COMRAM   BANK0   BANK1   BANK2
  6747 ;;      Params:         0       0       0       0
  6748 ;;      Locals:         0       0       0       0
  6749 ;;      Temps:          0       0       0       0
  6750 ;;      Totals:         0       0       0       0
  6751 ;;Total ram usage:        0 bytes
  6752 ;; Hardware stack levels used:    1
  6753 ;; Hardware stack levels required when called:    6
  6754 ;; This function calls:
  6755 ;;		_USBCheckStdRequest
  6756 ;;		_USBCtrlEPServiceComplete
  6757 ;;		_USER_USB_CALLBACK_EVENT_HANDLER
  6758 ;; This function is called by:
  6759 ;;		_USBCtrlEPService
  6760 ;; This function uses a non-reentrant model
  6761 ;;
  6762                           
  6763                           	psect	text34
  6764  001F74                     __ptext34:
  6765                           	opt stack 0
  6766  001F74                     _USBCtrlTrfSetupHandler:
  6767                           	opt stack 16
  6768                           
  6769                           ;usb_device.c: 2470: shortPacketStatus = 0;
  6770                           
  6771                           ;incstack = 0
  6772  001F74  0E00               	movlw	0
  6773  001F76  6E48               	movwf	_shortPacketStatus,c	;volatile
  6774                           
  6775                           ;usb_device.c: 2471: USBDeferStatusStagePacket = 0;
  6776  001F78  0E00               	movlw	0
  6777  001F7A  6E41               	movwf	_USBDeferStatusStagePacket,c	;volatile
  6778                           
  6779                           ;usb_device.c: 2472: USBDeferINDataStagePackets = 0;
  6780  001F7C  0E00               	movlw	0
  6781  001F7E  6E3E               	movwf	_USBDeferINDataStagePackets,c	;volatile
  6782                           
  6783                           ;usb_device.c: 2473: USBDeferOUTDataStagePackets = 0;
  6784  001F80  0E00               	movlw	0
  6785  001F82  6E3D               	movwf	_USBDeferOUTDataStagePackets,c	;volatile
  6786                           
  6787                           ;usb_device.c: 2474: BothEP0OutUOWNsSet = 0;
  6788  001F84  0E00               	movlw	0
  6789  001F86  6E43               	movwf	_BothEP0OutUOWNsSet,c	;volatile
  6790                           
  6791                           ;usb_device.c: 2475: controlTransferState = 0;
  6792  001F88  0E00               	movlw	0
  6793  001F8A  6E47               	movwf	_controlTransferState,c	;volatile
  6794                           
  6795                           ;usb_device.c: 2484: pBDTEntryIn[0]->STAT.Val &= ~(0x80);
  6796  001F8C  C078  FFD9         	movff	_pBDTEntryIn,fsr2l
  6797  001F90  C079  FFDA         	movff	_pBDTEntryIn+1,fsr2h
  6798  001F94  0E7F               	movlw	127
  6799  001F96  16DF               	andwf	indf2,f,c
  6800                           
  6801                           ;usb_device.c: 2486: pBDTEntryIn[0] = (volatile BDT_ENTRY*)(((uintptr_t)pBDTEntryIn[0]) 
      +                          ^ 0x0004);
  6802  001F98  0E04               	movlw	4
  6803  001F9A  0100               	movlb	0	; () banked
  6804  001F9C  1978               	xorwf	_pBDTEntryIn& (0+255),w,b
  6805  001F9E  0100               	movlb	0	; () banked
  6806  001FA0  6F78               	movwf	_pBDTEntryIn& (0+255),b
  6807  001FA2  0100               	movlb	0	; () banked
  6808  001FA4  5179               	movf	(_pBDTEntryIn+1)& (0+255),w,b
  6809  001FA6  0100               	movlb	0	; () banked
  6810  001FA8  6F79               	movwf	(_pBDTEntryIn+1)& (0+255),b
  6811                           
  6812                           ; BSR set to: 0
  6813                           ;usb_device.c: 2487: pBDTEntryIn[0]->STAT.Val &= ~(0x80);
  6814  001FAA  C078  FFD9         	movff	_pBDTEntryIn,fsr2l
  6815  001FAE  C079  FFDA         	movff	_pBDTEntryIn+1,fsr2h
  6816  001FB2  0E7F               	movlw	127
  6817  001FB4  16DF               	andwf	indf2,f,c
  6818                           
  6819                           ; BSR set to: 0
  6820                           ;usb_device.c: 2488: pBDTEntryIn[0] = (volatile BDT_ENTRY*)(((uintptr_t)pBDTEntryIn[0]) 
      +                          ^ 0x0004);
  6821  001FB6  0E04               	movlw	4
  6822  001FB8  0100               	movlb	0	; () banked
  6823  001FBA  1978               	xorwf	_pBDTEntryIn& (0+255),w,b
  6824  001FBC  0100               	movlb	0	; () banked
  6825  001FBE  6F78               	movwf	_pBDTEntryIn& (0+255),b
  6826  001FC0  0100               	movlb	0	; () banked
  6827  001FC2  5179               	movf	(_pBDTEntryIn+1)& (0+255),w,b
  6828  001FC4  0100               	movlb	0	; () banked
  6829  001FC6  6F79               	movwf	(_pBDTEntryIn+1)& (0+255),b
  6830                           
  6831                           ; BSR set to: 0
  6832                           ;usb_device.c: 2489: pBDTEntryEP0OutNext->STAT.Val &= ~(0x80);
  6833  001FC8  C035  FFD9         	movff	_pBDTEntryEP0OutNext,fsr2l
  6834  001FCC  C036  FFDA         	movff	_pBDTEntryEP0OutNext+1,fsr2h
  6835  001FD0  0E7F               	movlw	127
  6836  001FD2  16DF               	andwf	indf2,f,c
  6837                           
  6838                           ; BSR set to: 0
  6839                           ;usb_device.c: 2491: inPipes[0].info.Val = 0;
  6840  001FD4  0E00               	movlw	0
  6841  001FD6  0100               	movlb	0	; () banked
  6842  001FD8  6F75               	movwf	(_inPipes+3)& (0+255),b	;volatile
  6843                           
  6844                           ; BSR set to: 0
  6845                           ;usb_device.c: 2492: inPipes[0].wCount.Val = 0;
  6846  001FDA  0E00               	movlw	0
  6847  001FDC  0100               	movlb	0	; () banked
  6848  001FDE  6F77               	movwf	(_inPipes+5)& (0+255),b	;volatile
  6849  001FE0  0E00               	movlw	0
  6850  001FE2  6F76               	movwf	(_inPipes+4)& (0+255),b	;volatile
  6851                           
  6852                           ; BSR set to: 0
  6853                           ;usb_device.c: 2493: outPipes[0].info.Val = 0;
  6854  001FE4  0E00               	movlw	0
  6855  001FE6  0100               	movlb	0	; () banked
  6856  001FE8  6F6D               	movwf	(_outPipes+3)& (0+255),b	;volatile
  6857                           
  6858                           ; BSR set to: 0
  6859                           ;usb_device.c: 2494: outPipes[0].wCount.Val = 0;
  6860  001FEA  0E00               	movlw	0
  6861  001FEC  0100               	movlb	0	; () banked
  6862  001FEE  6F6F               	movwf	(_outPipes+5)& (0+255),b	;volatile
  6863  001FF0  0E00               	movlw	0
  6864  001FF2  6F6E               	movwf	(_outPipes+4)& (0+255),b	;volatile
  6865                           
  6866                           ; BSR set to: 0
  6867                           ;usb_device.c: 2500: USBCheckStdRequest();
  6868  001FF4  EC0B  F00C         	call	_USBCheckStdRequest	;wreg free
  6869                           
  6870                           ;usb_device.c: 2501: USER_USB_CALLBACK_EVENT_HANDLER(EVENT_EP0_REQUEST,0,0);
  6871  001FF8  0E00               	movlw	0
  6872  001FFA  6E0E               	movwf	USER_USB_CALLBACK_EVENT_HANDLER@event+1,c
  6873  001FFC  0E03               	movlw	3
  6874  001FFE  6E0D               	movwf	USER_USB_CALLBACK_EVENT_HANDLER@event,c
  6875  002000  0E00               	movlw	0
  6876  002002  6E0F               	movwf	USER_USB_CALLBACK_EVENT_HANDLER@pdata,c
  6877  002004  0E00               	movlw	0
  6878  002006  6E10               	movwf	USER_USB_CALLBACK_EVENT_HANDLER@pdata+1,c
  6879  002008  0E00               	movlw	0
  6880  00200A  6E12               	movwf	USER_USB_CALLBACK_EVENT_HANDLER@size+1,c
  6881  00200C  0E00               	movlw	0
  6882  00200E  6E11               	movwf	USER_USB_CALLBACK_EVENT_HANDLER@size,c
  6883  002010  ECF1  F010         	call	_USER_USB_CALLBACK_EVENT_HANDLER	;wreg free
  6884                           
  6885                           ;usb_device.c: 2514: USBCtrlEPServiceComplete();
  6886  002014  EC91  F00B         	call	_USBCtrlEPServiceComplete	;wreg free
  6887  002018  0012               	return		;funcret
  6888  00201A                     __end_of_USBCtrlTrfSetupHandler:
  6889                           	opt stack 0
  6890                           pclatu	equ	0xFFB
  6891                           pclath	equ	0xFFA
  6892                           tblptru	equ	0xFF8
  6893                           tblptrh	equ	0xFF7
  6894                           tblptrl	equ	0xFF6
  6895                           tablat	equ	0xFF5
  6896                           prodh	equ	0xFF4
  6897                           prodl	equ	0xFF3
  6898                           intcon	equ	0xFF2
  6899                           postinc0	equ	0xFEE
  6900                           fsr0h	equ	0xFEA
  6901                           fsr0l	equ	0xFE9
  6902                           wreg	equ	0xFE8
  6903                           indf1	equ	0xFE7
  6904                           postdec1	equ	0xFE5
  6905                           fsr1h	equ	0xFE2
  6906                           fsr1l	equ	0xFE1
  6907                           indf2	equ	0xFDF
  6908                           postinc2	equ	0xFDE
  6909                           postdec2	equ	0xFDD
  6910                           plusw2	equ	0xFDB
  6911                           fsr2h	equ	0xFDA
  6912                           fsr2l	equ	0xFD9
  6913                           status	equ	0xFD8
  6914                           
  6915 ;; *************** function _USBCtrlEPServiceComplete *****************
  6916 ;; Defined at:
  6917 ;;		line 1616 in file "picLibs/usb_device.c"
  6918 ;; Parameters:    Size  Location     Type
  6919 ;;		None
  6920 ;; Auto vars:     Size  Location     Type
  6921 ;;		None
  6922 ;; Return value:  Size  Location     Type
  6923 ;;                  1    wreg      void 
  6924 ;; Registers used:
  6925 ;;		wreg, fsr1l, fsr1h, fsr2l, fsr2h, status,2, status,0, tblptrl, tblptrh, tblptru, cstack
  6926 ;; Tracked objects:
  6927 ;;		On entry : 0/0
  6928 ;;		On exit  : 0/0
  6929 ;;		Unchanged: 0/0
  6930 ;; Data sizes:     COMRAM   BANK0   BANK1   BANK2
  6931 ;;      Params:         0       0       0       0
  6932 ;;      Locals:         0       0       0       0
  6933 ;;      Temps:          0       0       0       0
  6934 ;;      Totals:         0       0       0       0
  6935 ;;Total ram usage:        0 bytes
  6936 ;; Hardware stack levels used:    1
  6937 ;; Hardware stack levels required when called:    2
  6938 ;; This function calls:
  6939 ;;		_USBCtrlEPAllowDataStage
  6940 ;;		_USBCtrlEPAllowStatusStage
  6941 ;; This function is called by:
  6942 ;;		_USBCtrlTrfSetupHandler
  6943 ;; This function uses a non-reentrant model
  6944 ;;
  6945                           
  6946                           	psect	text35
  6947  001722                     __ptext35:
  6948                           	opt stack 0
  6949  001722                     _USBCtrlEPServiceComplete:
  6950                           	opt stack 19
  6951                           
  6952                           ;usb_device.c: 1622: UCONbits.PKTDIS = 0;
  6953                           
  6954                           ;incstack = 0
  6955  001722  9864               	bcf	3940,4,c	;volatile
  6956                           
  6957                           ;usb_device.c: 1628: if(inPipes[0].info.bits.busy == 0)
  6958  001724  0100               	movlb	0	; () banked
  6959  001726  BF75               	btfsc	(_inPipes+3)& (0+255),7,b	;volatile
  6960  001728  D039               	goto	i2l482
  6961                           
  6962                           ; BSR set to: 0
  6963                           ;usb_device.c: 1629: {
  6964                           ;usb_device.c: 1630: if(outPipes[0].info.bits.busy == 1)
  6965  00172A  0100               	movlb	0	; () banked
  6966  00172C  AF6D               	btfss	(_outPipes+3)& (0+255),7,b	;volatile
  6967  00172E  D00B               	goto	i2l3666
  6968                           
  6969                           ; BSR set to: 0
  6970                           ;usb_device.c: 1631: {
  6971                           ;usb_device.c: 1632: controlTransferState = 2;
  6972  001730  0E02               	movlw	2
  6973  001732  6E47               	movwf	_controlTransferState,c	;volatile
  6974                           
  6975                           ;usb_device.c: 1643: if(USBDeferOUTDataStagePackets == 0)
  6976  001734  503D               	movf	_USBDeferOUTDataStagePackets,w,c	;volatile
  6977  001736  B4D8               	btfsc	status,2,c
  6978                           
  6979                           ; BSR set to: 0
  6980                           ;usb_device.c: 1644: {
  6981                           ;usb_device.c: 1645: USBCtrlEPAllowDataStage();
  6982  001738  EC0D  F010         	call	_USBCtrlEPAllowDataStage	;wreg free
  6983                           
  6984                           ;usb_device.c: 1646: }
  6985                           ;usb_device.c: 1650: USBStatusStageEnabledFlag2 = 0;
  6986  00173C  0E00               	movlw	0
  6987  00173E  6E3F               	movwf	_USBStatusStageEnabledFlag2,c	;volatile
  6988                           
  6989                           ;usb_device.c: 1651: USBStatusStageEnabledFlag1 = 0;
  6990  001740  0E00               	movlw	0
  6991  001742  6E40               	movwf	_USBStatusStageEnabledFlag1,c	;volatile
  6992                           
  6993                           ;usb_device.c: 1652: }
  6994  001744  0012               	return	
  6995  001746                     i2l3666:
  6996                           
  6997                           ;usb_device.c: 1653: else
  6998                           ;usb_device.c: 1654: {
  6999                           ;usb_device.c: 1659: pBDTEntryEP0OutNext->CNT = 8;
  7000  001746  EE20 F001          	lfsr	2,1
  7001  00174A  5035               	movf	_pBDTEntryEP0OutNext,w,c
  7002  00174C  26D9               	addwf	fsr2l,f,c
  7003  00174E  5036               	movf	_pBDTEntryEP0OutNext+1,w,c
  7004  001750  22DA               	addwfc	fsr2h,f,c
  7005  001752  0E08               	movlw	8
  7006  001754  6EDF               	movwf	indf2,c
  7007                           
  7008                           ;usb_device.c: 1660: pBDTEntryEP0OutNext->ADR = ((uint16_t)(&SetupPkt));
  7009  001756  EE20 F002          	lfsr	2,2
  7010  00175A  5035               	movf	_pBDTEntryEP0OutNext,w,c
  7011  00175C  26D9               	addwf	fsr2l,f,c
  7012  00175E  5036               	movf	_pBDTEntryEP0OutNext+1,w,c
  7013  001760  22DA               	addwfc	fsr2h,f,c
  7014  001762  0E30               	movlw	48
  7015  001764  6EDE               	movwf	postinc2,c
  7016  001766  0E02               	movlw	2
  7017  001768  6EDD               	movwf	postdec2,c
  7018                           
  7019                           ;usb_device.c: 1661: pBDTEntryEP0OutNext->STAT.Val = 0x00|(0x08 & 0x08)|0x04;
  7020  00176A  C035  FFD9         	movff	_pBDTEntryEP0OutNext,fsr2l
  7021  00176E  C036  FFDA         	movff	_pBDTEntryEP0OutNext+1,fsr2h
  7022  001772  0E0C               	movlw	12
  7023  001774  6EDF               	movwf	indf2,c
  7024                           
  7025                           ;usb_device.c: 1662: pBDTEntryEP0OutNext->STAT.Val |= 0x80;
  7026  001776  C035  FFD9         	movff	_pBDTEntryEP0OutNext,fsr2l
  7027  00177A  C036  FFDA         	movff	_pBDTEntryEP0OutNext+1,fsr2h
  7028  00177E  0E00               	movlw	0
  7029  001780  8EDB               	bsf	plusw2,7,c
  7030                           
  7031                           ;usb_device.c: 1663: pBDTEntryIn[0]->STAT.Val = 0x04;
  7032  001782  C078  FFD9         	movff	_pBDTEntryIn,fsr2l
  7033  001786  C079  FFDA         	movff	_pBDTEntryIn+1,fsr2h
  7034  00178A  0E04               	movlw	4
  7035  00178C  6EDF               	movwf	indf2,c
  7036                           
  7037                           ;usb_device.c: 1664: pBDTEntryIn[0]->STAT.Val |= 0x80;
  7038  00178E  C078  FFD9         	movff	_pBDTEntryIn,fsr2l
  7039  001792  C079  FFDA         	movff	_pBDTEntryIn+1,fsr2h
  7040  001796  0E00               	movlw	0
  7041  001798  8EDB               	bsf	plusw2,7,c
  7042                           
  7043                           ;usb_device.c: 1665: }
  7044                           ;usb_device.c: 1666: }
  7045  00179A  0012               	return	
  7046  00179C                     i2l482:
  7047                           
  7048                           ; BSR set to: 0
  7049                           ;usb_device.c: 1667: else
  7050                           ;usb_device.c: 1668: {
  7051                           ;usb_device.c: 1669: if(SetupPkt.DataDir == (0x80>>7))
  7052  00179C  0102               	movlb	2	; () banked
  7053  00179E  AF30               	btfss	48,7,b	;volatile
  7054  0017A0  D010               	goto	i2l3686
  7055                           
  7056                           ; BSR set to: 2
  7057                           ;usb_device.c: 1670: {
  7058                           ;usb_device.c: 1671: controlTransferState = 1;
  7059  0017A2  0E01               	movlw	1
  7060  0017A4  6E47               	movwf	_controlTransferState,c	;volatile
  7061                           
  7062                           ;usb_device.c: 1685: if(USBDeferINDataStagePackets == 0)
  7063  0017A6  503E               	movf	_USBDeferINDataStagePackets,w,c	;volatile
  7064  0017A8  B4D8               	btfsc	status,2,c
  7065                           
  7066                           ; BSR set to: 2
  7067                           ;usb_device.c: 1686: {
  7068                           ;usb_device.c: 1687: USBCtrlEPAllowDataStage();
  7069  0017AA  EC0D  F010         	call	_USBCtrlEPAllowDataStage	;wreg free
  7070                           
  7071                           ;usb_device.c: 1688: }
  7072                           ;usb_device.c: 1710: USBStatusStageEnabledFlag2 = 0;
  7073  0017AE  0E00               	movlw	0
  7074  0017B0  6E3F               	movwf	_USBStatusStageEnabledFlag2,c	;volatile
  7075                           
  7076                           ;usb_device.c: 1711: USBStatusStageEnabledFlag1 = 0;
  7077  0017B2  0E00               	movlw	0
  7078  0017B4  6E40               	movwf	_USBStatusStageEnabledFlag1,c	;volatile
  7079                           
  7080                           ;usb_device.c: 1712: if(USBDeferStatusStagePacket == 0)
  7081  0017B6  5041               	movf	_USBDeferStatusStagePacket,w,c	;volatile
  7082  0017B8  A4D8               	btfss	status,2,c
  7083  0017BA  0012               	return	
  7084                           
  7085                           ;usb_device.c: 1713: {
  7086                           ;usb_device.c: 1714: USBCtrlEPAllowStatusStage();
  7087  0017BC  EC9D  F00E         	call	_USBCtrlEPAllowStatusStage	;wreg free
  7088                           
  7089                           ;usb_device.c: 1715: }
  7090                           ;usb_device.c: 1716: }
  7091  0017C0  0012               	return	
  7092  0017C2                     i2l3686:
  7093                           
  7094                           ;usb_device.c: 1717: else
  7095                           ;usb_device.c: 1718: {
  7096                           ;usb_device.c: 1729: controlTransferState = 2;
  7097  0017C2  0E02               	movlw	2
  7098  0017C4  6E47               	movwf	_controlTransferState,c	;volatile
  7099                           
  7100                           ;usb_device.c: 1732: pBDTEntryEP0OutNext->CNT = 8;
  7101  0017C6  EE20 F001          	lfsr	2,1
  7102  0017CA  5035               	movf	_pBDTEntryEP0OutNext,w,c
  7103  0017CC  26D9               	addwf	fsr2l,f,c
  7104  0017CE  5036               	movf	_pBDTEntryEP0OutNext+1,w,c
  7105  0017D0  22DA               	addwfc	fsr2h,f,c
  7106  0017D2  0E08               	movlw	8
  7107  0017D4  6EDF               	movwf	indf2,c
  7108                           
  7109                           ;usb_device.c: 1733: pBDTEntryEP0OutNext->ADR = ((uint16_t)(&SetupPkt));
  7110  0017D6  EE20 F002          	lfsr	2,2
  7111  0017DA  5035               	movf	_pBDTEntryEP0OutNext,w,c
  7112  0017DC  26D9               	addwf	fsr2l,f,c
  7113  0017DE  5036               	movf	_pBDTEntryEP0OutNext+1,w,c
  7114  0017E0  22DA               	addwfc	fsr2h,f,c
  7115  0017E2  0E30               	movlw	48
  7116  0017E4  6EDE               	movwf	postinc2,c
  7117  0017E6  0E02               	movlw	2
  7118  0017E8  6EDD               	movwf	postdec2,c
  7119                           
  7120                           ;usb_device.c: 1734: pBDTEntryEP0OutNext->STAT.Val = 0x04;
  7121  0017EA  C035  FFD9         	movff	_pBDTEntryEP0OutNext,fsr2l
  7122  0017EE  C036  FFDA         	movff	_pBDTEntryEP0OutNext+1,fsr2h
  7123  0017F2  0E04               	movlw	4
  7124  0017F4  6EDF               	movwf	indf2,c
  7125                           
  7126                           ;usb_device.c: 1735: pBDTEntryEP0OutNext->STAT.Val |= 0x80;
  7127  0017F6  C035  FFD9         	movff	_pBDTEntryEP0OutNext,fsr2l
  7128  0017FA  C036  FFDA         	movff	_pBDTEntryEP0OutNext+1,fsr2h
  7129  0017FE  0E00               	movlw	0
  7130  001800  8EDB               	bsf	plusw2,7,c
  7131                           
  7132                           ;usb_device.c: 1738: USBStatusStageEnabledFlag2 = 0;
  7133  001802  0E00               	movlw	0
  7134  001804  6E3F               	movwf	_USBStatusStageEnabledFlag2,c	;volatile
  7135                           
  7136                           ;usb_device.c: 1739: USBStatusStageEnabledFlag1 = 0;
  7137  001806  0E00               	movlw	0
  7138  001808  6E40               	movwf	_USBStatusStageEnabledFlag1,c	;volatile
  7139                           
  7140                           ;usb_device.c: 1740: if(USBDeferStatusStagePacket == 0)
  7141  00180A  5041               	movf	_USBDeferStatusStagePacket,w,c	;volatile
  7142  00180C  A4D8               	btfss	status,2,c
  7143  00180E  0012               	return	
  7144                           
  7145                           ;usb_device.c: 1741: {
  7146                           ;usb_device.c: 1742: USBCtrlEPAllowStatusStage();
  7147  001810  EC9D  F00E         	call	_USBCtrlEPAllowStatusStage	;wreg free
  7148  001814  0012               	return	
  7149  001816                     __end_of_USBCtrlEPServiceComplete:
  7150                           	opt stack 0
  7151                           pclatu	equ	0xFFB
  7152                           pclath	equ	0xFFA
  7153                           tblptru	equ	0xFF8
  7154                           tblptrh	equ	0xFF7
  7155                           tblptrl	equ	0xFF6
  7156                           tablat	equ	0xFF5
  7157                           prodh	equ	0xFF4
  7158                           prodl	equ	0xFF3
  7159                           intcon	equ	0xFF2
  7160                           postinc0	equ	0xFEE
  7161                           fsr0h	equ	0xFEA
  7162                           fsr0l	equ	0xFE9
  7163                           wreg	equ	0xFE8
  7164                           indf1	equ	0xFE7
  7165                           postdec1	equ	0xFE5
  7166                           fsr1h	equ	0xFE2
  7167                           fsr1l	equ	0xFE1
  7168                           indf2	equ	0xFDF
  7169                           postinc2	equ	0xFDE
  7170                           postdec2	equ	0xFDD
  7171                           plusw2	equ	0xFDB
  7172                           fsr2h	equ	0xFDA
  7173                           fsr2l	equ	0xFD9
  7174                           status	equ	0xFD8
  7175                           
  7176 ;; *************** function _USBCtrlEPAllowDataStage *****************
  7177 ;; Defined at:
  7178 ;;		line 1488 in file "picLibs/usb_device.c"
  7179 ;; Parameters:    Size  Location     Type
  7180 ;;		None
  7181 ;; Auto vars:     Size  Location     Type
  7182 ;;		None
  7183 ;; Return value:  Size  Location     Type
  7184 ;;                  1    wreg      void 
  7185 ;; Registers used:
  7186 ;;		wreg, fsr1l, fsr1h, fsr2l, fsr2h, status,2, status,0, tblptrl, tblptrh, tblptru, cstack
  7187 ;; Tracked objects:
  7188 ;;		On entry : 0/0
  7189 ;;		On exit  : 0/0
  7190 ;;		Unchanged: 0/0
  7191 ;; Data sizes:     COMRAM   BANK0   BANK1   BANK2
  7192 ;;      Params:         0       0       0       0
  7193 ;;      Locals:         0       0       0       0
  7194 ;;      Temps:          0       0       0       0
  7195 ;;      Totals:         0       0       0       0
  7196 ;;Total ram usage:        0 bytes
  7197 ;; Hardware stack levels used:    1
  7198 ;; Hardware stack levels required when called:    1
  7199 ;; This function calls:
  7200 ;;		_USBCtrlTrfTxService
  7201 ;; This function is called by:
  7202 ;;		_USBCtrlEPServiceComplete
  7203 ;; This function uses a non-reentrant model
  7204 ;;
  7205                           
  7206                           	psect	text36
  7207  00201A                     __ptext36:
  7208                           	opt stack 0
  7209  00201A                     _USBCtrlEPAllowDataStage:
  7210                           	opt stack 19
  7211                           
  7212                           ;usb_device.c: 1490: USBDeferINDataStagePackets = 0;
  7213                           
  7214                           ;incstack = 0
  7215  00201A  0E00               	movlw	0
  7216  00201C  6E3E               	movwf	_USBDeferINDataStagePackets,c	;volatile
  7217                           
  7218                           ;usb_device.c: 1491: USBDeferOUTDataStagePackets = 0;
  7219  00201E  0E00               	movlw	0
  7220  002020  6E3D               	movwf	_USBDeferOUTDataStagePackets,c	;volatile
  7221                           
  7222                           ;usb_device.c: 1493: if(controlTransferState == 2)
  7223  002022  0E02               	movlw	2
  7224  002024  1847               	xorwf	_controlTransferState,w,c	;volatile
  7225  002026  A4D8               	btfss	status,2,c
  7226  002028  D01F               	goto	i2l3426
  7227                           
  7228                           ;usb_device.c: 1494: {
  7229                           ;usb_device.c: 1496: pBDTEntryEP0OutNext->CNT = 8;
  7230  00202A  EE20 F001          	lfsr	2,1
  7231  00202E  5035               	movf	_pBDTEntryEP0OutNext,w,c
  7232  002030  26D9               	addwf	fsr2l,f,c
  7233  002032  5036               	movf	_pBDTEntryEP0OutNext+1,w,c
  7234  002034  22DA               	addwfc	fsr2h,f,c
  7235  002036  0E08               	movlw	8
  7236  002038  6EDF               	movwf	indf2,c
  7237                           
  7238                           ;usb_device.c: 1497: pBDTEntryEP0OutNext->ADR = ((uint16_t)(&CtrlTrfData));
  7239  00203A  EE20 F002          	lfsr	2,2
  7240  00203E  5035               	movf	_pBDTEntryEP0OutNext,w,c
  7241  002040  26D9               	addwf	fsr2l,f,c
  7242  002042  5036               	movf	_pBDTEntryEP0OutNext+1,w,c
  7243  002044  22DA               	addwfc	fsr2h,f,c
  7244  002046  0E38               	movlw	56
  7245  002048  6EDE               	movwf	postinc2,c
  7246  00204A  0E02               	movlw	2
  7247  00204C  6EDD               	movwf	postdec2,c
  7248                           
  7249                           ;usb_device.c: 1498: pBDTEntryEP0OutNext->STAT.Val = 0x40|(0x08 & 0x08);
  7250  00204E  C035  FFD9         	movff	_pBDTEntryEP0OutNext,fsr2l
  7251  002052  C036  FFDA         	movff	_pBDTEntryEP0OutNext+1,fsr2h
  7252  002056  0E48               	movlw	72
  7253  002058  6EDF               	movwf	indf2,c
  7254                           
  7255                           ;usb_device.c: 1499: pBDTEntryEP0OutNext->STAT.Val |= 0x80;
  7256  00205A  C035  FFD9         	movff	_pBDTEntryEP0OutNext,fsr2l
  7257  00205E  C036  FFDA         	movff	_pBDTEntryEP0OutNext+1,fsr2h
  7258  002062  0E00               	movlw	0
  7259  002064  8EDB               	bsf	plusw2,7,c
  7260                           
  7261                           ;usb_device.c: 1500: }
  7262  002066  0012               	return	
  7263  002068                     i2l3426:
  7264                           
  7265                           ;usb_device.c: 1501: else
  7266                           ;usb_device.c: 1502: {
  7267                           ;usb_device.c: 1505: if(SetupPkt.wLength < inPipes[0].wCount.Val)
  7268  002068  0100               	movlb	0	; () banked
  7269  00206A  5176               	movf	(_inPipes+4)& (0+255),w,b	;volatile
  7270  00206C  0102               	movlb	2	; () banked
  7271  00206E  5D36               	subwf	54,w,b	;volatile
  7272  002070  0100               	movlb	0	; () banked
  7273  002072  5177               	movf	(_inPipes+5)& (0+255),w,b	;volatile
  7274  002074  0102               	movlb	2	; () banked
  7275  002076  5937               	subwfb	55,w,b	;volatile
  7276  002078  B0D8               	btfsc	status,0,c
  7277  00207A  D004               	goto	i2l3430
  7278                           
  7279                           ; BSR set to: 2
  7280                           ;usb_device.c: 1506: {
  7281                           ;usb_device.c: 1507: inPipes[0].wCount.Val = SetupPkt.wLength;
  7282  00207C  C236 F076          	movff	566,_inPipes+4	;volatile
  7283  002080  C237 F077          	movff	567,_inPipes+5	;volatile
  7284  002084                     i2l3430:
  7285                           
  7286                           ; BSR set to: 2
  7287                           ;usb_device.c: 1508: }
  7288                           ;usb_device.c: 1509: USBCtrlTrfTxService();
  7289  002084  EC63  F00D         	call	_USBCtrlTrfTxService	;wreg free
  7290                           
  7291                           ;usb_device.c: 1514: pBDTEntryIn[0]->ADR = ((uint16_t)(&CtrlTrfData));
  7292  002088  0100               	movlb	0	; () banked
  7293  00208A  EE20 F002          	lfsr	2,2
  7294  00208E  5178               	movf	_pBDTEntryIn& (0+255),w,b
  7295  002090  26D9               	addwf	fsr2l,f,c
  7296  002092  5179               	movf	(_pBDTEntryIn+1)& (0+255),w,b
  7297  002094  22DA               	addwfc	fsr2h,f,c
  7298  002096  0E38               	movlw	56
  7299  002098  6EDE               	movwf	postinc2,c
  7300  00209A  0E02               	movlw	2
  7301  00209C  6EDD               	movwf	postdec2,c
  7302                           
  7303                           ; BSR set to: 0
  7304                           ;usb_device.c: 1515: pBDTEntryIn[0]->STAT.Val = 0x40|(0x08 & 0x08);
  7305  00209E  C078  FFD9         	movff	_pBDTEntryIn,fsr2l
  7306  0020A2  C079  FFDA         	movff	_pBDTEntryIn+1,fsr2h
  7307  0020A6  0E48               	movlw	72
  7308  0020A8  6EDF               	movwf	indf2,c
  7309                           
  7310                           ; BSR set to: 0
  7311                           ;usb_device.c: 1516: pBDTEntryIn[0]->STAT.Val |= 0x80;
  7312  0020AA  C078  FFD9         	movff	_pBDTEntryIn,fsr2l
  7313  0020AE  C079  FFDA         	movff	_pBDTEntryIn+1,fsr2h
  7314  0020B2  0E00               	movlw	0
  7315  0020B4  8EDB               	bsf	plusw2,7,c
  7316  0020B6  0012               	return	
  7317  0020B8                     __end_of_USBCtrlEPAllowDataStage:
  7318                           	opt stack 0
  7319                           pclatu	equ	0xFFB
  7320                           pclath	equ	0xFFA
  7321                           tblptru	equ	0xFF8
  7322                           tblptrh	equ	0xFF7
  7323                           tblptrl	equ	0xFF6
  7324                           tablat	equ	0xFF5
  7325                           prodh	equ	0xFF4
  7326                           prodl	equ	0xFF3
  7327                           intcon	equ	0xFF2
  7328                           postinc0	equ	0xFEE
  7329                           fsr0h	equ	0xFEA
  7330                           fsr0l	equ	0xFE9
  7331                           wreg	equ	0xFE8
  7332                           indf1	equ	0xFE7
  7333                           postdec1	equ	0xFE5
  7334                           fsr1h	equ	0xFE2
  7335                           fsr1l	equ	0xFE1
  7336                           indf2	equ	0xFDF
  7337                           postinc2	equ	0xFDE
  7338                           postdec2	equ	0xFDD
  7339                           plusw2	equ	0xFDB
  7340                           fsr2h	equ	0xFDA
  7341                           fsr2l	equ	0xFD9
  7342                           status	equ	0xFD8
  7343                           
  7344 ;; *************** function _USBCheckStdRequest *****************
  7345 ;; Defined at:
  7346 ;;		line 2686 in file "picLibs/usb_device.c"
  7347 ;; Parameters:    Size  Location     Type
  7348 ;;		None
  7349 ;; Auto vars:     Size  Location     Type
  7350 ;;		None
  7351 ;; Return value:  Size  Location     Type
  7352 ;;                  1    wreg      void 
  7353 ;; Registers used:
  7354 ;;		wreg, fsr1l, fsr1h, fsr2l, fsr2h, status,2, status,0, tblptrl, tblptrh, tblptru, prodl, prodh, cstack
  7355 ;; Tracked objects:
  7356 ;;		On entry : 0/0
  7357 ;;		On exit  : 0/0
  7358 ;;		Unchanged: 0/0
  7359 ;; Data sizes:     COMRAM   BANK0   BANK1   BANK2
  7360 ;;      Params:         0       0       0       0
  7361 ;;      Locals:         0       0       0       0
  7362 ;;      Temps:          0       0       0       0
  7363 ;;      Totals:         0       0       0       0
  7364 ;;Total ram usage:        0 bytes
  7365 ;; Hardware stack levels used:    1
  7366 ;; Hardware stack levels required when called:    5
  7367 ;; This function calls:
  7368 ;;		_USBStdFeatureReqHandler
  7369 ;;		_USBStdGetDscHandler
  7370 ;;		_USBStdGetStatusHandler
  7371 ;;		_USBStdSetCfgHandler
  7372 ;;		_USER_USB_CALLBACK_EVENT_HANDLER
  7373 ;; This function is called by:
  7374 ;;		_USBCtrlTrfSetupHandler
  7375 ;; This function uses a non-reentrant model
  7376 ;;
  7377                           
  7378                           	psect	text37
  7379  001816                     __ptext37:
  7380                           	opt stack 0
  7381  001816                     _USBCheckStdRequest:
  7382                           	opt stack 16
  7383                           
  7384                           ;usb_device.c: 2688: if(SetupPkt.RequestType != (0x00>>5)) return;
  7385                           
  7386                           ;incstack = 0
  7387  001816  0102               	movlb	2	; () banked
  7388  001818  3930               	swapf	48,w,b	;volatile
  7389  00181A  32E8               	rrcf	wreg,f,c
  7390  00181C  0B03               	andlw	3
  7391  00181E  0900               	iorlw	0
  7392  001820  A4D8               	btfss	status,2,c
  7393  001822  0012               	return	
  7394  001824  D050               	goto	i2l3784
  7395  001826                     i2l607:
  7396                           
  7397                           ; BSR set to: 2
  7398                           ;usb_device.c: 2693: inPipes[0].info.bits.busy = 1;
  7399  001826  0100               	movlb	0	; () banked
  7400  001828  8F75               	bsf	(_inPipes+3)& (0+255),7,b	;volatile
  7401                           
  7402                           ; BSR set to: 0
  7403                           ;usb_device.c: 2694: USBDeviceState = ADR_PENDING_STATE;
  7404  00182A  0E08               	movlw	8
  7405  00182C  0100               	movlb	0	; () banked
  7406  00182E  6F99               	movwf	_USBDeviceState& (0+255),b	;volatile
  7407                           
  7408                           ;usb_device.c: 2696: break;
  7409  001830  0012               	return	
  7410  001832                     i2l3754:
  7411                           
  7412                           ;usb_device.c: 2698: USBStdGetDscHandler();
  7413  001832  EC31  F008         	call	_USBStdGetDscHandler	;wreg free
  7414                           
  7415                           ;usb_device.c: 2699: break;
  7416  001836  0012               	return	
  7417  001838                     i2l3756:
  7418                           
  7419                           ;usb_device.c: 2701: USBStdSetCfgHandler();
  7420  001838  EC85  F00C         	call	_USBStdSetCfgHandler	;wreg free
  7421                           
  7422                           ;usb_device.c: 2702: break;
  7423  00183C  0012               	return	
  7424  00183E                     i2l3758:
  7425                           
  7426                           ;usb_device.c: 2704: inPipes[0].pSrc.bRam = (uint8_t*)&USBActiveConfiguration;
  7427  00183E  0E53               	movlw	low _USBActiveConfiguration
  7428  001840  0100               	movlb	0	; () banked
  7429  001842  6F72               	movwf	_inPipes& (0+255),b	;volatile
  7430  001844  0E00               	movlw	high _USBActiveConfiguration
  7431  001846  0100               	movlb	0	; () banked
  7432  001848  6F73               	movwf	(_inPipes+1)& (0+255),b	;volatile
  7433                           
  7434                           ; BSR set to: 0
  7435                           ;usb_device.c: 2705: inPipes[0].info.bits.ctrl_trf_mem = 0x01;
  7436  00184A  0100               	movlb	0	; () banked
  7437  00184C  8175               	bsf	(_inPipes+3)& (0+255),0,b	;volatile
  7438                           
  7439                           ; BSR set to: 0
  7440                           ;usb_device.c: 2706: inPipes[0].wCount.v[0] = 1;
  7441  00184E  0E01               	movlw	1
  7442  001850  0100               	movlb	0	; () banked
  7443  001852  6F76               	movwf	(_inPipes+4)& (0+255),b	;volatile
  7444                           
  7445                           ; BSR set to: 0
  7446                           ;usb_device.c: 2707: inPipes[0].info.bits.busy = 1;
  7447  001854  0100               	movlb	0	; () banked
  7448  001856  8F75               	bsf	(_inPipes+3)& (0+255),7,b	;volatile
  7449                           
  7450                           ;usb_device.c: 2708: break;
  7451  001858  0012               	return	
  7452  00185A                     i2l3766:
  7453                           
  7454                           ;usb_device.c: 2710: USBStdGetStatusHandler();
  7455  00185A  EC5D  F00F         	call	_USBStdGetStatusHandler	;wreg free
  7456                           
  7457                           ;usb_device.c: 2711: break;
  7458  00185E  0012               	return	
  7459  001860                     i2l3768:
  7460                           
  7461                           ;usb_device.c: 2713: case 3:
  7462                           ;usb_device.c: 2714: USBStdFeatureReqHandler();
  7463  001860  ECEC  F001         	call	_USBStdFeatureReqHandler	;wreg free
  7464                           
  7465                           ;usb_device.c: 2715: break;
  7466  001864  0012               	return	
  7467  001866                     i2l3770:
  7468                           
  7469                           ;usb_device.c: 2717: inPipes[0].pSrc.bRam = (uint8_t*)&USBAlternateInterface[SetupPkt.bI
      +                          ntfID];
  7470  001866  0102               	movlb	2	; () banked
  7471  001868  5134               	movf	52,w,b	;volatile
  7472  00186A  0D01               	mullw	1
  7473  00186C  0E50               	movlw	low _USBAlternateInterface
  7474  00186E  24F3               	addwf	prodl,w,c
  7475  001870  0100               	movlb	0	; () banked
  7476  001872  6F72               	movwf	_inPipes& (0+255),b	;volatile
  7477  001874  0E00               	movlw	high _USBAlternateInterface
  7478  001876  20F4               	addwfc	prodh,w,c
  7479  001878  0100               	movlb	0	; () banked
  7480  00187A  6F73               	movwf	(_inPipes+1)& (0+255),b	;volatile
  7481                           
  7482                           ; BSR set to: 0
  7483                           ;usb_device.c: 2718: inPipes[0].info.bits.ctrl_trf_mem = 0x01;
  7484  00187C  0100               	movlb	0	; () banked
  7485  00187E  8175               	bsf	(_inPipes+3)& (0+255),0,b	;volatile
  7486                           
  7487                           ; BSR set to: 0
  7488                           ;usb_device.c: 2719: inPipes[0].wCount.v[0] = 1;
  7489  001880  0E01               	movlw	1
  7490  001882  0100               	movlb	0	; () banked
  7491  001884  6F76               	movwf	(_inPipes+4)& (0+255),b	;volatile
  7492                           
  7493                           ; BSR set to: 0
  7494                           ;usb_device.c: 2720: inPipes[0].info.bits.busy = 1;
  7495  001886  0100               	movlb	0	; () banked
  7496  001888  8F75               	bsf	(_inPipes+3)& (0+255),7,b	;volatile
  7497                           
  7498                           ;usb_device.c: 2721: break;
  7499  00188A  0012               	return	
  7500  00188C                     i2l616:
  7501                           
  7502                           ; BSR set to: 2
  7503                           ;usb_device.c: 2723: inPipes[0].info.bits.busy = 1;
  7504  00188C  0100               	movlb	0	; () banked
  7505  00188E  8F75               	bsf	(_inPipes+3)& (0+255),7,b	;volatile
  7506                           
  7507                           ; BSR set to: 0
  7508                           ;usb_device.c: 2724: USBAlternateInterface[SetupPkt.bIntfID] = SetupPkt.bAltID;
  7509  001890  0102               	movlb	2	; () banked
  7510  001892  5134               	movf	52,w,b	;volatile
  7511  001894  0D01               	mullw	1
  7512  001896  0E50               	movlw	low _USBAlternateInterface
  7513  001898  24F3               	addwf	prodl,w,c
  7514  00189A  6ED9               	movwf	fsr2l,c
  7515  00189C  0E00               	movlw	high _USBAlternateInterface
  7516  00189E  20F4               	addwfc	prodh,w,c
  7517  0018A0  6EDA               	movwf	fsr2h,c
  7518  0018A2  C232 FFDF          	movff	562,indf2	;volatile
  7519                           
  7520                           ;usb_device.c: 2725: break;
  7521  0018A6  0012               	return	
  7522  0018A8                     i2l3780:
  7523                           
  7524                           ; BSR set to: 2
  7525                           ;usb_device.c: 2727: USER_USB_CALLBACK_EVENT_HANDLER(EVENT_SET_DESCRIPTOR,0,0);
  7526  0018A8  0E00               	movlw	0
  7527  0018AA  6E0E               	movwf	USER_USB_CALLBACK_EVENT_HANDLER@event+1,c
  7528  0018AC  0E02               	movlw	2
  7529  0018AE  6E0D               	movwf	USER_USB_CALLBACK_EVENT_HANDLER@event,c
  7530  0018B0  0E00               	movlw	0
  7531  0018B2  6E0F               	movwf	USER_USB_CALLBACK_EVENT_HANDLER@pdata,c
  7532  0018B4  0E00               	movlw	0
  7533  0018B6  6E10               	movwf	USER_USB_CALLBACK_EVENT_HANDLER@pdata+1,c
  7534  0018B8  0E00               	movlw	0
  7535  0018BA  6E12               	movwf	USER_USB_CALLBACK_EVENT_HANDLER@size+1,c
  7536  0018BC  0E00               	movlw	0
  7537  0018BE  6E11               	movwf	USER_USB_CALLBACK_EVENT_HANDLER@size,c
  7538  0018C0  ECF1  F010         	call	_USER_USB_CALLBACK_EVENT_HANDLER	;wreg free
  7539                           
  7540                           ;usb_device.c: 2732: }
  7541                           
  7542                           ;usb_device.c: 2731: break;
  7543                           
  7544                           ;usb_device.c: 2730: default:
  7545                           
  7546                           ;usb_device.c: 2729: case 12:
  7547                           
  7548                           ;usb_device.c: 2728: break;
  7549  0018C4  0012               	return	
  7550  0018C6                     i2l3784:
  7551  0018C6  0102               	movlb	2	; () banked
  7552  0018C8  5131               	movf	49,w,b	;volatile
  7553                           
  7554                           ; Switch size 1, requested type "space"
  7555                           ; Number of cases is 11, Range of values is 0 to 12
  7556                           ; switch strategies available:
  7557                           ; Name         Instructions Cycles
  7558                           ; simple_byte           34    18 (average)
  7559                           ;	Chosen strategy is simple_byte
  7560  0018CA  0A00               	xorlw	0	; case 0
  7561  0018CC  B4D8               	btfsc	status,2,c
  7562  0018CE  D7C5               	goto	i2l3766
  7563  0018D0  0A01               	xorlw	1	; case 1
  7564  0018D2  B4D8               	btfsc	status,2,c
  7565  0018D4  D7C5               	goto	i2l3768
  7566  0018D6  0A02               	xorlw	2	; case 3
  7567  0018D8  B4D8               	btfsc	status,2,c
  7568  0018DA  D7C2               	goto	i2l3768
  7569  0018DC  0A06               	xorlw	6	; case 5
  7570  0018DE  B4D8               	btfsc	status,2,c
  7571  0018E0  D7A2               	goto	i2l607
  7572  0018E2  0A03               	xorlw	3	; case 6
  7573  0018E4  B4D8               	btfsc	status,2,c
  7574  0018E6  D7A5               	goto	i2l3754
  7575  0018E8  0A01               	xorlw	1	; case 7
  7576  0018EA  B4D8               	btfsc	status,2,c
  7577  0018EC  D7DD               	goto	i2l3780
  7578  0018EE  0A0F               	xorlw	15	; case 8
  7579  0018F0  B4D8               	btfsc	status,2,c
  7580  0018F2  D7A5               	goto	i2l3758
  7581  0018F4  0A01               	xorlw	1	; case 9
  7582  0018F6  B4D8               	btfsc	status,2,c
  7583  0018F8  D79F               	goto	i2l3756
  7584  0018FA  0A03               	xorlw	3	; case 10
  7585  0018FC  B4D8               	btfsc	status,2,c
  7586  0018FE  D7B3               	goto	i2l3770
  7587  001900  0A01               	xorlw	1	; case 11
  7588  001902  B4D8               	btfsc	status,2,c
  7589  001904  D7C3               	goto	i2l616
  7590  001906  0A07               	xorlw	7	; case 12
  7591  001908  0012               	return	
  7592  00190A                     __end_of_USBCheckStdRequest:
  7593                           	opt stack 0
  7594                           pclatu	equ	0xFFB
  7595                           pclath	equ	0xFFA
  7596                           tblptru	equ	0xFF8
  7597                           tblptrh	equ	0xFF7
  7598                           tblptrl	equ	0xFF6
  7599                           tablat	equ	0xFF5
  7600                           prodh	equ	0xFF4
  7601                           prodl	equ	0xFF3
  7602                           intcon	equ	0xFF2
  7603                           postinc0	equ	0xFEE
  7604                           fsr0h	equ	0xFEA
  7605                           fsr0l	equ	0xFE9
  7606                           wreg	equ	0xFE8
  7607                           indf1	equ	0xFE7
  7608                           postdec1	equ	0xFE5
  7609                           fsr1h	equ	0xFE2
  7610                           fsr1l	equ	0xFE1
  7611                           indf2	equ	0xFDF
  7612                           postinc2	equ	0xFDE
  7613                           postdec2	equ	0xFDD
  7614                           plusw2	equ	0xFDB
  7615                           fsr2h	equ	0xFDA
  7616                           fsr2l	equ	0xFD9
  7617                           status	equ	0xFD8
  7618                           
  7619 ;; *************** function _USBStdSetCfgHandler *****************
  7620 ;; Defined at:
  7621 ;;		line 1968 in file "picLibs/usb_device.c"
  7622 ;; Parameters:    Size  Location     Type
  7623 ;;		None
  7624 ;; Auto vars:     Size  Location     Type
  7625 ;;  i               1   20[COMRAM] unsigned char 
  7626 ;; Return value:  Size  Location     Type
  7627 ;;                  1    wreg      void 
  7628 ;; Registers used:
  7629 ;;		wreg, fsr2l, fsr2h, status,2, status,0, prodl, prodh, cstack
  7630 ;; Tracked objects:
  7631 ;;		On entry : 0/0
  7632 ;;		On exit  : 0/0
  7633 ;;		Unchanged: 0/0
  7634 ;; Data sizes:     COMRAM   BANK0   BANK1   BANK2
  7635 ;;      Params:         0       0       0       0
  7636 ;;      Locals:         1       0       0       0
  7637 ;;      Temps:          0       0       0       0
  7638 ;;      Totals:         1       0       0       0
  7639 ;;Total ram usage:        1 bytes
  7640 ;; Hardware stack levels used:    1
  7641 ;; Hardware stack levels required when called:    4
  7642 ;; This function calls:
  7643 ;;		_USER_USB_CALLBACK_EVENT_HANDLER
  7644 ;;		i2_memset
  7645 ;; This function is called by:
  7646 ;;		_USBCheckStdRequest
  7647 ;; This function uses a non-reentrant model
  7648 ;;
  7649                           
  7650                           	psect	text38
  7651  00190A                     __ptext38:
  7652                           	opt stack 0
  7653  00190A                     _USBStdSetCfgHandler:
  7654                           	opt stack 16
  7655                           
  7656                           ;usb_device.c: 1970: uint8_t i;
  7657                           ;usb_device.c: 1973: inPipes[0].info.bits.busy = 1;
  7658                           
  7659                           ;incstack = 0
  7660  00190A  0100               	movlb	0	; () banked
  7661  00190C  8F75               	bsf	(_inPipes+3)& (0+255),7,b	;volatile
  7662                           
  7663                           ; BSR set to: 0
  7664                           ;usb_device.c: 1976: memset((void*)&UEP1,0x00,(2));;
  7665  00190E  0E54               	movlw	84
  7666  001910  6E01               	movwf	i2memset@p1,c
  7667  001912  0E0F               	movlw	15
  7668  001914  6E02               	movwf	i2memset@p1+1,c
  7669  001916  0E00               	movlw	0
  7670  001918  6E04               	movwf	i2memset@c+1,c
  7671  00191A  0E00               	movlw	0
  7672  00191C  6E03               	movwf	i2memset@c,c
  7673  00191E  0E00               	movlw	0
  7674  001920  6E06               	movwf	i2memset@n+1,c
  7675  001922  0E02               	movlw	2
  7676  001924  6E05               	movwf	i2memset@n,c
  7677  001926  ECA6  F013         	call	i2_memset	;wreg free
  7678                           
  7679                           ;usb_device.c: 1979: memset((void*)&BDT[0], 0x00, sizeof(BDT));
  7680  00192A  0E00               	movlw	0
  7681  00192C  6E01               	movwf	i2memset@p1,c
  7682  00192E  0E02               	movlw	2
  7683  001930  6E02               	movwf	i2memset@p1+1,c
  7684  001932  0E00               	movlw	0
  7685  001934  6E04               	movwf	i2memset@c+1,c
  7686  001936  0E00               	movlw	0
  7687  001938  6E03               	movwf	i2memset@c,c
  7688  00193A  0E00               	movlw	0
  7689  00193C  6E06               	movwf	i2memset@n+1,c
  7690  00193E  0E30               	movlw	48
  7691  001940  6E05               	movwf	i2memset@n,c
  7692  001942  ECA6  F013         	call	i2_memset	;wreg free
  7693                           
  7694                           ;usb_device.c: 1982: UCONbits.PPBRST = 1;
  7695  001946  8C64               	bsf	3940,6,c	;volatile
  7696                           
  7697                           ;usb_device.c: 1987: for(i = 0; i < (uint8_t)(2+1u); i++)
  7698  001948  0E00               	movlw	0
  7699  00194A  6E15               	movwf	USBStdSetCfgHandler@i,c
  7700  00194C                     i2l3446:
  7701  00194C  0E02               	movlw	2
  7702  00194E  6415               	cpfsgt	USBStdSetCfgHandler@i,c
  7703  001950  D001               	goto	i2l3450
  7704  001952  D016               	goto	i2l3456
  7705  001954                     i2l3450:
  7706                           
  7707                           ;usb_device.c: 1988: {
  7708                           ;usb_device.c: 1989: ep_data_in[i].Val = 0u;
  7709  001954  5015               	movf	USBStdSetCfgHandler@i,w,c
  7710  001956  0D01               	mullw	1
  7711  001958  0E8D               	movlw	low _ep_data_in
  7712  00195A  24F3               	addwf	prodl,w,c
  7713  00195C  6ED9               	movwf	fsr2l,c
  7714  00195E  0E00               	movlw	high _ep_data_in
  7715  001960  20F4               	addwfc	prodh,w,c
  7716  001962  6EDA               	movwf	fsr2h,c
  7717  001964  0E00               	movlw	0
  7718  001966  6EDF               	movwf	indf2,c
  7719                           
  7720                           ;usb_device.c: 1990: ep_data_out[i].Val = 0u;
  7721  001968  5015               	movf	USBStdSetCfgHandler@i,w,c
  7722  00196A  0D01               	mullw	1
  7723  00196C  0E8A               	movlw	low _ep_data_out
  7724  00196E  24F3               	addwf	prodl,w,c
  7725  001970  6ED9               	movwf	fsr2l,c
  7726  001972  0E00               	movlw	high _ep_data_out
  7727  001974  20F4               	addwfc	prodh,w,c
  7728  001976  6EDA               	movwf	fsr2h,c
  7729  001978  0E00               	movlw	0
  7730  00197A  6EDF               	movwf	indf2,c
  7731  00197C  2A15               	incf	USBStdSetCfgHandler@i,f,c
  7732  00197E  D7E6               	goto	i2l3446
  7733  001980                     i2l3456:
  7734                           
  7735                           ;usb_device.c: 1991: }
  7736                           ;usb_device.c: 1994: memset((void*)&USBAlternateInterface,0x00,2);
  7737  001980  0E50               	movlw	low _USBAlternateInterface
  7738  001982  6E01               	movwf	i2memset@p1,c
  7739  001984  0E00               	movlw	high _USBAlternateInterface
  7740  001986  6E02               	movwf	i2memset@p1+1,c
  7741  001988  0E00               	movlw	0
  7742  00198A  6E04               	movwf	i2memset@c+1,c
  7743  00198C  0E00               	movlw	0
  7744  00198E  6E03               	movwf	i2memset@c,c
  7745  001990  0E00               	movlw	0
  7746  001992  6E06               	movwf	i2memset@n+1,c
  7747  001994  0E02               	movlw	2
  7748  001996  6E05               	movwf	i2memset@n,c
  7749  001998  ECA6  F013         	call	i2_memset	;wreg free
  7750                           
  7751                           ;usb_device.c: 1997: UCONbits.PPBRST = 0;
  7752  00199C  9C64               	bcf	3940,6,c	;volatile
  7753                           
  7754                           ;usb_device.c: 1999: pBDTEntryIn[0] = (volatile BDT_ENTRY*)&BDT[2];
  7755  00199E  0E08               	movlw	8
  7756  0019A0  0100               	movlb	0	; () banked
  7757  0019A2  6F78               	movwf	_pBDTEntryIn& (0+255),b
  7758  0019A4  0E02               	movlw	2
  7759  0019A6  0100               	movlb	0	; () banked
  7760  0019A8  6F79               	movwf	(_pBDTEntryIn+1)& (0+255),b
  7761                           
  7762                           ; BSR set to: 0
  7763                           ;usb_device.c: 2002: pBDTEntryEP0OutCurrent = (volatile BDT_ENTRY*)&BDT[0];
  7764  0019AA  0E00               	movlw	0
  7765  0019AC  6E37               	movwf	_pBDTEntryEP0OutCurrent,c
  7766  0019AE  0E02               	movlw	2
  7767  0019B0  6E38               	movwf	_pBDTEntryEP0OutCurrent+1,c
  7768                           
  7769                           ; BSR set to: 0
  7770                           ;usb_device.c: 2003: pBDTEntryEP0OutNext = pBDTEntryEP0OutCurrent;
  7771  0019B2  C037  F035         	movff	_pBDTEntryEP0OutCurrent,_pBDTEntryEP0OutNext
  7772  0019B6  C038  F036         	movff	_pBDTEntryEP0OutCurrent+1,_pBDTEntryEP0OutNext+1
  7773                           
  7774                           ; BSR set to: 0
  7775                           ;usb_device.c: 2006: USBActiveConfiguration = SetupPkt.bConfigurationValue;
  7776  0019BA  C232 F053          	movff	562,_USBActiveConfiguration	;volatile
  7777                           
  7778                           ; BSR set to: 0
  7779                           ;usb_device.c: 2009: if(USBActiveConfiguration == 0)
  7780  0019BE  5053               	movf	_USBActiveConfiguration,w,c	;volatile
  7781  0019C0  A4D8               	btfss	status,2,c
  7782  0019C2  D004               	goto	i2l3472
  7783                           
  7784                           ; BSR set to: 0
  7785                           ;usb_device.c: 2010: {
  7786                           ;usb_device.c: 2012: USBDeviceState = ADDRESS_STATE;
  7787  0019C4  0E10               	movlw	16
  7788  0019C6  0100               	movlb	0	; () banked
  7789  0019C8  6F99               	movwf	_USBDeviceState& (0+255),b	;volatile
  7790                           
  7791                           ;usb_device.c: 2013: }
  7792  0019CA  0012               	return	
  7793  0019CC                     i2l3472:
  7794                           
  7795                           ; BSR set to: 0
  7796                           ;usb_device.c: 2014: else
  7797                           ;usb_device.c: 2015: {
  7798                           ;usb_device.c: 2017: USER_USB_CALLBACK_EVENT_HANDLER(EVENT_CONFIGURED,(void*)&USBActiveC
      +                          onfiguration,1);
  7799  0019CC  0E00               	movlw	0
  7800  0019CE  6E0E               	movwf	USER_USB_CALLBACK_EVENT_HANDLER@event+1,c
  7801  0019D0  0E01               	movlw	1
  7802  0019D2  6E0D               	movwf	USER_USB_CALLBACK_EVENT_HANDLER@event,c
  7803  0019D4  0E53               	movlw	low _USBActiveConfiguration
  7804  0019D6  6E0F               	movwf	USER_USB_CALLBACK_EVENT_HANDLER@pdata,c
  7805  0019D8  0E00               	movlw	high _USBActiveConfiguration
  7806  0019DA  6E10               	movwf	USER_USB_CALLBACK_EVENT_HANDLER@pdata+1,c
  7807  0019DC  0E00               	movlw	0
  7808  0019DE  6E12               	movwf	USER_USB_CALLBACK_EVENT_HANDLER@size+1,c
  7809  0019E0  0E01               	movlw	1
  7810  0019E2  6E11               	movwf	USER_USB_CALLBACK_EVENT_HANDLER@size,c
  7811  0019E4  ECF1  F010         	call	_USER_USB_CALLBACK_EVENT_HANDLER	;wreg free
  7812                           
  7813                           ;usb_device.c: 2022: USBDeviceState = CONFIGURED_STATE;
  7814  0019E8  0E20               	movlw	32
  7815  0019EA  0100               	movlb	0	; () banked
  7816  0019EC  6F99               	movwf	_USBDeviceState& (0+255),b	;volatile
  7817  0019EE  0012               	return	
  7818  0019F0                     __end_of_USBStdSetCfgHandler:
  7819                           	opt stack 0
  7820                           pclatu	equ	0xFFB
  7821                           pclath	equ	0xFFA
  7822                           tblptru	equ	0xFF8
  7823                           tblptrh	equ	0xFF7
  7824                           tblptrl	equ	0xFF6
  7825                           tablat	equ	0xFF5
  7826                           prodh	equ	0xFF4
  7827                           prodl	equ	0xFF3
  7828                           intcon	equ	0xFF2
  7829                           postinc0	equ	0xFEE
  7830                           fsr0h	equ	0xFEA
  7831                           fsr0l	equ	0xFE9
  7832                           wreg	equ	0xFE8
  7833                           indf1	equ	0xFE7
  7834                           postdec1	equ	0xFE5
  7835                           fsr1h	equ	0xFE2
  7836                           fsr1l	equ	0xFE1
  7837                           indf2	equ	0xFDF
  7838                           postinc2	equ	0xFDE
  7839                           postdec2	equ	0xFDD
  7840                           plusw2	equ	0xFDB
  7841                           fsr2h	equ	0xFDA
  7842                           fsr2l	equ	0xFD9
  7843                           status	equ	0xFD8
  7844                           
  7845 ;; *************** function i2_memset *****************
  7846 ;; Defined at:
  7847 ;;		line 8 in file "C:\Program Files (x86)\Microchip\xc8\v1.42\sources\common\memset.c"
  7848 ;; Parameters:    Size  Location     Type
  7849 ;;  p1              2    0[COMRAM] PTR void 
  7850 ;;		 -> USBAlternateInterface(2), BDT(48), UEP1(1), 
  7851 ;;  c               2    2[COMRAM] int 
  7852 ;;  n               2    4[COMRAM] unsigned int 
  7853 ;; Auto vars:     Size  Location     Type
  7854 ;;  memset          2    6[COMRAM] PTR unsigned char 
  7855 ;;		 -> USBAlternateInterface(2), BDT(48), UEP1(1), 
  7856 ;; Return value:  Size  Location     Type
  7857 ;;                  2    0[COMRAM] PTR void 
  7858 ;; Registers used:
  7859 ;;		wreg, fsr2l, fsr2h, status,2, status,0
  7860 ;; Tracked objects:
  7861 ;;		On entry : 0/0
  7862 ;;		On exit  : 0/0
  7863 ;;		Unchanged: 0/0
  7864 ;; Data sizes:     COMRAM   BANK0   BANK1   BANK2
  7865 ;;      Params:         6       0       0       0
  7866 ;;      Locals:         2       0       0       0
  7867 ;;      Temps:          0       0       0       0
  7868 ;;      Totals:         8       0       0       0
  7869 ;;Total ram usage:        8 bytes
  7870 ;; Hardware stack levels used:    1
  7871 ;; This function calls:
  7872 ;;		Nothing
  7873 ;; This function is called by:
  7874 ;;		_USBStdSetCfgHandler
  7875 ;;		i2_USBDeviceInit
  7876 ;; This function uses a non-reentrant model
  7877 ;;
  7878                           
  7879                           	psect	text39
  7880  00274C                     __ptext39:
  7881                           	opt stack 0
  7882  00274C                     i2_memset:
  7883                           	opt stack 22
  7884                           
  7885                           ; BSR set to: 0
  7886                           ;incstack = 0
  7887  00274C  C001  F007         	movff	i2memset@p1,i2memset@p
  7888  002750  C002  F008         	movff	i2memset@p1+1,i2memset@p+1
  7889  002754  D008               	goto	i2l3378
  7890  002756                     i2l3374:
  7891  002756  C007  FFD9         	movff	i2memset@p,fsr2l
  7892  00275A  C008  FFDA         	movff	i2memset@p+1,fsr2h
  7893  00275E  C003  FFDF         	movff	i2memset@c,indf2
  7894  002762  4A07               	infsnz	i2memset@p,f,c
  7895  002764  2A08               	incf	i2memset@p+1,f,c
  7896  002766                     i2l3378:
  7897  002766  0605               	decf	i2memset@n,f,c
  7898  002768  A0D8               	btfss	status,0,c
  7899  00276A  0606               	decf	i2memset@n+1,f,c
  7900  00276C  2805               	incf	i2memset@n,w,c
  7901  00276E  E1F3               	bnz	i2l3374
  7902  002770  2806               	incf	i2memset@n+1,w,c
  7903  002772  B4D8               	btfsc	status,2,c
  7904  002774  0012               	return	
  7905  002776  D7EF               	goto	i2l3374
  7906  002778                     __end_ofi2_memset:
  7907                           	opt stack 0
  7908                           pclatu	equ	0xFFB
  7909                           pclath	equ	0xFFA
  7910                           tblptru	equ	0xFF8
  7911                           tblptrh	equ	0xFF7
  7912                           tblptrl	equ	0xFF6
  7913                           tablat	equ	0xFF5
  7914                           prodh	equ	0xFF4
  7915                           prodl	equ	0xFF3
  7916                           intcon	equ	0xFF2
  7917                           postinc0	equ	0xFEE
  7918                           fsr0h	equ	0xFEA
  7919                           fsr0l	equ	0xFE9
  7920                           wreg	equ	0xFE8
  7921                           indf1	equ	0xFE7
  7922                           postdec1	equ	0xFE5
  7923                           fsr1h	equ	0xFE2
  7924                           fsr1l	equ	0xFE1
  7925                           indf2	equ	0xFDF
  7926                           postinc2	equ	0xFDE
  7927                           postdec2	equ	0xFDD
  7928                           plusw2	equ	0xFDB
  7929                           fsr2h	equ	0xFDA
  7930                           fsr2l	equ	0xFD9
  7931                           status	equ	0xFD8
  7932                           
  7933 ;; *************** function _USBStdGetStatusHandler *****************
  7934 ;; Defined at:
  7935 ;;		line 2129 in file "picLibs/usb_device.c"
  7936 ;; Parameters:    Size  Location     Type
  7937 ;;		None
  7938 ;; Auto vars:     Size  Location     Type
  7939 ;;  p               2    1[COMRAM] PTR struct __BDT
  7940 ;;		 -> RAM(767), NULL(0), BDT(48), 
  7941 ;; Return value:  Size  Location     Type
  7942 ;;                  1    wreg      void 
  7943 ;; Registers used:
  7944 ;;		wreg, fsr2l, fsr2h, status,2, status,0, prodl, prodh
  7945 ;; Tracked objects:
  7946 ;;		On entry : 0/0
  7947 ;;		On exit  : 0/0
  7948 ;;		Unchanged: 0/0
  7949 ;; Data sizes:     COMRAM   BANK0   BANK1   BANK2
  7950 ;;      Params:         0       0       0       0
  7951 ;;      Locals:         2       0       0       0
  7952 ;;      Temps:          1       0       0       0
  7953 ;;      Totals:         3       0       0       0
  7954 ;;Total ram usage:        3 bytes
  7955 ;; Hardware stack levels used:    1
  7956 ;; This function calls:
  7957 ;;		Nothing
  7958 ;; This function is called by:
  7959 ;;		_USBCheckStdRequest
  7960 ;; This function uses a non-reentrant model
  7961 ;;
  7962                           
  7963                           	psect	text40
  7964  001EBA                     __ptext40:
  7965                           	opt stack 0
  7966  001EBA                     _USBStdGetStatusHandler:
  7967                           	opt stack 20
  7968                           
  7969                           ;usb_device.c: 2131: CtrlTrfData[0] = 0;
  7970                           
  7971                           ;incstack = 0
  7972  001EBA  0E00               	movlw	0
  7973  001EBC  0102               	movlb	2	; () banked
  7974  001EBE  6F38               	movwf	56,b	;volatile
  7975                           
  7976                           ;usb_device.c: 2132: CtrlTrfData[1] = 0;
  7977  001EC0  0E00               	movlw	0
  7978  001EC2  0102               	movlb	2	; () banked
  7979  001EC4  6F39               	movwf	57,b	;volatile
  7980                           
  7981                           ;usb_device.c: 2134: switch(SetupPkt.Recipient)
  7982  001EC6  D03B               	goto	i2l3528
  7983  001EC8                     i2l545:
  7984                           
  7985                           ; BSR set to: 2
  7986                           ;usb_device.c: 2137: inPipes[0].info.bits.busy = 1;
  7987  001EC8  0100               	movlb	0	; () banked
  7988  001ECA  8F75               	bsf	(_inPipes+3)& (0+255),7,b	;volatile
  7989                           
  7990                           ;usb_device.c: 2145: }
  7991                           ;usb_device.c: 2147: if(RemoteWakeup == 1)
  7992                           
  7993                           ; BSR set to: 2
  7994                           
  7995                           ; BSR set to: 0
  7996                           ;usb_device.c: 2143: {
  7997                           ;usb_device.c: 2144: CtrlTrfData[0]|=0x01;
  7998                           
  7999                           ;usb_device.c: 2142: if(0 == 1)
  8000  001ECC  0446               	decf	_RemoteWakeup,w,c	;volatile
  8001  001ECE  A4D8               	btfss	status,2,c
  8002  001ED0  D042               	goto	i2l548
  8003                           
  8004                           ;usb_device.c: 2148: {
  8005                           ;usb_device.c: 2149: CtrlTrfData[0]|=0x02;
  8006  001ED2  0102               	movlb	2	; () banked
  8007  001ED4  8338               	bsf	56,1,b	;volatile
  8008                           
  8009                           ; BSR set to: 2
  8010                           ;usb_device.c: 2150: }
  8011                           ;usb_device.c: 2151: break;
  8012  001ED6  D03F               	goto	i2l548
  8013  001ED8                     i2l549:
  8014                           
  8015                           ; BSR set to: 2
  8016                           ;usb_device.c: 2153: inPipes[0].info.bits.busy = 1;
  8017  001ED8  0100               	movlb	0	; () banked
  8018  001EDA  8F75               	bsf	(_inPipes+3)& (0+255),7,b	;volatile
  8019                           
  8020                           ;usb_device.c: 2154: break;
  8021  001EDC  D03C               	goto	i2l548
  8022  001EDE                     i2l550:
  8023                           
  8024                           ; BSR set to: 2
  8025                           ;usb_device.c: 2156: inPipes[0].info.bits.busy = 1;
  8026  001EDE  0100               	movlb	0	; () banked
  8027  001EE0  8F75               	bsf	(_inPipes+3)& (0+255),7,b	;volatile
  8028                           
  8029                           ;usb_device.c: 2160: {
  8030                           ;usb_device.c: 2161: BDT_ENTRY *p;
  8031                           ;usb_device.c: 2163: if(SetupPkt.EPDir == 0)
  8032  001EE2  0102               	movlb	2	; () banked
  8033  001EE4  BF34               	btfsc	52,7,b	;volatile
  8034  001EE6  D00B               	goto	i2l3518
  8035                           
  8036                           ; BSR set to: 2
  8037                           ;usb_device.c: 2164: {
  8038                           ;usb_device.c: 2165: p = (BDT_ENTRY*)pBDTEntryOut[SetupPkt.EPNum];
  8039  001EE8  0102               	movlb	2	; () banked
  8040  001EEA  5134               	movf	52,w,b	;volatile
  8041  001EEC  0B0F               	andlw	15
  8042  001EEE  6E01               	movwf	??_USBStdGetStatusHandler& (0+255),c
  8043  001EF0  5001               	movf	??_USBStdGetStatusHandler,w,c
  8044  001EF2  0D02               	mullw	2
  8045  001EF4  0E7E               	movlw	low _pBDTEntryOut
  8046  001EF6  24F3               	addwf	prodl,w,c
  8047  001EF8  6ED9               	movwf	fsr2l,c
  8048  001EFA  0E00               	movlw	high _pBDTEntryOut
  8049  001EFC  D00A               	goto	L5
  8050  001EFE                     i2l3518:
  8051                           
  8052                           ; BSR set to: 2
  8053                           ;usb_device.c: 2167: else
  8054                           ;usb_device.c: 2168: {
  8055                           ;usb_device.c: 2169: p = (BDT_ENTRY*)pBDTEntryIn[SetupPkt.EPNum];
  8056  001EFE  0102               	movlb	2	; () banked
  8057  001F00  5134               	movf	52,w,b	;volatile
  8058  001F02  0B0F               	andlw	15
  8059  001F04  6E01               	movwf	??_USBStdGetStatusHandler& (0+255),c
  8060  001F06  5001               	movf	??_USBStdGetStatusHandler,w,c
  8061  001F08  0D02               	mullw	2
  8062  001F0A  0E78               	movlw	low _pBDTEntryIn
  8063  001F0C  24F3               	addwf	prodl,w,c
  8064  001F0E  6ED9               	movwf	fsr2l,c
  8065  001F10  0E00               	movlw	high _pBDTEntryIn
  8066  001F12                     L5:
  8067  001F12  20F4               	addwfc	prodh,w,c
  8068  001F14  6EDA               	movwf	fsr2h,c
  8069  001F16  CFDE F002          	movff	postinc2,USBStdGetStatusHandler@p
  8070  001F1A  CFDD F003          	movff	postdec2,USBStdGetStatusHandler@p+1
  8071                           
  8072                           ; BSR set to: 2
  8073                           ;usb_device.c: 2170: }
  8074                           ;usb_device.c: 2172: if((p->STAT.UOWN == 1) && (p->STAT.BSTALL == 1))
  8075                           
  8076                           ; BSR set to: 2
  8077  001F1E  C002  FFD9         	movff	USBStdGetStatusHandler@p,fsr2l
  8078  001F22  C003  FFDA         	movff	USBStdGetStatusHandler@p+1,fsr2h
  8079  001F26  AEDF               	btfss	indf2,7,c
  8080  001F28  D016               	goto	i2l548
  8081                           
  8082                           ; BSR set to: 2
  8083  001F2A  C002  FFD9         	movff	USBStdGetStatusHandler@p,fsr2l
  8084  001F2E  C003  FFDA         	movff	USBStdGetStatusHandler@p+1,fsr2h
  8085  001F32  A4DF               	btfss	indf2,2,c
  8086  001F34  D010               	goto	i2l548
  8087                           
  8088                           ; BSR set to: 2
  8089                           ;usb_device.c: 2173: CtrlTrfData[0]=0x01;
  8090  001F36  0E01               	movlw	1
  8091  001F38  0102               	movlb	2	; () banked
  8092  001F3A  6F38               	movwf	56,b	;volatile
  8093                           
  8094                           ; BSR set to: 2
  8095                           ;usb_device.c: 2175: }
  8096                           ;usb_device.c: 2176: }
  8097                           
  8098                           ; BSR set to: 2
  8099                           ;usb_device.c: 2174: break;
  8100  001F3C  D00C               	goto	i2l548
  8101  001F3E                     i2l3528:
  8102                           
  8103                           ; BSR set to: 2
  8104  001F3E  0102               	movlb	2	; () banked
  8105  001F40  5130               	movf	48,w,b	;volatile
  8106  001F42  0B1F               	andlw	31
  8107                           
  8108                           ; Switch size 1, requested type "space"
  8109                           ; Number of cases is 3, Range of values is 0 to 2
  8110                           ; switch strategies available:
  8111                           ; Name         Instructions Cycles
  8112                           ; simple_byte           10     6 (average)
  8113                           ;	Chosen strategy is simple_byte
  8114  001F44  0A00               	xorlw	0	; case 0
  8115  001F46  B4D8               	btfsc	status,2,c
  8116  001F48  D7BF               	goto	i2l545
  8117  001F4A  0A01               	xorlw	1	; case 1
  8118  001F4C  B4D8               	btfsc	status,2,c
  8119  001F4E  D7C4               	goto	i2l549
  8120  001F50  0A03               	xorlw	3	; case 2
  8121  001F52  B4D8               	btfsc	status,2,c
  8122  001F54  D7C4               	goto	i2l550
  8123  001F56                     i2l548:
  8124                           
  8125                           ;usb_device.c: 2178: if(inPipes[0].info.bits.busy == 1)
  8126  001F56  0100               	movlb	0	; () banked
  8127  001F58  AF75               	btfss	(_inPipes+3)& (0+255),7,b	;volatile
  8128  001F5A  0012               	return	
  8129                           
  8130                           ; BSR set to: 0
  8131                           ;usb_device.c: 2179: {
  8132                           ;usb_device.c: 2180: inPipes[0].pSrc.bRam = (uint8_t*)&CtrlTrfData;
  8133  001F5C  0E38               	movlw	56
  8134  001F5E  0100               	movlb	0	; () banked
  8135  001F60  6F72               	movwf	_inPipes& (0+255),b	;volatile
  8136  001F62  0E02               	movlw	2
  8137  001F64  0100               	movlb	0	; () banked
  8138  001F66  6F73               	movwf	(_inPipes+1)& (0+255),b	;volatile
  8139                           
  8140                           ; BSR set to: 0
  8141                           ;usb_device.c: 2181: inPipes[0].info.bits.ctrl_trf_mem = 0x01;
  8142  001F68  0100               	movlb	0	; () banked
  8143  001F6A  8175               	bsf	(_inPipes+3)& (0+255),0,b	;volatile
  8144                           
  8145                           ; BSR set to: 0
  8146                           ;usb_device.c: 2182: inPipes[0].wCount.v[0] = 2;
  8147  001F6C  0E02               	movlw	2
  8148  001F6E  0100               	movlb	0	; () banked
  8149  001F70  6F76               	movwf	(_inPipes+4)& (0+255),b	;volatile
  8150  001F72  0012               	return	
  8151  001F74                     __end_of_USBStdGetStatusHandler:
  8152                           	opt stack 0
  8153                           pclatu	equ	0xFFB
  8154                           pclath	equ	0xFFA
  8155                           tblptru	equ	0xFF8
  8156                           tblptrh	equ	0xFF7
  8157                           tblptrl	equ	0xFF6
  8158                           tablat	equ	0xFF5
  8159                           prodh	equ	0xFF4
  8160                           prodl	equ	0xFF3
  8161                           intcon	equ	0xFF2
  8162                           postinc0	equ	0xFEE
  8163                           fsr0h	equ	0xFEA
  8164                           fsr0l	equ	0xFE9
  8165                           wreg	equ	0xFE8
  8166                           indf1	equ	0xFE7
  8167                           postdec1	equ	0xFE5
  8168                           fsr1h	equ	0xFE2
  8169                           fsr1l	equ	0xFE1
  8170                           indf2	equ	0xFDF
  8171                           postinc2	equ	0xFDE
  8172                           postdec2	equ	0xFDD
  8173                           plusw2	equ	0xFDB
  8174                           fsr2h	equ	0xFDA
  8175                           fsr2l	equ	0xFD9
  8176                           status	equ	0xFD8
  8177                           
  8178 ;; *************** function _USBStdGetDscHandler *****************
  8179 ;; Defined at:
  8180 ;;		line 2043 in file "picLibs/usb_device.c"
  8181 ;; Parameters:    Size  Location     Type
  8182 ;;		None
  8183 ;; Auto vars:     Size  Location     Type
  8184 ;;		None
  8185 ;; Return value:  Size  Location     Type
  8186 ;;                  1    wreg      void 
  8187 ;; Registers used:
  8188 ;;		wreg, fsr1l, fsr1h, status,2, status,0, tblptrl, tblptrh, tblptru, prodl, prodh
  8189 ;; Tracked objects:
  8190 ;;		On entry : 0/0
  8191 ;;		On exit  : 0/0
  8192 ;;		Unchanged: 0/0
  8193 ;; Data sizes:     COMRAM   BANK0   BANK1   BANK2
  8194 ;;      Params:         0       0       0       0
  8195 ;;      Locals:         0       0       0       0
  8196 ;;      Temps:          2       0       0       0
  8197 ;;      Totals:         2       0       0       0
  8198 ;;Total ram usage:        2 bytes
  8199 ;; Hardware stack levels used:    1
  8200 ;; This function calls:
  8201 ;;		Nothing
  8202 ;; This function is called by:
  8203 ;;		_USBCheckStdRequest
  8204 ;; This function uses a non-reentrant model
  8205 ;;
  8206                           
  8207                           	psect	text41
  8208  001062                     __ptext41:
  8209                           	opt stack 0
  8210  001062                     _USBStdGetDscHandler:
  8211                           	opt stack 20
  8212                           
  8213                           ;usb_device.c: 2045: if(SetupPkt.bmRequestType == 0x80)
  8214                           
  8215                           ; BSR set to: 0
  8216                           ;incstack = 0
  8217  001062  0E80               	movlw	128
  8218  001064  0102               	movlb	2	; () banked
  8219  001066  1930               	xorwf	48,w,b	;volatile
  8220  001068  A4D8               	btfss	status,2,c
  8221  00106A  0012               	return	
  8222                           
  8223                           ; BSR set to: 2
  8224                           ;usb_device.c: 2046: {
  8225                           ;usb_device.c: 2047: inPipes[0].info.Val = 0x00 | 0x80 | 0x40;
  8226  00106C  0EC0               	movlw	192
  8227  00106E  0100               	movlb	0	; () banked
  8228  001070  6F75               	movwf	(_inPipes+3)& (0+255),b	;volatile
  8229                           
  8230                           ;usb_device.c: 2049: switch(SetupPkt.bDescriptorType)
  8231  001072  D089               	goto	i2l3506
  8232  001074                     i2l3480:
  8233                           
  8234                           ;usb_device.c: 2055: inPipes[0].pSrc.bRom = (const uint8_t*)&device_dsc;
  8235  001074  0EB4               	movlw	low _device_dsc
  8236  001076  0100               	movlb	0	; () banked
  8237  001078  6F72               	movwf	_inPipes& (0+255),b	;volatile
  8238  00107A  0E03               	movlw	high _device_dsc
  8239  00107C  0100               	movlb	0	; () banked
  8240  00107E  6F73               	movwf	(_inPipes+1)& (0+255),b	;volatile
  8241                           
  8242                           ; BSR set to: 0
  8243                           ;usb_device.c: 2057: inPipes[0].wCount.Val = sizeof(device_dsc);
  8244  001080  0E00               	movlw	0
  8245  001082  0100               	movlb	0	; () banked
  8246  001084  6F77               	movwf	(_inPipes+5)& (0+255),b	;volatile
  8247  001086  0E12               	movlw	18
  8248  001088  6F76               	movwf	(_inPipes+4)& (0+255),b	;volatile
  8249                           
  8250                           ;usb_device.c: 2058: break;
  8251  00108A  0012               	return	
  8252  00108C                     i2l3484:
  8253                           
  8254                           ;usb_device.c: 2063: if(SetupPkt.bDscIndex < 1)
  8255  00108C  0102               	movlb	2	; () banked
  8256  00108E  5132               	movf	50,w,b	;volatile
  8257  001090  A4D8               	btfss	status,2,c
  8258  001092  D044               	goto	i2l3492
  8259                           
  8260                           ; BSR set to: 2
  8261                           ;usb_device.c: 2064: {
  8262                           ;usb_device.c: 2068: inPipes[0].pSrc.bRom = *(USB_CD_Ptr+SetupPkt.bDscIndex);
  8263  001094  0102               	movlb	2	; () banked
  8264  001096  5132               	movf	50,w,b	;volatile
  8265  001098  0D02               	mullw	2
  8266  00109A  0E07               	movlw	low _USB_CD_Ptr
  8267  00109C  24F3               	addwf	prodl,w,c
  8268  00109E  6EF6               	movwf	tblptrl,c
  8269  0010A0  0E03               	movlw	high _USB_CD_Ptr
  8270  0010A2  20F4               	addwfc	prodh,w,c
  8271  0010A4  6EF7               	movwf	tblptrh,c
  8272  0010A6                     	if	0	;There are less than 3 active tblptr bytes
  8273  0010A6                     	endif
  8274  0010A6  0009               	tblrd		*+
  8275  0010A8  CFF5 F072          	movff	tablat,_inPipes	;volatile
  8276  0010AC  000A               	tblrd		*-
  8277  0010AE  CFF5 F073          	movff	tablat,_inPipes+1	;volatile
  8278                           
  8279                           ; BSR set to: 2
  8280                           ;usb_device.c: 2074: inPipes[0].wCount.byte.LB = *(inPipes[0].pSrc.bRom+2);
  8281  0010B2  0E02               	movlw	2
  8282  0010B4  0100               	movlb	0	; () banked
  8283  0010B6  2572               	addwf	_inPipes& (0+255),w,b	;volatile
  8284  0010B8  6E01               	movwf	??_USBStdGetDscHandler& (0+255),c
  8285  0010BA  0E00               	movlw	0
  8286  0010BC  0100               	movlb	0	; () banked
  8287  0010BE  2173               	addwfc	(_inPipes+1)& (0+255),w,b	;volatile
  8288  0010C0  6E02               	movwf	(??_USBStdGetDscHandler+1)& (0+255),c
  8289  0010C2  C001  FFF6         	movff	??_USBStdGetDscHandler,tblptrl
  8290  0010C6  C002  FFF7         	movff	??_USBStdGetDscHandler+1,tblptrh
  8291  0010CA  6AF8               	clrf	tblptru,c
  8292  0010CC  0E02               	movlw	(high __ramtop+-1)
  8293  0010CE  64F7               	cpfsgt	tblptrh,c
  8294  0010D0  D003               	bra	i2u237_47
  8295  0010D2  0008               	tblrd		*
  8296  0010D4  50F5               	movf	tablat,w,c
  8297  0010D6  D005               	bra	i2u237_40
  8298  0010D8                     i2u237_47:
  8299  0010D8  CFF6 FFE1          	movff	tblptrl,fsr1l
  8300  0010DC  CFF7 FFE2          	movff	tblptrh,fsr1h
  8301  0010E0  50E7               	movf	indf1,w,c
  8302  0010E2                     i2u237_40:
  8303  0010E2  0100               	movlb	0	; () banked
  8304  0010E4  6F76               	movwf	(_inPipes+4)& (0+255),b	;volatile
  8305                           
  8306                           ; BSR set to: 0
  8307                           ;usb_device.c: 2075: inPipes[0].wCount.byte.HB = *(inPipes[0].pSrc.bRom+3);
  8308  0010E6  0E03               	movlw	3
  8309  0010E8  0100               	movlb	0	; () banked
  8310  0010EA  2572               	addwf	_inPipes& (0+255),w,b	;volatile
  8311  0010EC  6E01               	movwf	??_USBStdGetDscHandler& (0+255),c
  8312  0010EE  0E00               	movlw	0
  8313  0010F0  0100               	movlb	0	; () banked
  8314  0010F2  2173               	addwfc	(_inPipes+1)& (0+255),w,b	;volatile
  8315  0010F4  6E02               	movwf	(??_USBStdGetDscHandler+1)& (0+255),c
  8316  0010F6  C001  FFF6         	movff	??_USBStdGetDscHandler,tblptrl
  8317  0010FA  C002  FFF7         	movff	??_USBStdGetDscHandler+1,tblptrh
  8318  0010FE  6AF8               	clrf	tblptru,c
  8319  001100  0E02               	movlw	(high __ramtop+-1)
  8320  001102  64F7               	cpfsgt	tblptrh,c
  8321  001104  D003               	bra	i2u238_47
  8322  001106  0008               	tblrd		*
  8323  001108  50F5               	movf	tablat,w,c
  8324  00110A  D005               	bra	i2u238_40
  8325  00110C                     i2u238_47:
  8326  00110C  CFF6 FFE1          	movff	tblptrl,fsr1l
  8327  001110  CFF7 FFE2          	movff	tblptrh,fsr1h
  8328  001114  50E7               	movf	indf1,w,c
  8329  001116                     i2u238_40:
  8330  001116  0100               	movlb	0	; () banked
  8331  001118  6F77               	movwf	(_inPipes+5)& (0+255),b	;volatile
  8332                           
  8333                           ;usb_device.c: 2076: }
  8334  00111A  0012               	return	
  8335  00111C                     i2l3492:
  8336                           
  8337                           ;usb_device.c: 2077: else
  8338                           ;usb_device.c: 2078: {
  8339                           ;usb_device.c: 2079: inPipes[0].info.Val = 0;
  8340  00111C  0E00               	movlw	0
  8341  00111E  0100               	movlb	0	; () banked
  8342  001120  6F75               	movwf	(_inPipes+3)& (0+255),b	;volatile
  8343                           
  8344                           ; BSR set to: 0
  8345                           ;usb_device.c: 2080: }
  8346                           ;usb_device.c: 2081: break;
  8347  001122  0012               	return	
  8348  001124                     i2l3494:
  8349                           
  8350                           ;usb_device.c: 2086: if(SetupPkt.bDscIndex<3)
  8351  001124  0E03               	movlw	3
  8352  001126  0102               	movlb	2	; () banked
  8353  001128  6132               	cpfslt	50,b	;volatile
  8354  00112A  D025               	goto	i2l3500
  8355                           
  8356                           ; BSR set to: 2
  8357                           ;usb_device.c: 2087: {
  8358                           ;usb_device.c: 2089: inPipes[0].pSrc.bRom = *(USB_SD_Ptr+SetupPkt.bDscIndex);
  8359  00112C  0102               	movlb	2	; () banked
  8360  00112E  5132               	movf	50,w,b	;volatile
  8361  001130  0D02               	mullw	2
  8362  001132  0E01               	movlw	low _USB_SD_Ptr
  8363  001134  24F3               	addwf	prodl,w,c
  8364  001136  6EF6               	movwf	tblptrl,c
  8365  001138  0E03               	movlw	high _USB_SD_Ptr
  8366  00113A  20F4               	addwfc	prodh,w,c
  8367  00113C  6EF7               	movwf	tblptrh,c
  8368  00113E                     	if	0	;There are less than 3 active tblptr bytes
  8369  00113E                     	endif
  8370  00113E  0009               	tblrd		*+
  8371  001140  CFF5 F072          	movff	tablat,_inPipes	;volatile
  8372  001144  000A               	tblrd		*-
  8373  001146  CFF5 F073          	movff	tablat,_inPipes+1	;volatile
  8374                           
  8375                           ; BSR set to: 2
  8376                           ;usb_device.c: 2091: inPipes[0].wCount.Val = *inPipes[0].pSrc.bRom;
  8377  00114A  C072  FFF6         	movff	_inPipes,tblptrl	;volatile
  8378  00114E  C073  FFF7         	movff	_inPipes+1,tblptrh	;volatile
  8379  001152  6AF8               	clrf	tblptru,c
  8380  001154  0E02               	movlw	(high __ramtop+-1)
  8381  001156  64F7               	cpfsgt	tblptrh,c
  8382  001158  D003               	bra	i2u240_47
  8383  00115A  0008               	tblrd		*
  8384  00115C  50F5               	movf	tablat,w,c
  8385  00115E  D005               	bra	i2u240_40
  8386  001160                     i2u240_47:
  8387  001160  CFF6 FFE1          	movff	tblptrl,fsr1l
  8388  001164  CFF7 FFE2          	movff	tblptrh,fsr1h
  8389  001168  50E7               	movf	indf1,w,c
  8390  00116A                     i2u240_40:
  8391  00116A  6E01               	movwf	??_USBStdGetDscHandler& (0+255),c
  8392  00116C  5001               	movf	??_USBStdGetDscHandler,w,c
  8393  00116E  0100               	movlb	0	; () banked
  8394  001170  6F76               	movwf	(_inPipes+4)& (0+255),b	;volatile
  8395  001172  6B77               	clrf	(_inPipes+5)& (0+255),b	;volatile
  8396                           
  8397                           ;usb_device.c: 2092: }
  8398  001174  0012               	return	
  8399  001176                     i2l3500:
  8400                           
  8401                           ;usb_device.c: 2102: else
  8402                           ;usb_device.c: 2103: {
  8403                           ;usb_device.c: 2104: inPipes[0].info.Val = 0;
  8404  001176  0E00               	movlw	0
  8405  001178  0100               	movlb	0	; () banked
  8406  00117A  6F75               	movwf	(_inPipes+3)& (0+255),b	;volatile
  8407                           
  8408                           ; BSR set to: 0
  8409                           ;usb_device.c: 2105: }
  8410                           ;usb_device.c: 2106: break;
  8411  00117C  0012               	return	
  8412  00117E                     i2l3502:
  8413                           
  8414                           ;usb_device.c: 2108: inPipes[0].info.Val = 0;
  8415  00117E  0E00               	movlw	0
  8416  001180  0100               	movlb	0	; () banked
  8417  001182  6F75               	movwf	(_inPipes+3)& (0+255),b	;volatile
  8418                           
  8419                           ; BSR set to: 0
  8420                           ;usb_device.c: 2110: }
  8421                           
  8422                           ;usb_device.c: 2109: break;
  8423  001184  0012               	return	
  8424  001186                     i2l3506:
  8425                           
  8426                           ; BSR set to: 0
  8427  001186  0102               	movlb	2	; () banked
  8428  001188  5133               	movf	51,w,b	;volatile
  8429                           
  8430                           ; Switch size 1, requested type "space"
  8431                           ; Number of cases is 3, Range of values is 1 to 3
  8432                           ; switch strategies available:
  8433                           ; Name         Instructions Cycles
  8434                           ; simple_byte           10     6 (average)
  8435                           ;	Chosen strategy is simple_byte
  8436  00118A  0A01               	xorlw	1	; case 1
  8437  00118C  B4D8               	btfsc	status,2,c
  8438  00118E  D772               	goto	i2l3480
  8439  001190  0A03               	xorlw	3	; case 2
  8440  001192  B4D8               	btfsc	status,2,c
  8441  001194  D77B               	goto	i2l3484
  8442  001196  0A01               	xorlw	1	; case 3
  8443  001198  B4D8               	btfsc	status,2,c
  8444  00119A  D7C4               	goto	i2l3494
  8445  00119C  D7F0               	goto	i2l3502
  8446  00119E                     __end_of_USBStdGetDscHandler:
  8447                           	opt stack 0
  8448                           pclatu	equ	0xFFB
  8449                           pclath	equ	0xFFA
  8450                           tblptru	equ	0xFF8
  8451                           tblptrh	equ	0xFF7
  8452                           tblptrl	equ	0xFF6
  8453                           tablat	equ	0xFF5
  8454                           prodh	equ	0xFF4
  8455                           prodl	equ	0xFF3
  8456                           intcon	equ	0xFF2
  8457                           postinc0	equ	0xFEE
  8458                           fsr0h	equ	0xFEA
  8459                           fsr0l	equ	0xFE9
  8460                           wreg	equ	0xFE8
  8461                           indf1	equ	0xFE7
  8462                           postdec1	equ	0xFE5
  8463                           fsr1h	equ	0xFE2
  8464                           fsr1l	equ	0xFE1
  8465                           indf2	equ	0xFDF
  8466                           postinc2	equ	0xFDE
  8467                           postdec2	equ	0xFDD
  8468                           plusw2	equ	0xFDB
  8469                           fsr2h	equ	0xFDA
  8470                           fsr2l	equ	0xFD9
  8471                           status	equ	0xFD8
  8472                           
  8473 ;; *************** function _USBStdFeatureReqHandler *****************
  8474 ;; Defined at:
  8475 ;;		line 2754 in file "picLibs/usb_device.c"
  8476 ;; Parameters:    Size  Location     Type
  8477 ;;		None
  8478 ;; Auto vars:     Size  Location     Type
  8479 ;;  p               2   24[COMRAM] PTR struct __BDT
  8480 ;;		 -> RAM(767), NULL(0), BDT(48), 
  8481 ;;  pUEP            2   21[COMRAM] PTR unsigned char 
  8482 ;;		 -> UEP0(1), 
  8483 ;;  current_ep_d    1   23[COMRAM] struct .
  8484 ;; Return value:  Size  Location     Type
  8485 ;;                  1    wreg      void 
  8486 ;; Registers used:
  8487 ;;		wreg, fsr2l, fsr2h, status,2, status,0, prodl, prodh, cstack
  8488 ;; Tracked objects:
  8489 ;;		On entry : 0/0
  8490 ;;		On exit  : 0/0
  8491 ;;		Unchanged: 0/0
  8492 ;; Data sizes:     COMRAM   BANK0   BANK1   BANK2
  8493 ;;      Params:         0       0       0       0
  8494 ;;      Locals:         5       0       0       0
  8495 ;;      Temps:          1       0       0       0
  8496 ;;      Totals:         6       0       0       0
  8497 ;;Total ram usage:        6 bytes
  8498 ;; Hardware stack levels used:    1
  8499 ;; Hardware stack levels required when called:    4
  8500 ;; This function calls:
  8501 ;;		_USER_USB_CALLBACK_EVENT_HANDLER
  8502 ;; This function is called by:
  8503 ;;		_USBCheckStdRequest
  8504 ;; This function uses a non-reentrant model
  8505 ;;
  8506                           
  8507                           	psect	text42
  8508  0003D8                     __ptext42:
  8509                           	opt stack 0
  8510  0003D8                     _USBStdFeatureReqHandler:
  8511                           	opt stack 16
  8512                           
  8513                           ;usb_device.c: 2756: BDT_ENTRY *p;
  8514                           ;usb_device.c: 2757: EP_STATUS current_ep_data;
  8515                           ;usb_device.c: 2761: unsigned char* pUEP;
  8516                           ;usb_device.c: 2799: if((SetupPkt.bFeature == 1)&&
  8517                           ;usb_device.c: 2800: (SetupPkt.Recipient == (0x00)))
  8518                           
  8519                           ;incstack = 0
  8520  0003D8  0102               	movlb	2	; () banked
  8521  0003DA  0532               	decf	50,w,b	;volatile
  8522  0003DC  A4D8               	btfss	status,2,c
  8523  0003DE  D011               	goto	i2l622
  8524                           
  8525                           ; BSR set to: 2
  8526  0003E0  0102               	movlb	2	; () banked
  8527  0003E2  5130               	movf	48,w,b	;volatile
  8528  0003E4  0B1F               	andlw	31
  8529  0003E6  0900               	iorlw	0
  8530  0003E8  A4D8               	btfss	status,2,c
  8531  0003EA  D00B               	goto	i2l622
  8532                           
  8533                           ; BSR set to: 2
  8534                           ;usb_device.c: 2801: {
  8535                           ;usb_device.c: 2802: inPipes[0].info.bits.busy = 1;
  8536  0003EC  0100               	movlb	0	; () banked
  8537  0003EE  8F75               	bsf	(_inPipes+3)& (0+255),7,b	;volatile
  8538                           
  8539                           ; BSR set to: 0
  8540                           ;usb_device.c: 2803: if(SetupPkt.bRequest == 3)
  8541  0003F0  0E03               	movlw	3
  8542  0003F2  0102               	movlb	2	; () banked
  8543  0003F4  1931               	xorwf	49,w,b	;volatile
  8544  0003F6  A4D8               	btfss	status,2,c
  8545  0003F8  D002               	goto	i2l3546
  8546                           
  8547                           ; BSR set to: 2
  8548                           ;usb_device.c: 2804: RemoteWakeup = 1;
  8549  0003FA  0E01               	movlw	1
  8550  0003FC  D001               	goto	L6
  8551  0003FE                     i2l3546:
  8552                           
  8553                           ; BSR set to: 2
  8554                           ;usb_device.c: 2805: else
  8555                           ;usb_device.c: 2806: RemoteWakeup = 0;
  8556  0003FE  0E00               	movlw	0
  8557  000400                     L6:
  8558  000400  6E46               	movwf	_RemoteWakeup,c	;volatile
  8559  000402                     i2l622:
  8560                           
  8561                           ; BSR set to: 2
  8562                           ;usb_device.c: 2807: }
  8563                           ;usb_device.c: 2810: if((SetupPkt.bFeature == 0)&&
  8564                           ;usb_device.c: 2811: (SetupPkt.Recipient == (0x02))&&
  8565                           ;usb_device.c: 2812: (SetupPkt.EPNum != 0) && (SetupPkt.EPNum <= 2)&&
  8566                           ;usb_device.c: 2813: (USBDeviceState == CONFIGURED_STATE))
  8567  000402  0102               	movlb	2	; () banked
  8568  000404  5132               	movf	50,w,b	;volatile
  8569  000406  A4D8               	btfss	status,2,c
  8570  000408  0012               	return	
  8571                           
  8572                           ; BSR set to: 2
  8573  00040A  0102               	movlb	2	; () banked
  8574  00040C  5130               	movf	48,w,b	;volatile
  8575  00040E  0B1F               	andlw	31
  8576  000410  0A02               	xorlw	2
  8577  000412  A4D8               	btfss	status,2,c
  8578  000414  0012               	return	
  8579                           
  8580                           ; BSR set to: 2
  8581  000416  0102               	movlb	2	; () banked
  8582  000418  5134               	movf	52,w,b	;volatile
  8583  00041A  0B0F               	andlw	15
  8584  00041C  0900               	iorlw	0
  8585  00041E  B4D8               	btfsc	status,2,c
  8586  000420  0012               	return	
  8587                           
  8588                           ; BSR set to: 2
  8589  000422  0102               	movlb	2	; () banked
  8590  000424  5134               	movf	52,w,b	;volatile
  8591  000426  0B0F               	andlw	15
  8592  000428  6E15               	movwf	??_USBStdFeatureReqHandler& (0+255),c
  8593  00042A  0E03               	movlw	3
  8594  00042C  6015               	cpfslt	??_USBStdFeatureReqHandler,c
  8595  00042E  0012               	return	
  8596                           
  8597                           ; BSR set to: 2
  8598  000430  0E20               	movlw	32
  8599  000432  0100               	movlb	0	; () banked
  8600  000434  1999               	xorwf	_USBDeviceState& (0+255),w,b	;volatile
  8601  000436  A4D8               	btfss	status,2,c
  8602  000438  0012               	return	
  8603                           
  8604                           ; BSR set to: 0
  8605                           ;usb_device.c: 2814: {
  8606                           ;usb_device.c: 2817: inPipes[0].info.bits.busy = 1;
  8607  00043A  0100               	movlb	0	; () banked
  8608  00043C  8F75               	bsf	(_inPipes+3)& (0+255),7,b	;volatile
  8609                           
  8610                           ;usb_device.c: 2820: if(SetupPkt.EPDir == 0)
  8611  00043E  0102               	movlb	2	; () banked
  8612  000440  BF34               	btfsc	52,7,b	;volatile
  8613  000442  D01B               	goto	i2l3560
  8614                           
  8615                           ; BSR set to: 2
  8616                           ;usb_device.c: 2821: {
  8617                           ;usb_device.c: 2822: p = (BDT_ENTRY*)pBDTEntryOut[SetupPkt.EPNum];
  8618  000444  0102               	movlb	2	; () banked
  8619  000446  5134               	movf	52,w,b	;volatile
  8620  000448  0B0F               	andlw	15
  8621  00044A  6E15               	movwf	??_USBStdFeatureReqHandler& (0+255),c
  8622  00044C  5015               	movf	??_USBStdFeatureReqHandler,w,c
  8623  00044E  0D02               	mullw	2
  8624  000450  0E7E               	movlw	low _pBDTEntryOut
  8625  000452  24F3               	addwf	prodl,w,c
  8626  000454  6ED9               	movwf	fsr2l,c
  8627  000456  0E00               	movlw	high _pBDTEntryOut
  8628  000458  20F4               	addwfc	prodh,w,c
  8629  00045A  6EDA               	movwf	fsr2h,c
  8630  00045C  CFDE F019          	movff	postinc2,USBStdFeatureReqHandler@p
  8631  000460  CFDD F01A          	movff	postdec2,USBStdFeatureReqHandler@p+1
  8632                           
  8633                           ;usb_device.c: 2823: current_ep_data.Val = ep_data_out[SetupPkt.EPNum].Val;
  8634  000464  0102               	movlb	2	; () banked
  8635  000466  5134               	movf	52,w,b	;volatile
  8636  000468  0B0F               	andlw	15
  8637  00046A  6E15               	movwf	??_USBStdFeatureReqHandler& (0+255),c
  8638  00046C  5015               	movf	??_USBStdFeatureReqHandler,w,c
  8639  00046E  0D01               	mullw	1
  8640  000470  0E8A               	movlw	low _ep_data_out
  8641  000472  24F3               	addwf	prodl,w,c
  8642  000474  6ED9               	movwf	fsr2l,c
  8643  000476  0E00               	movlw	high _ep_data_out
  8644  000478  D01A               	goto	L7
  8645  00047A                     i2l3560:
  8646                           
  8647                           ; BSR set to: 2
  8648                           ;usb_device.c: 2825: else
  8649                           ;usb_device.c: 2826: {
  8650                           ;usb_device.c: 2827: p = (BDT_ENTRY*)pBDTEntryIn[SetupPkt.EPNum];
  8651  00047A  0102               	movlb	2	; () banked
  8652  00047C  5134               	movf	52,w,b	;volatile
  8653  00047E  0B0F               	andlw	15
  8654  000480  6E15               	movwf	??_USBStdFeatureReqHandler& (0+255),c
  8655  000482  5015               	movf	??_USBStdFeatureReqHandler,w,c
  8656  000484  0D02               	mullw	2
  8657  000486  0E78               	movlw	low _pBDTEntryIn
  8658  000488  24F3               	addwf	prodl,w,c
  8659  00048A  6ED9               	movwf	fsr2l,c
  8660  00048C  0E00               	movlw	high _pBDTEntryIn
  8661  00048E  20F4               	addwfc	prodh,w,c
  8662  000490  6EDA               	movwf	fsr2h,c
  8663  000492  CFDE F019          	movff	postinc2,USBStdFeatureReqHandler@p
  8664  000496  CFDD F01A          	movff	postdec2,USBStdFeatureReqHandler@p+1
  8665                           
  8666                           ;usb_device.c: 2828: current_ep_data.Val = ep_data_in[SetupPkt.EPNum].Val;
  8667  00049A  0102               	movlb	2	; () banked
  8668  00049C  5134               	movf	52,w,b	;volatile
  8669  00049E  0B0F               	andlw	15
  8670  0004A0  6E15               	movwf	??_USBStdFeatureReqHandler& (0+255),c
  8671  0004A2  5015               	movf	??_USBStdFeatureReqHandler,w,c
  8672  0004A4  0D01               	mullw	1
  8673  0004A6  0E8D               	movlw	low _ep_data_in
  8674  0004A8  24F3               	addwf	prodl,w,c
  8675  0004AA  6ED9               	movwf	fsr2l,c
  8676  0004AC  0E00               	movlw	high _ep_data_in
  8677  0004AE                     L7:
  8678  0004AE  20F4               	addwfc	prodh,w,c
  8679  0004B0  6EDA               	movwf	fsr2h,c
  8680  0004B2  50DF               	movf	indf2,w,c
  8681  0004B4  6E18               	movwf	USBStdFeatureReqHandler@current_ep_data,c
  8682                           
  8683                           ; BSR set to: 2
  8684                           ;usb_device.c: 2829: }
  8685                           ;usb_device.c: 2835: if(current_ep_data.bits.ping_pong_state == 0)
  8686                           
  8687                           ; BSR set to: 2
  8688  0004B6  B018               	btfsc	USBStdFeatureReqHandler@current_ep_data,0,c
  8689  0004B8  D006               	goto	i2l3566
  8690                           
  8691                           ; BSR set to: 2
  8692                           ;usb_device.c: 2836: {
  8693                           ;usb_device.c: 2837: p = (BDT_ENTRY*)(((uintptr_t)p) & (~0x0004));
  8694  0004BA  0EFB               	movlw	251
  8695  0004BC  1419               	andwf	USBStdFeatureReqHandler@p,w,c
  8696  0004BE  6E19               	movwf	USBStdFeatureReqHandler@p,c
  8697  0004C0  0EFF               	movlw	255
  8698  0004C2  141A               	andwf	USBStdFeatureReqHandler@p+1,w,c
  8699  0004C4  D004               	goto	L8
  8700  0004C6                     i2l3566:
  8701                           
  8702                           ; BSR set to: 2
  8703                           ;usb_device.c: 2839: else
  8704                           ;usb_device.c: 2840: {
  8705                           ;usb_device.c: 2841: p = (BDT_ENTRY*)(((uintptr_t)p) | 0x0004);
  8706  0004C6  0E04               	movlw	4
  8707  0004C8  1019               	iorwf	USBStdFeatureReqHandler@p,w,c
  8708  0004CA  6E19               	movwf	USBStdFeatureReqHandler@p,c
  8709  0004CC  501A               	movf	USBStdFeatureReqHandler@p+1,w,c
  8710  0004CE                     L8:
  8711  0004CE  6E1A               	movwf	USBStdFeatureReqHandler@p+1,c
  8712                           
  8713                           ; BSR set to: 2
  8714                           ;usb_device.c: 2842: }
  8715                           ;usb_device.c: 2847: if(SetupPkt.EPDir == 0)
  8716                           
  8717                           ; BSR set to: 2
  8718  0004D0  0102               	movlb	2	; () banked
  8719  0004D2  BF34               	btfsc	52,7,b	;volatile
  8720  0004D4  D00B               	goto	i2l3572
  8721                           
  8722                           ; BSR set to: 2
  8723                           ;usb_device.c: 2848: {
  8724                           ;usb_device.c: 2849: pBDTEntryOut[SetupPkt.EPNum] = (volatile BDT_ENTRY *)p;
  8725  0004D6  0102               	movlb	2	; () banked
  8726  0004D8  5134               	movf	52,w,b	;volatile
  8727  0004DA  0B0F               	andlw	15
  8728  0004DC  6E15               	movwf	??_USBStdFeatureReqHandler& (0+255),c
  8729  0004DE  5015               	movf	??_USBStdFeatureReqHandler,w,c
  8730  0004E0  0D02               	mullw	2
  8731  0004E2  0E7E               	movlw	low _pBDTEntryOut
  8732  0004E4  24F3               	addwf	prodl,w,c
  8733  0004E6  6ED9               	movwf	fsr2l,c
  8734  0004E8  0E00               	movlw	high _pBDTEntryOut
  8735  0004EA  D00A               	goto	L9
  8736  0004EC                     i2l3572:
  8737                           
  8738                           ; BSR set to: 2
  8739                           ;usb_device.c: 2851: else
  8740                           ;usb_device.c: 2852: {
  8741                           ;usb_device.c: 2853: pBDTEntryIn[SetupPkt.EPNum] = (volatile BDT_ENTRY *)p;
  8742  0004EC  0102               	movlb	2	; () banked
  8743  0004EE  5134               	movf	52,w,b	;volatile
  8744  0004F0  0B0F               	andlw	15
  8745  0004F2  6E15               	movwf	??_USBStdFeatureReqHandler& (0+255),c
  8746  0004F4  5015               	movf	??_USBStdFeatureReqHandler,w,c
  8747  0004F6  0D02               	mullw	2
  8748  0004F8  0E78               	movlw	low _pBDTEntryIn
  8749  0004FA  24F3               	addwf	prodl,w,c
  8750  0004FC  6ED9               	movwf	fsr2l,c
  8751  0004FE  0E00               	movlw	high _pBDTEntryIn
  8752  000500                     L9:
  8753  000500  20F4               	addwfc	prodh,w,c
  8754  000502  6EDA               	movwf	fsr2h,c
  8755  000504  C019  FFDE         	movff	USBStdFeatureReqHandler@p,postinc2
  8756  000508  C01A  FFDD         	movff	USBStdFeatureReqHandler@p+1,postdec2
  8757                           
  8758                           ; BSR set to: 2
  8759                           ;usb_device.c: 2854: }
  8760                           ;usb_device.c: 2857: if(SetupPkt.bRequest == 3)
  8761                           
  8762                           ; BSR set to: 2
  8763  00050C  0E03               	movlw	3
  8764  00050E  0102               	movlb	2	; () banked
  8765  000510  1931               	xorwf	49,w,b	;volatile
  8766  000512  A4D8               	btfss	status,2,c
  8767  000514  D02F               	goto	i2l3588
  8768                           
  8769                           ; BSR set to: 2
  8770                           ;usb_device.c: 2858: {
  8771                           ;usb_device.c: 2859: if(p->STAT.UOWN == 1)
  8772  000516  C019  FFD9         	movff	USBStdFeatureReqHandler@p,fsr2l
  8773  00051A  C01A  FFDA         	movff	USBStdFeatureReqHandler@p+1,fsr2h
  8774  00051E  AEDF               	btfss	indf2,7,c
  8775  000520  D01C               	goto	i2l3584
  8776                           
  8777                           ; BSR set to: 2
  8778                           ;usb_device.c: 2860: {
  8779                           ;usb_device.c: 2863: if(SetupPkt.EPDir == 0)
  8780  000522  0102               	movlb	2	; () banked
  8781  000524  BF34               	btfsc	52,7,b	;volatile
  8782  000526  D00B               	goto	i2l3582
  8783                           
  8784                           ; BSR set to: 2
  8785                           ;usb_device.c: 2864: {
  8786                           ;usb_device.c: 2865: ep_data_out[SetupPkt.EPNum].bits.transfer_terminated = 1;
  8787  000528  0102               	movlb	2	; () banked
  8788  00052A  5134               	movf	52,w,b	;volatile
  8789  00052C  0B0F               	andlw	15
  8790  00052E  6E15               	movwf	??_USBStdFeatureReqHandler& (0+255),c
  8791  000530  5015               	movf	??_USBStdFeatureReqHandler,w,c
  8792  000532  0D01               	mullw	1
  8793  000534  0E8A               	movlw	low _ep_data_out
  8794  000536  24F3               	addwf	prodl,w,c
  8795  000538  6ED9               	movwf	fsr2l,c
  8796  00053A  0E00               	movlw	high _ep_data_out
  8797  00053C  D00A               	goto	L10
  8798  00053E                     i2l3582:
  8799                           
  8800                           ;usb_device.c: 2867: else
  8801                           ;usb_device.c: 2868: {
  8802                           ;usb_device.c: 2869: ep_data_in[SetupPkt.EPNum].bits.transfer_terminated = 1;
  8803  00053E  0102               	movlb	2	; () banked
  8804  000540  5134               	movf	52,w,b	;volatile
  8805  000542  0B0F               	andlw	15
  8806  000544  6E15               	movwf	??_USBStdFeatureReqHandler& (0+255),c
  8807  000546  5015               	movf	??_USBStdFeatureReqHandler,w,c
  8808  000548  0D01               	mullw	1
  8809  00054A  0E8D               	movlw	low _ep_data_in
  8810  00054C  24F3               	addwf	prodl,w,c
  8811  00054E  6ED9               	movwf	fsr2l,c
  8812  000550  0E00               	movlw	high _ep_data_in
  8813  000552                     L10:
  8814  000552  20F4               	addwfc	prodh,w,c
  8815  000554  6EDA               	movwf	fsr2h,c
  8816  000556  0100               	movlb	0	; () banked
  8817  000558  82DF               	bsf	indf2,1,c
  8818  00055A                     i2l3584:
  8819                           
  8820                           ;usb_device.c: 2870: }
  8821                           ;usb_device.c: 2871: }
  8822                           ;usb_device.c: 2874: p->STAT.Val |= 0x04;
  8823  00055A  C019  FFD9         	movff	USBStdFeatureReqHandler@p,fsr2l
  8824  00055E  C01A  FFDA         	movff	USBStdFeatureReqHandler@p+1,fsr2h
  8825  000562  0E00               	movlw	0
  8826  000564  84DB               	bsf	plusw2,2,c
  8827                           
  8828                           ;usb_device.c: 2875: p->STAT.Val |= 0x80;
  8829  000566  C019  FFD9         	movff	USBStdFeatureReqHandler@p,fsr2l
  8830  00056A  C01A  FFDA         	movff	USBStdFeatureReqHandler@p+1,fsr2h
  8831  00056E  0E00               	movlw	0
  8832  000570  8EDB               	bsf	plusw2,7,c
  8833                           
  8834                           ;usb_device.c: 2876: }
  8835  000572  0012               	return	
  8836  000574                     i2l3588:
  8837                           
  8838                           ;usb_device.c: 2877: else
  8839                           ;usb_device.c: 2878: {
  8840                           ;usb_device.c: 2882: p = (BDT_ENTRY*)(((uintptr_t)p) ^ 0x0004);
  8841  000574  0E04               	movlw	4
  8842  000576  1819               	xorwf	USBStdFeatureReqHandler@p,w,c
  8843  000578  6E19               	movwf	USBStdFeatureReqHandler@p,c
  8844  00057A  501A               	movf	USBStdFeatureReqHandler@p+1,w,c
  8845  00057C  6E1A               	movwf	USBStdFeatureReqHandler@p+1,c
  8846                           
  8847                           ;usb_device.c: 2884: if(p->STAT.UOWN == 1)
  8848  00057E  C019  FFD9         	movff	USBStdFeatureReqHandler@p,fsr2l
  8849  000582  C01A  FFDA         	movff	USBStdFeatureReqHandler@p+1,fsr2h
  8850  000586  AEDF               	btfss	indf2,7,c
  8851  000588  D01B               	goto	i2l3598
  8852                           
  8853                           ;usb_device.c: 2885: {
  8854                           ;usb_device.c: 2888: p->STAT.Val &= (~0x80);
  8855  00058A  C019  FFD9         	movff	USBStdFeatureReqHandler@p,fsr2l
  8856  00058E  C01A  FFDA         	movff	USBStdFeatureReqHandler@p+1,fsr2h
  8857  000592  0E7F               	movlw	127
  8858  000594  16DF               	andwf	indf2,f,c
  8859                           
  8860                           ;usb_device.c: 2889: p->STAT.Val |= 0x40;
  8861  000596  C019  FFD9         	movff	USBStdFeatureReqHandler@p,fsr2l
  8862  00059A  C01A  FFDA         	movff	USBStdFeatureReqHandler@p+1,fsr2h
  8863  00059E  0E00               	movlw	0
  8864  0005A0  8CDB               	bsf	plusw2,6,c
  8865                           
  8866                           ;usb_device.c: 2890: USER_USB_CALLBACK_EVENT_HANDLER(EVENT_TRANSFER_TERMINATED,p,sizeof(
      +                          p));
  8867  0005A2  0E00               	movlw	0
  8868  0005A4  6E0E               	movwf	USER_USB_CALLBACK_EVENT_HANDLER@event+1,c
  8869  0005A6  0E05               	movlw	5
  8870  0005A8  6E0D               	movwf	USER_USB_CALLBACK_EVENT_HANDLER@event,c
  8871  0005AA  C019  F00F         	movff	USBStdFeatureReqHandler@p,USER_USB_CALLBACK_EVENT_HANDLER@pdata
  8872  0005AE  C01A  F010         	movff	USBStdFeatureReqHandler@p+1,USER_USB_CALLBACK_EVENT_HANDLER@pdata+1
  8873  0005B2  0E00               	movlw	0
  8874  0005B4  6E12               	movwf	USER_USB_CALLBACK_EVENT_HANDLER@size+1,c
  8875  0005B6  0E02               	movlw	2
  8876  0005B8  6E11               	movwf	USER_USB_CALLBACK_EVENT_HANDLER@size,c
  8877  0005BA  ECF1  F010         	call	_USER_USB_CALLBACK_EVENT_HANDLER	;wreg free
  8878                           
  8879                           ;usb_device.c: 2891: }
  8880  0005BE  D006               	goto	i2l3600
  8881  0005C0                     i2l3598:
  8882                           
  8883                           ;usb_device.c: 2892: else
  8884                           ;usb_device.c: 2893: {
  8885                           ;usb_device.c: 2895: p->STAT.Val |= 0x40;
  8886  0005C0  C019  FFD9         	movff	USBStdFeatureReqHandler@p,fsr2l
  8887  0005C4  C01A  FFDA         	movff	USBStdFeatureReqHandler@p+1,fsr2h
  8888  0005C8  0E00               	movlw	0
  8889  0005CA  8CDB               	bsf	plusw2,6,c
  8890  0005CC                     i2l3600:
  8891                           
  8892                           ;usb_device.c: 2896: }
  8893                           ;usb_device.c: 2900: p = (BDT_ENTRY*)(((uintptr_t)p) ^ 0x0004);
  8894  0005CC  0E04               	movlw	4
  8895  0005CE  1819               	xorwf	USBStdFeatureReqHandler@p,w,c
  8896  0005D0  6E19               	movwf	USBStdFeatureReqHandler@p,c
  8897  0005D2  501A               	movf	USBStdFeatureReqHandler@p+1,w,c
  8898  0005D4  6E1A               	movwf	USBStdFeatureReqHandler@p+1,c
  8899                           
  8900                           ;usb_device.c: 2906: if((current_ep_data.bits.transfer_terminated != 0) || (p->STAT.UOWN
      +                           == 1))
  8901  0005D6  B218               	btfsc	USBStdFeatureReqHandler@current_ep_data,1,c
  8902  0005D8  D006               	goto	i2l641
  8903  0005DA  C019  FFD9         	movff	USBStdFeatureReqHandler@p,fsr2l
  8904  0005DE  C01A  FFDA         	movff	USBStdFeatureReqHandler@p+1,fsr2h
  8905  0005E2  AEDF               	btfss	indf2,7,c
  8906  0005E4  D031               	goto	i2l3614
  8907  0005E6                     i2l641:
  8908                           
  8909                           ;usb_device.c: 2907: {
  8910                           ;usb_device.c: 2908: if(SetupPkt.EPDir == 0)
  8911  0005E6  0102               	movlb	2	; () banked
  8912  0005E8  BF34               	btfsc	52,7,b	;volatile
  8913  0005EA  D00B               	goto	i2l3608
  8914                           
  8915                           ; BSR set to: 2
  8916                           ;usb_device.c: 2909: {
  8917                           ;usb_device.c: 2910: ep_data_out[SetupPkt.EPNum].bits.transfer_terminated = 0;
  8918  0005EC  0102               	movlb	2	; () banked
  8919  0005EE  5134               	movf	52,w,b	;volatile
  8920  0005F0  0B0F               	andlw	15
  8921  0005F2  6E15               	movwf	??_USBStdFeatureReqHandler& (0+255),c
  8922  0005F4  5015               	movf	??_USBStdFeatureReqHandler,w,c
  8923  0005F6  0D01               	mullw	1
  8924  0005F8  0E8A               	movlw	low _ep_data_out
  8925  0005FA  24F3               	addwf	prodl,w,c
  8926  0005FC  6ED9               	movwf	fsr2l,c
  8927  0005FE  0E00               	movlw	high _ep_data_out
  8928  000600  D00A               	goto	L11
  8929  000602                     i2l3608:
  8930                           
  8931                           ;usb_device.c: 2912: else
  8932                           ;usb_device.c: 2913: {
  8933                           ;usb_device.c: 2914: ep_data_in[SetupPkt.EPNum].bits.transfer_terminated = 0;
  8934  000602  0102               	movlb	2	; () banked
  8935  000604  5134               	movf	52,w,b	;volatile
  8936  000606  0B0F               	andlw	15
  8937  000608  6E15               	movwf	??_USBStdFeatureReqHandler& (0+255),c
  8938  00060A  5015               	movf	??_USBStdFeatureReqHandler,w,c
  8939  00060C  0D01               	mullw	1
  8940  00060E  0E8D               	movlw	low _ep_data_in
  8941  000610  24F3               	addwf	prodl,w,c
  8942  000612  6ED9               	movwf	fsr2l,c
  8943  000614  0E00               	movlw	high _ep_data_in
  8944  000616                     L11:
  8945  000616  20F4               	addwfc	prodh,w,c
  8946  000618  6EDA               	movwf	fsr2h,c
  8947  00061A  0100               	movlb	0	; () banked
  8948  00061C  92DF               	bcf	indf2,1,c
  8949                           
  8950                           ; BSR set to: 0
  8951                           ;usb_device.c: 2915: }
  8952                           ;usb_device.c: 2917: p->STAT.Val &= ~(0x80 | 0x40 | 0x04);
  8953                           
  8954                           ; BSR set to: 0
  8955  00061E  C019  FFD9         	movff	USBStdFeatureReqHandler@p,fsr2l
  8956  000622  C01A  FFDA         	movff	USBStdFeatureReqHandler@p+1,fsr2h
  8957  000626  0E3B               	movlw	59
  8958  000628  16DF               	andwf	indf2,f,c
  8959                           
  8960                           ; BSR set to: 0
  8961                           ;usb_device.c: 2920: USER_USB_CALLBACK_EVENT_HANDLER(EVENT_TRANSFER_TERMINATED,p,sizeof(
      +                          p));
  8962  00062A  0E00               	movlw	0
  8963  00062C  6E0E               	movwf	USER_USB_CALLBACK_EVENT_HANDLER@event+1,c
  8964  00062E  0E05               	movlw	5
  8965  000630  6E0D               	movwf	USER_USB_CALLBACK_EVENT_HANDLER@event,c
  8966  000632  C019  F00F         	movff	USBStdFeatureReqHandler@p,USER_USB_CALLBACK_EVENT_HANDLER@pdata
  8967  000636  C01A  F010         	movff	USBStdFeatureReqHandler@p+1,USER_USB_CALLBACK_EVENT_HANDLER@pdata+1
  8968  00063A  0E00               	movlw	0
  8969  00063C  6E12               	movwf	USER_USB_CALLBACK_EVENT_HANDLER@size+1,c
  8970  00063E  0E02               	movlw	2
  8971  000640  6E11               	movwf	USER_USB_CALLBACK_EVENT_HANDLER@size,c
  8972  000642  ECF1  F010         	call	_USER_USB_CALLBACK_EVENT_HANDLER	;wreg free
  8973                           
  8974                           ;usb_device.c: 2921: }
  8975  000646  D006               	goto	i2l3616
  8976  000648                     i2l3614:
  8977                           
  8978                           ;usb_device.c: 2922: else
  8979                           ;usb_device.c: 2923: {
  8980                           ;usb_device.c: 2925: p->STAT.Val &= ~(0x80 | 0x40 | 0x04);
  8981  000648  C019  FFD9         	movff	USBStdFeatureReqHandler@p,fsr2l
  8982  00064C  C01A  FFDA         	movff	USBStdFeatureReqHandler@p+1,fsr2h
  8983  000650  0E3B               	movlw	59
  8984  000652  16DF               	andwf	indf2,f,c
  8985  000654                     i2l3616:
  8986                           
  8987                           ;usb_device.c: 2926: }
  8988                           ;usb_device.c: 2973: pUEP = (unsigned char*)(&UEP0+SetupPkt.EPNum);
  8989  000654  0102               	movlb	2	; () banked
  8990  000656  5134               	movf	52,w,b	;volatile
  8991  000658  0B0F               	andlw	15
  8992  00065A  6E15               	movwf	??_USBStdFeatureReqHandler& (0+255),c
  8993  00065C  5015               	movf	??_USBStdFeatureReqHandler,w,c
  8994  00065E  0D01               	mullw	1
  8995  000660  0E53               	movlw	83
  8996  000662  24F3               	addwf	prodl,w,c
  8997  000664  6E16               	movwf	USBStdFeatureReqHandler@pUEP,c
  8998  000666  0E0F               	movlw	15
  8999  000668  20F4               	addwfc	prodh,w,c
  9000  00066A  6E17               	movwf	USBStdFeatureReqHandler@pUEP+1,c
  9001                           
  9002                           ; BSR set to: 2
  9003                           ;usb_device.c: 2977: *pUEP &= ~0x0001;
  9004  00066C  C016  FFD9         	movff	USBStdFeatureReqHandler@pUEP,fsr2l
  9005  000670  C017  FFDA         	movff	USBStdFeatureReqHandler@pUEP+1,fsr2h
  9006  000674  0EFE               	movlw	254
  9007  000676  16DF               	andwf	indf2,f,c
  9008                           
  9009                           ; BSR set to: 2
  9010  000678  0012               	return	
  9011  00067A                     __end_of_USBStdFeatureReqHandler:
  9012                           	opt stack 0
  9013                           pclatu	equ	0xFFB
  9014                           pclath	equ	0xFFA
  9015                           tblptru	equ	0xFF8
  9016                           tblptrh	equ	0xFF7
  9017                           tblptrl	equ	0xFF6
  9018                           tablat	equ	0xFF5
  9019                           prodh	equ	0xFF4
  9020                           prodl	equ	0xFF3
  9021                           intcon	equ	0xFF2
  9022                           postinc0	equ	0xFEE
  9023                           fsr0h	equ	0xFEA
  9024                           fsr0l	equ	0xFE9
  9025                           wreg	equ	0xFE8
  9026                           indf1	equ	0xFE7
  9027                           postdec1	equ	0xFE5
  9028                           fsr1h	equ	0xFE2
  9029                           fsr1l	equ	0xFE1
  9030                           indf2	equ	0xFDF
  9031                           postinc2	equ	0xFDE
  9032                           postdec2	equ	0xFDD
  9033                           plusw2	equ	0xFDB
  9034                           fsr2h	equ	0xFDA
  9035                           fsr2l	equ	0xFD9
  9036                           status	equ	0xFD8
  9037                           
  9038 ;; *************** function _USER_USB_CALLBACK_EVENT_HANDLER *****************
  9039 ;; Defined at:
  9040 ;;		line 51 in file "picLibs/usb_events.c"
  9041 ;; Parameters:    Size  Location     Type
  9042 ;;  event           2   12[COMRAM] enum E3370
  9043 ;;  pdata           2   14[COMRAM] PTR void 
  9044 ;;		 -> RAM(767), USTATcopy(1), USBActiveConfiguration(1), NULL(0), 
  9045 ;;		 -> BDT(48), 
  9046 ;;  size            2   16[COMRAM] unsigned int 
  9047 ;; Auto vars:     Size  Location     Type
  9048 ;;		None
  9049 ;; Return value:  Size  Location     Type
  9050 ;;                  1    wreg      unsigned char 
  9051 ;; Registers used:
  9052 ;;		wreg, fsr2l, fsr2h, status,2, status,0, prodl, prodh, cstack
  9053 ;; Tracked objects:
  9054 ;;		On entry : 0/0
  9055 ;;		On exit  : 0/0
  9056 ;;		Unchanged: 0/0
  9057 ;; Data sizes:     COMRAM   BANK0   BANK1   BANK2
  9058 ;;      Params:         6       0       0       0
  9059 ;;      Locals:         0       0       0       0
  9060 ;;      Temps:          2       0       0       0
  9061 ;;      Totals:         8       0       0       0
  9062 ;;Total ram usage:        8 bytes
  9063 ;; Hardware stack levels used:    1
  9064 ;; Hardware stack levels required when called:    3
  9065 ;; This function calls:
  9066 ;;		_APP_DeviceCDCBasicDemoInitialize
  9067 ;;		_APP_LEDUpdateUSBStatus
  9068 ;;		_CDCInitEP
  9069 ;;		_USBCheckCDCRequest
  9070 ;;		i2_SYSTEM_Initialize
  9071 ;; This function is called by:
  9072 ;;		_USBDeviceTasks
  9073 ;;		_USBStdSetCfgHandler
  9074 ;;		_USBSuspend
  9075 ;;		_USBWakeFromSuspend
  9076 ;;		_USBCtrlTrfSetupHandler
  9077 ;;		_USBCheckStdRequest
  9078 ;;		_USBStdFeatureReqHandler
  9079 ;; This function uses a non-reentrant model
  9080 ;;
  9081                           
  9082                           	psect	text43
  9083  0021E2                     __ptext43:
  9084                           	opt stack 0
  9085  0021E2                     _USER_USB_CALLBACK_EVENT_HANDLER:
  9086                           	opt stack 20
  9087                           
  9088                           ;usb_events.c: 53: switch( (int) event )
  9089                           
  9090                           ;incstack = 0
  9091  0021E2  D017               	goto	i2l3318
  9092  0021E4                     i2l3304:
  9093                           
  9094                           ;usb_events.c: 61: APP_LEDUpdateUSBStatus();
  9095  0021E4  EC32  F011         	call	_APP_LEDUpdateUSBStatus	;wreg free
  9096                           
  9097                           ;usb_events.c: 62: break;
  9098  0021E8  0012               	return	
  9099  0021EA                     i2l3306:
  9100                           
  9101                           ;usb_events.c: 66: APP_LEDUpdateUSBStatus();
  9102  0021EA  EC32  F011         	call	_APP_LEDUpdateUSBStatus	;wreg free
  9103                           
  9104                           ;usb_events.c: 74: SYSTEM_Initialize(SYSTEM_STATE_USB_SUSPEND);
  9105  0021EE  0E01               	movlw	1
  9106  0021F0  ECF8  F013         	call	i2_SYSTEM_Initialize
  9107                           
  9108                           ;usb_events.c: 75: break;
  9109  0021F4  0012               	return	
  9110  0021F6                     i2l3308:
  9111                           
  9112                           ;usb_events.c: 79: APP_LEDUpdateUSBStatus();
  9113  0021F6  EC32  F011         	call	_APP_LEDUpdateUSBStatus	;wreg free
  9114                           
  9115                           ;usb_events.c: 85: SYSTEM_Initialize(SYSTEM_STATE_USB_RESUME);
  9116  0021FA  0E02               	movlw	2
  9117  0021FC  ECF8  F013         	call	i2_SYSTEM_Initialize
  9118                           
  9119                           ;usb_events.c: 86: break;
  9120  002200  0012               	return	
  9121  002202                     i2l3310:
  9122                           
  9123                           ;usb_events.c: 91: CDCInitEP();
  9124  002202  ECB3  F011         	call	_CDCInitEP	;wreg free
  9125                           
  9126                           ;usb_events.c: 92: APP_DeviceCDCBasicDemoInitialize();
  9127  002206  EC0A  F014         	call	_APP_DeviceCDCBasicDemoInitialize	;wreg free
  9128                           
  9129                           ;usb_events.c: 96: break;
  9130                           
  9131                           ;usb_events.c: 95: case EVENT_SET_DESCRIPTOR:
  9132                           
  9133                           ;usb_events.c: 93: break;
  9134  00220A  0012               	return	
  9135  00220C                     i2l3314:
  9136                           
  9137                           ;usb_events.c: 101: USBCheckCDCRequest();
  9138  00220C  EC35  F00E         	call	_USBCheckCDCRequest	;wreg free
  9139                           
  9140                           ;usb_events.c: 112: }
  9141                           
  9142                           ;usb_events.c: 111: break;
  9143                           
  9144                           ;usb_events.c: 110: default:
  9145                           
  9146                           ;usb_events.c: 108: break;
  9147                           
  9148                           ;usb_events.c: 107: case EVENT_TRANSFER_TERMINATED:
  9149                           
  9150                           ;usb_events.c: 105: break;
  9151                           
  9152                           ;usb_events.c: 104: case EVENT_BUS_ERROR:
  9153                           
  9154                           ;usb_events.c: 102: break;
  9155  002210  0012               	return	
  9156  002212                     i2l3318:
  9157  002212  C00D  F013         	movff	USER_USB_CALLBACK_EVENT_HANDLER@event,??_USER_USB_CALLBACK_EVENT_HANDLER
  9158  002216  C00E  F014         	movff	USER_USB_CALLBACK_EVENT_HANDLER@event+1,??_USER_USB_CALLBACK_EVENT_HANDLER+1
  9159                           
  9160                           ; Switch on 2 bytes has been partitioned into a top level switch of size 1, and 2 sub-sw
      +                          itches
  9161                           ; Switch size 1, requested type "space"
  9162                           ; Number of cases is 2, Range of values is 0 to 127
  9163                           ; switch strategies available:
  9164                           ; Name         Instructions Cycles
  9165                           ; simple_byte            7     4 (average)
  9166                           ;	Chosen strategy is simple_byte
  9167  00221A  5014               	movf	??_USER_USB_CALLBACK_EVENT_HANDLER+1,w,c
  9168  00221C  0A00               	xorlw	0	; case 0
  9169  00221E  B4D8               	btfsc	status,2,c
  9170  002220  D004               	goto	i2l5350
  9171  002222  0A7F               	xorlw	127	; case 127
  9172  002224  A4D8               	btfss	status,2,c
  9173  002226  0012               	return	
  9174  002228  D01A               	goto	i2l5352
  9175  00222A                     i2l5350:
  9176                           
  9177                           ; Switch size 1, requested type "space"
  9178                           ; Number of cases is 8, Range of values is 1 to 117
  9179                           ; switch strategies available:
  9180                           ; Name         Instructions Cycles
  9181                           ; simple_byte           25    13 (average)
  9182                           ;	Chosen strategy is simple_byte
  9183  00222A  5013               	movf	??_USER_USB_CALLBACK_EVENT_HANDLER,w,c
  9184  00222C  0A01               	xorlw	1	; case 1
  9185  00222E  B4D8               	btfsc	status,2,c
  9186  002230  D7E8               	goto	i2l3310
  9187  002232  0A03               	xorlw	3	; case 2
  9188  002234  B4D8               	btfsc	status,2,c
  9189  002236  0012               	return	
  9190  002238  0A01               	xorlw	1	; case 3
  9191  00223A  B4D8               	btfsc	status,2,c
  9192  00223C  D7E7               	goto	i2l3314
  9193  00223E  0A06               	xorlw	6	; case 5
  9194  002240  B4D8               	btfsc	status,2,c
  9195  002242  0012               	return	
  9196  002244  0A77               	xorlw	119	; case 114
  9197  002246  B4D8               	btfsc	status,2,c
  9198  002248  0012               	return	
  9199  00224A  0A01               	xorlw	1	; case 115
  9200  00224C  B4D8               	btfsc	status,2,c
  9201  00224E  D7CA               	goto	i2l3304
  9202  002250  0A07               	xorlw	7	; case 116
  9203  002252  B4D8               	btfsc	status,2,c
  9204  002254  D7D0               	goto	i2l3308
  9205  002256  0A01               	xorlw	1	; case 117
  9206  002258  A4D8               	btfss	status,2,c
  9207  00225A  0012               	return	
  9208  00225C  D7C6               	goto	i2l3306
  9209  00225E                     i2l5352:
  9210                           
  9211                           ; Switch size 1, requested type "space"
  9212                           ; Number of cases is 1, Range of values is 255 to 255
  9213                           ; switch strategies available:
  9214                           ; Name         Instructions Cycles
  9215                           ; simple_byte            4     3 (average)
  9216                           ;	Chosen strategy is simple_byte
  9217  00225E  5013               	movf	??_USER_USB_CALLBACK_EVENT_HANDLER,w,c
  9218  002260  0AFF               	xorlw	255	; case 255
  9219  002262  0012               	return	
  9220  002264                     __end_of_USER_USB_CALLBACK_EVENT_HANDLER:
  9221                           	opt stack 0
  9222                           pclatu	equ	0xFFB
  9223                           pclath	equ	0xFFA
  9224                           tblptru	equ	0xFF8
  9225                           tblptrh	equ	0xFF7
  9226                           tblptrl	equ	0xFF6
  9227                           tablat	equ	0xFF5
  9228                           prodh	equ	0xFF4
  9229                           prodl	equ	0xFF3
  9230                           intcon	equ	0xFF2
  9231                           postinc0	equ	0xFEE
  9232                           fsr0h	equ	0xFEA
  9233                           fsr0l	equ	0xFE9
  9234                           wreg	equ	0xFE8
  9235                           indf1	equ	0xFE7
  9236                           postdec1	equ	0xFE5
  9237                           fsr1h	equ	0xFE2
  9238                           fsr1l	equ	0xFE1
  9239                           indf2	equ	0xFDF
  9240                           postinc2	equ	0xFDE
  9241                           postdec2	equ	0xFDD
  9242                           plusw2	equ	0xFDB
  9243                           fsr2h	equ	0xFDA
  9244                           fsr2l	equ	0xFD9
  9245                           status	equ	0xFD8
  9246                           
  9247 ;; *************** function i2_SYSTEM_Initialize *****************
  9248 ;; Defined at:
  9249 ;;		line 66 in file "picLibs/system.c"
  9250 ;; Parameters:    Size  Location     Type
  9251 ;;  state           1    wreg     enum E3329
  9252 ;; Auto vars:     Size  Location     Type
  9253 ;;  state           1    1[COMRAM] enum E3329
  9254 ;; Return value:  Size  Location     Type
  9255 ;;                  1    wreg      void 
  9256 ;; Registers used:
  9257 ;;		wreg, status,2, status,0, cstack
  9258 ;; Tracked objects:
  9259 ;;		On entry : 0/0
  9260 ;;		On exit  : 0/0
  9261 ;;		Unchanged: 0/0
  9262 ;; Data sizes:     COMRAM   BANK0   BANK1   BANK2
  9263 ;;      Params:         0       0       0       0
  9264 ;;      Locals:         1       0       0       0
  9265 ;;      Temps:          0       0       0       0
  9266 ;;      Totals:         1       0       0       0
  9267 ;;Total ram usage:        1 bytes
  9268 ;; Hardware stack levels used:    1
  9269 ;; Hardware stack levels required when called:    1
  9270 ;; This function calls:
  9271 ;;		i2_BUTTON_Enable
  9272 ;;		i2_LED_Enable
  9273 ;; This function is called by:
  9274 ;;		_USER_USB_CALLBACK_EVENT_HANDLER
  9275 ;; This function uses a non-reentrant model
  9276 ;;
  9277                           
  9278                           	psect	text44
  9279  0027F0                     __ptext44:
  9280                           	opt stack 0
  9281  0027F0                     i2_SYSTEM_Initialize:
  9282                           	opt stack 21
  9283                           
  9284                           ;incstack = 0
  9285                           ;i2SYSTEM_Initialize@state stored from wreg
  9286  0027F0  6E02               	movwf	i2SYSTEM_Initialize@state,c
  9287                           
  9288                           ;system.c: 68: switch(state)
  9289  0027F2  D007               	goto	i2l3300
  9290  0027F4                     i2l3296:
  9291                           
  9292                           ;system.c: 71: LED_Enable(LED_D1);
  9293  0027F4  0E01               	movlw	1
  9294  0027F6  ECF4  F012         	call	i2_LED_Enable
  9295                           
  9296                           ;system.c: 72: BUTTON_Enable(BUTTON_S1);
  9297  0027FA  0E01               	movlw	1
  9298  0027FC  EC44  F014         	call	i2_BUTTON_Enable
  9299                           
  9300                           ;system.c: 80: }
  9301                           
  9302                           ;system.c: 79: break;
  9303                           
  9304                           ;system.c: 78: case SYSTEM_STATE_USB_RESUME:
  9305                           
  9306                           ;system.c: 76: break;
  9307                           
  9308                           ;system.c: 75: case SYSTEM_STATE_USB_SUSPEND:
  9309                           
  9310                           ;system.c: 73: break;
  9311  002800  0012               	return	
  9312  002802                     i2l3300:
  9313  002802  5002               	movf	i2SYSTEM_Initialize@state,w,c
  9314                           
  9315                           ; Switch size 1, requested type "space"
  9316                           ; Number of cases is 3, Range of values is 0 to 2
  9317                           ; switch strategies available:
  9318                           ; Name         Instructions Cycles
  9319                           ; simple_byte           10     6 (average)
  9320                           ;	Chosen strategy is simple_byte
  9321  002804  0A00               	xorlw	0	; case 0
  9322  002806  B4D8               	btfsc	status,2,c
  9323  002808  D7F5               	goto	i2l3296
  9324  00280A  0A01               	xorlw	1	; case 1
  9325  00280C  B4D8               	btfsc	status,2,c
  9326  00280E  0012               	return	
  9327  002810  0A03               	xorlw	3	; case 2
  9328  002812  0012               	return	
  9329  002814                     __end_ofi2_SYSTEM_Initialize:
  9330                           	opt stack 0
  9331                           pclatu	equ	0xFFB
  9332                           pclath	equ	0xFFA
  9333                           tblptru	equ	0xFF8
  9334                           tblptrh	equ	0xFF7
  9335                           tblptrl	equ	0xFF6
  9336                           tablat	equ	0xFF5
  9337                           prodh	equ	0xFF4
  9338                           prodl	equ	0xFF3
  9339                           intcon	equ	0xFF2
  9340                           postinc0	equ	0xFEE
  9341                           fsr0h	equ	0xFEA
  9342                           fsr0l	equ	0xFE9
  9343                           wreg	equ	0xFE8
  9344                           indf1	equ	0xFE7
  9345                           postdec1	equ	0xFE5
  9346                           fsr1h	equ	0xFE2
  9347                           fsr1l	equ	0xFE1
  9348                           indf2	equ	0xFDF
  9349                           postinc2	equ	0xFDE
  9350                           postdec2	equ	0xFDD
  9351                           plusw2	equ	0xFDB
  9352                           fsr2h	equ	0xFDA
  9353                           fsr2l	equ	0xFD9
  9354                           status	equ	0xFD8
  9355                           
  9356 ;; *************** function i2_LED_Enable *****************
  9357 ;; Defined at:
  9358 ;;		line 220 in file "picLibs/leds.c"
  9359 ;; Parameters:    Size  Location     Type
  9360 ;;  led             1    wreg     enum E2
  9361 ;; Auto vars:     Size  Location     Type
  9362 ;;  led             1    0[COMRAM] enum E2
  9363 ;; Return value:  Size  Location     Type
  9364 ;;                  1    wreg      void 
  9365 ;; Registers used:
  9366 ;;		wreg, status,2, status,0
  9367 ;; Tracked objects:
  9368 ;;		On entry : 0/0
  9369 ;;		On exit  : 0/0
  9370 ;;		Unchanged: 0/0
  9371 ;; Data sizes:     COMRAM   BANK0   BANK1   BANK2
  9372 ;;      Params:         0       0       0       0
  9373 ;;      Locals:         1       0       0       0
  9374 ;;      Temps:          0       0       0       0
  9375 ;;      Totals:         1       0       0       0
  9376 ;;Total ram usage:        1 bytes
  9377 ;; Hardware stack levels used:    1
  9378 ;; This function calls:
  9379 ;;		Nothing
  9380 ;; This function is called by:
  9381 ;;		i2_SYSTEM_Initialize
  9382 ;; This function uses a non-reentrant model
  9383 ;;
  9384                           
  9385                           	psect	text45
  9386  0025E8                     __ptext45:
  9387                           	opt stack 0
  9388  0025E8                     i2_LED_Enable:
  9389                           	opt stack 21
  9390                           
  9391                           ;incstack = 0
  9392                           ;i2LED_Enable@led stored from wreg
  9393  0025E8  6E01               	movwf	i2LED_Enable@led,c
  9394                           
  9395                           ;leds.c: 222: switch(led)
  9396  0025EA  D008               	goto	i2l3172
  9397  0025EC                     i2l218:
  9398                           
  9399                           ;leds.c: 225: TRISCbits.TRISC0 = 0;
  9400  0025EC  9094               	bcf	3988,0,c	;volatile
  9401                           
  9402                           ;leds.c: 226: break;
  9403  0025EE  0012               	return	
  9404  0025F0                     i2l220:
  9405                           
  9406                           ;leds.c: 229: TRISCbits.TRISC1 = 0;
  9407  0025F0  9294               	bcf	3988,1,c	;volatile
  9408                           
  9409                           ;leds.c: 230: break;
  9410  0025F2  0012               	return	
  9411  0025F4                     i2l221:
  9412                           
  9413                           ;leds.c: 233: TRISCbits.TRISC2 = 0;
  9414  0025F4  9494               	bcf	3988,2,c	;volatile
  9415                           
  9416                           ;leds.c: 234: break;
  9417  0025F6  0012               	return	
  9418  0025F8                     i2l222:
  9419                           
  9420                           ;leds.c: 237: TRISCbits.TRISC3 = 0;
  9421  0025F8  9694               	bcf	3988,3,c	;volatile
  9422                           
  9423                           ;leds.c: 242: }
  9424                           
  9425                           ;leds.c: 241: break;
  9426                           
  9427                           ;leds.c: 240: case LED_NONE:
  9428                           
  9429                           ;leds.c: 238: break;
  9430  0025FA  0012               	return	
  9431  0025FC                     i2l3172:
  9432  0025FC  5001               	movf	i2LED_Enable@led,w,c
  9433                           
  9434                           ; Switch size 1, requested type "space"
  9435                           ; Number of cases is 5, Range of values is 0 to 4
  9436                           ; switch strategies available:
  9437                           ; Name         Instructions Cycles
  9438                           ; simple_byte           16     9 (average)
  9439                           ;	Chosen strategy is simple_byte
  9440  0025FE  0A00               	xorlw	0	; case 0
  9441  002600  B4D8               	btfsc	status,2,c
  9442  002602  0012               	return	
  9443  002604  0A01               	xorlw	1	; case 1
  9444  002606  B4D8               	btfsc	status,2,c
  9445  002608  D7F1               	goto	i2l218
  9446  00260A  0A03               	xorlw	3	; case 2
  9447  00260C  B4D8               	btfsc	status,2,c
  9448  00260E  D7F0               	goto	i2l220
  9449  002610  0A01               	xorlw	1	; case 3
  9450  002612  B4D8               	btfsc	status,2,c
  9451  002614  D7EF               	goto	i2l221
  9452  002616  0A07               	xorlw	7	; case 4
  9453  002618  A4D8               	btfss	status,2,c
  9454  00261A  0012               	return	
  9455  00261C  D7ED               	goto	i2l222
  9456  00261E                     __end_ofi2_LED_Enable:
  9457                           	opt stack 0
  9458                           pclatu	equ	0xFFB
  9459                           pclath	equ	0xFFA
  9460                           tblptru	equ	0xFF8
  9461                           tblptrh	equ	0xFF7
  9462                           tblptrl	equ	0xFF6
  9463                           tablat	equ	0xFF5
  9464                           prodh	equ	0xFF4
  9465                           prodl	equ	0xFF3
  9466                           intcon	equ	0xFF2
  9467                           postinc0	equ	0xFEE
  9468                           fsr0h	equ	0xFEA
  9469                           fsr0l	equ	0xFE9
  9470                           wreg	equ	0xFE8
  9471                           indf1	equ	0xFE7
  9472                           postdec1	equ	0xFE5
  9473                           fsr1h	equ	0xFE2
  9474                           fsr1l	equ	0xFE1
  9475                           indf2	equ	0xFDF
  9476                           postinc2	equ	0xFDE
  9477                           postdec2	equ	0xFDD
  9478                           plusw2	equ	0xFDB
  9479                           fsr2h	equ	0xFDA
  9480                           fsr2l	equ	0xFD9
  9481                           status	equ	0xFD8
  9482                           
  9483 ;; *************** function i2_BUTTON_Enable *****************
  9484 ;; Defined at:
  9485 ;;		line 85 in file "picLibs/buttons.c"
  9486 ;; Parameters:    Size  Location     Type
  9487 ;;  button          1    wreg     enum E3304
  9488 ;; Auto vars:     Size  Location     Type
  9489 ;;  button          1    0[COMRAM] enum E3304
  9490 ;; Return value:  Size  Location     Type
  9491 ;;                  1    wreg      void 
  9492 ;; Registers used:
  9493 ;;		wreg, status,2, status,0
  9494 ;; Tracked objects:
  9495 ;;		On entry : 0/0
  9496 ;;		On exit  : 0/0
  9497 ;;		Unchanged: 0/0
  9498 ;; Data sizes:     COMRAM   BANK0   BANK1   BANK2
  9499 ;;      Params:         0       0       0       0
  9500 ;;      Locals:         1       0       0       0
  9501 ;;      Temps:          0       0       0       0
  9502 ;;      Totals:         1       0       0       0
  9503 ;;Total ram usage:        1 bytes
  9504 ;; Hardware stack levels used:    1
  9505 ;; This function calls:
  9506 ;;		Nothing
  9507 ;; This function is called by:
  9508 ;;		i2_SYSTEM_Initialize
  9509 ;; This function uses a non-reentrant model
  9510 ;;
  9511                           
  9512                           	psect	text46
  9513  002888                     __ptext46:
  9514                           	opt stack 0
  9515  002888                     i2_BUTTON_Enable:
  9516                           	opt stack 21
  9517                           
  9518                           ;incstack = 0
  9519                           ;i2BUTTON_Enable@button stored from wreg
  9520  002888  6E01               	movwf	i2BUTTON_Enable@button,c
  9521                           
  9522                           ;buttons.c: 94: }
  9523                           
  9524                           ;buttons.c: 93: break;
  9525                           
  9526                           ;buttons.c: 92: case BUTTON_NONE:
  9527                           
  9528                           ;buttons.c: 90: break;
  9529                           
  9530                           ;buttons.c: 88: {
  9531                           ;buttons.c: 89: case BUTTON_S1:
  9532                           
  9533                           ;buttons.c: 87: switch(button)
  9534  00288A  5001               	movf	i2BUTTON_Enable@button,w,c
  9535                           
  9536                           ; Switch size 1, requested type "space"
  9537                           ; Number of cases is 2, Range of values is 0 to 1
  9538                           ; switch strategies available:
  9539                           ; Name         Instructions Cycles
  9540                           ; simple_byte            7     4 (average)
  9541                           ;	Chosen strategy is simple_byte
  9542  00288C  0A00               	xorlw	0	; case 0
  9543  00288E  B4D8               	btfsc	status,2,c
  9544  002890  0012               	return	
  9545  002892  0A01               	xorlw	1	; case 1
  9546  002894  0012               	return	
  9547  002896                     __end_ofi2_BUTTON_Enable:
  9548                           	opt stack 0
  9549                           pclatu	equ	0xFFB
  9550                           pclath	equ	0xFFA
  9551                           tblptru	equ	0xFF8
  9552                           tblptrh	equ	0xFF7
  9553                           tblptrl	equ	0xFF6
  9554                           tablat	equ	0xFF5
  9555                           prodh	equ	0xFF4
  9556                           prodl	equ	0xFF3
  9557                           intcon	equ	0xFF2
  9558                           postinc0	equ	0xFEE
  9559                           fsr0h	equ	0xFEA
  9560                           fsr0l	equ	0xFE9
  9561                           wreg	equ	0xFE8
  9562                           indf1	equ	0xFE7
  9563                           postdec1	equ	0xFE5
  9564                           fsr1h	equ	0xFE2
  9565                           fsr1l	equ	0xFE1
  9566                           indf2	equ	0xFDF
  9567                           postinc2	equ	0xFDE
  9568                           postdec2	equ	0xFDD
  9569                           plusw2	equ	0xFDB
  9570                           fsr2h	equ	0xFDA
  9571                           fsr2l	equ	0xFD9
  9572                           status	equ	0xFD8
  9573                           
  9574 ;; *************** function _USBCheckCDCRequest *****************
  9575 ;; Defined at:
  9576 ;;		line 147 in file "picLibs/usb_device_cdc.c"
  9577 ;; Parameters:    Size  Location     Type
  9578 ;;		None
  9579 ;; Auto vars:     Size  Location     Type
  9580 ;;		None
  9581 ;; Return value:  Size  Location     Type
  9582 ;;                  1    wreg      void 
  9583 ;; Registers used:
  9584 ;;		wreg, status,2, status,0
  9585 ;; Tracked objects:
  9586 ;;		On entry : 0/0
  9587 ;;		On exit  : 0/0
  9588 ;;		Unchanged: 0/0
  9589 ;; Data sizes:     COMRAM   BANK0   BANK1   BANK2
  9590 ;;      Params:         0       0       0       0
  9591 ;;      Locals:         0       0       0       0
  9592 ;;      Temps:          0       0       0       0
  9593 ;;      Totals:         0       0       0       0
  9594 ;;Total ram usage:        0 bytes
  9595 ;; Hardware stack levels used:    1
  9596 ;; This function calls:
  9597 ;;		Nothing
  9598 ;; This function is called by:
  9599 ;;		_USER_USB_CALLBACK_EVENT_HANDLER
  9600 ;; This function uses a non-reentrant model
  9601 ;;
  9602                           
  9603                           	psect	text47
  9604  001C6A                     __ptext47:
  9605                           	opt stack 0
  9606  001C6A                     _USBCheckCDCRequest:
  9607                           	opt stack 22
  9608                           
  9609                           ;usb_device_cdc.c: 152: if(SetupPkt.Recipient != (0x01)) return;
  9610                           
  9611                           ;incstack = 0
  9612  001C6A  0102               	movlb	2	; () banked
  9613  001C6C  5130               	movf	48,w,b	;volatile
  9614  001C6E  0B1F               	andlw	31
  9615  001C70  06E8               	decf	wreg,f,c
  9616  001C72  A4D8               	btfss	status,2,c
  9617  001C74  0012               	return	
  9618                           
  9619                           ; BSR set to: 2
  9620                           ;usb_device_cdc.c: 157: if(SetupPkt.RequestType != (0x20>>5)) return;
  9621                           
  9622                           ; BSR set to: 2
  9623                           
  9624                           ; BSR set to: 2
  9625  001C76  0102               	movlb	2	; () banked
  9626  001C78  3930               	swapf	48,w,b	;volatile
  9627  001C7A  32E8               	rrcf	wreg,f,c
  9628  001C7C  0B03               	andlw	3
  9629  001C7E  06E8               	decf	wreg,f,c
  9630  001C80  A4D8               	btfss	status,2,c
  9631  001C82  0012               	return	
  9632                           
  9633                           ; BSR set to: 2
  9634                           ;usb_device_cdc.c: 163: if((SetupPkt.bIntfID != 0x0)&&
  9635                           ;usb_device_cdc.c: 164: (SetupPkt.bIntfID != 0x01)) return;
  9636                           
  9637                           ; BSR set to: 2
  9638                           
  9639                           ; BSR set to: 2
  9640  001C84  0102               	movlb	2	; () banked
  9641  001C86  5134               	movf	52,w,b	;volatile
  9642  001C88  B4D8               	btfsc	status,2,c
  9643  001C8A  D045               	goto	i2l3280
  9644                           
  9645                           ; BSR set to: 2
  9646  001C8C  0102               	movlb	2	; () banked
  9647  001C8E  0534               	decf	52,w,b	;volatile
  9648  001C90  A4D8               	btfss	status,2,c
  9649  001C92  0012               	return	
  9650  001C94  D040               	goto	i2l3280
  9651  001C96                     i2l3256:
  9652                           
  9653                           ; BSR set to: 2
  9654                           ;usb_device_cdc.c: 171: inPipes[0].pSrc.bRam = (uint8_t*)&dummy_encapsulated_cmd_respons
      +                          e;
  9655  001C96  0E9A               	movlw	low _dummy_encapsulated_cmd_response
  9656  001C98  0100               	movlb	0	; () banked
  9657  001C9A  6F72               	movwf	_inPipes& (0+255),b	;volatile
  9658  001C9C  0E00               	movlw	high _dummy_encapsulated_cmd_response
  9659  001C9E  0100               	movlb	0	; () banked
  9660  001CA0  6F73               	movwf	(_inPipes+1)& (0+255),b	;volatile
  9661                           
  9662                           ; BSR set to: 0
  9663                           ;usb_device_cdc.c: 172: inPipes[0].wCount.Val = 0x08;
  9664  001CA2  0E00               	movlw	0
  9665  001CA4  0100               	movlb	0	; () banked
  9666  001CA6  6F77               	movwf	(_inPipes+5)& (0+255),b	;volatile
  9667  001CA8  0E08               	movlw	8
  9668  001CAA  6F76               	movwf	(_inPipes+4)& (0+255),b	;volatile
  9669                           
  9670                           ; BSR set to: 0
  9671                           ;usb_device_cdc.c: 173: inPipes[0].info.bits.ctrl_trf_mem = 0x01;
  9672  001CAC  0100               	movlb	0	; () banked
  9673  001CAE  8175               	bsf	(_inPipes+3)& (0+255),0,b	;volatile
  9674                           
  9675                           ; BSR set to: 0
  9676                           ;usb_device_cdc.c: 174: inPipes[0].info.bits.busy = 1;
  9677  001CB0  0100               	movlb	0	; () banked
  9678  001CB2  8F75               	bsf	(_inPipes+3)& (0+255),7,b	;volatile
  9679                           
  9680                           ;usb_device_cdc.c: 175: break;
  9681  001CB4  0012               	return	
  9682  001CB6                     i2l3264:
  9683                           
  9684                           ;usb_device_cdc.c: 178: inPipes[0].pSrc.bRam = (uint8_t*)&dummy_encapsulated_cmd_respons
      +                          e;
  9685  001CB6  0E9A               	movlw	low _dummy_encapsulated_cmd_response
  9686  001CB8  0100               	movlb	0	; () banked
  9687  001CBA  6F72               	movwf	_inPipes& (0+255),b	;volatile
  9688  001CBC  0E00               	movlw	high _dummy_encapsulated_cmd_response
  9689  001CBE  0100               	movlb	0	; () banked
  9690  001CC0  6F73               	movwf	(_inPipes+1)& (0+255),b	;volatile
  9691                           
  9692                           ; BSR set to: 0
  9693                           ;usb_device_cdc.c: 179: inPipes[0].info.bits.busy = 1;
  9694  001CC2  0100               	movlb	0	; () banked
  9695  001CC4  8F75               	bsf	(_inPipes+3)& (0+255),7,b	;volatile
  9696                           
  9697                           ;usb_device_cdc.c: 180: break;
  9698  001CC6  0012               	return	
  9699  001CC8                     i2l708:
  9700                           
  9701                           ; BSR set to: 2
  9702                           ;usb_device_cdc.c: 185: outPipes[0].wCount.Val = SetupPkt.wLength;
  9703  001CC8  C236 F06E          	movff	566,_outPipes+4	;volatile
  9704  001CCC  C237 F06F          	movff	567,_outPipes+5	;volatile
  9705                           
  9706                           ; BSR set to: 2
  9707                           ;usb_device_cdc.c: 186: outPipes[0].pDst.bRam = (uint8_t*)&line_coding._byte[0];
  9708  001CD0  0E49               	movlw	low _line_coding
  9709  001CD2  0100               	movlb	0	; () banked
  9710  001CD4  6F6A               	movwf	_outPipes& (0+255),b	;volatile
  9711  001CD6  0E00               	movlw	high _line_coding
  9712  001CD8  0100               	movlb	0	; () banked
  9713  001CDA  6F6B               	movwf	(_outPipes+1)& (0+255),b	;volatile
  9714                           
  9715                           ;usb_device_cdc.c: 187: outPipes[0].pFunc = (0);
  9716  001CDC  0E00               	movlw	0
  9717  001CDE  0100               	movlb	0	; () banked
  9718  001CE0  6F70               	movwf	(_outPipes+6)& (0+255),b	;volatile
  9719  001CE2  0E00               	movlw	0
  9720  001CE4  0100               	movlb	0	; () banked
  9721  001CE6  6F71               	movwf	(_outPipes+7)& (0+255),b	;volatile
  9722                           
  9723                           ; BSR set to: 0
  9724                           ;usb_device_cdc.c: 188: outPipes[0].info.bits.busy = 1;
  9725  001CE8  0100               	movlb	0	; () banked
  9726  001CEA  8F6D               	bsf	(_outPipes+3)& (0+255),7,b	;volatile
  9727                           
  9728                           ;usb_device_cdc.c: 189: break;
  9729  001CEC  0012               	return	
  9730  001CEE                     i2l3272:
  9731                           
  9732                           ;usb_device_cdc.c: 192: { inPipes[0].pSrc.bRam = (uint8_t*)&line_coding; inPipes[0].wCou
      +                          nt.Val = 0x07; inPipes[0].info.Val = 0x40 | 0x80 | 0x01; };
  9733  001CEE  0E49               	movlw	low _line_coding
  9734  001CF0  0100               	movlb	0	; () banked
  9735  001CF2  6F72               	movwf	_inPipes& (0+255),b	;volatile
  9736  001CF4  0E00               	movlw	high _line_coding
  9737  001CF6  0100               	movlb	0	; () banked
  9738  001CF8  6F73               	movwf	(_inPipes+1)& (0+255),b	;volatile
  9739                           
  9740                           ; BSR set to: 0
  9741  001CFA  0E00               	movlw	0
  9742  001CFC  0100               	movlb	0	; () banked
  9743  001CFE  6F77               	movwf	(_inPipes+5)& (0+255),b	;volatile
  9744  001D00  0E07               	movlw	7
  9745  001D02  6F76               	movwf	(_inPipes+4)& (0+255),b	;volatile
  9746                           
  9747                           ; BSR set to: 0
  9748  001D04  0EC1               	movlw	193
  9749  001D06  0100               	movlb	0	; () banked
  9750  001D08  6F75               	movwf	(_inPipes+3)& (0+255),b	;volatile
  9751                           
  9752                           ;usb_device_cdc.c: 196: break;
  9753  001D0A  0012               	return	
  9754  001D0C                     i2l710:
  9755                           
  9756                           ; BSR set to: 2
  9757                           ;usb_device_cdc.c: 199: control_signal_bitmap._byte = (uint8_t)SetupPkt.wValue;
  9758  001D0C  C232 F03B          	movff	562,_control_signal_bitmap	;volatile
  9759                           
  9760                           ;usb_device_cdc.c: 231: inPipes[0].info.bits.busy = 1;
  9761  001D10  0100               	movlb	0	; () banked
  9762  001D12  8F75               	bsf	(_inPipes+3)& (0+255),7,b	;volatile
  9763                           
  9764                           ; BSR set to: 0
  9765                           ;usb_device_cdc.c: 258: }
  9766                           
  9767                           ; BSR set to: 0
  9768                           ;usb_device_cdc.c: 257: break;
  9769                           
  9770                           ;usb_device_cdc.c: 256: default:
  9771                           
  9772                           ;usb_device_cdc.c: 232: break;
  9773  001D14  0012               	return	
  9774  001D16                     i2l3280:
  9775  001D16  0102               	movlb	2	; () banked
  9776  001D18  5131               	movf	49,w,b	;volatile
  9777                           
  9778                           ; Switch size 1, requested type "space"
  9779                           ; Number of cases is 5, Range of values is 0 to 34
  9780                           ; switch strategies available:
  9781                           ; Name         Instructions Cycles
  9782                           ; simple_byte           16     9 (average)
  9783                           ;	Chosen strategy is simple_byte
  9784  001D1A  0A00               	xorlw	0	; case 0
  9785  001D1C  B4D8               	btfsc	status,2,c
  9786  001D1E  D7BB               	goto	i2l3256
  9787  001D20  0A01               	xorlw	1	; case 1
  9788  001D22  B4D8               	btfsc	status,2,c
  9789  001D24  D7C8               	goto	i2l3264
  9790  001D26  0A21               	xorlw	33	; case 32
  9791  001D28  B4D8               	btfsc	status,2,c
  9792  001D2A  D7CE               	goto	i2l708
  9793  001D2C  0A01               	xorlw	1	; case 33
  9794  001D2E  B4D8               	btfsc	status,2,c
  9795  001D30  D7DE               	goto	i2l3272
  9796  001D32  0A03               	xorlw	3	; case 34
  9797  001D34  A4D8               	btfss	status,2,c
  9798  001D36  0012               	return	
  9799  001D38  D7E9               	goto	i2l710
  9800  001D3A                     __end_of_USBCheckCDCRequest:
  9801                           	opt stack 0
  9802                           pclatu	equ	0xFFB
  9803                           pclath	equ	0xFFA
  9804                           tblptru	equ	0xFF8
  9805                           tblptrh	equ	0xFF7
  9806                           tblptrl	equ	0xFF6
  9807                           tablat	equ	0xFF5
  9808                           prodh	equ	0xFF4
  9809                           prodl	equ	0xFF3
  9810                           intcon	equ	0xFF2
  9811                           postinc0	equ	0xFEE
  9812                           fsr0h	equ	0xFEA
  9813                           fsr0l	equ	0xFE9
  9814                           wreg	equ	0xFE8
  9815                           indf1	equ	0xFE7
  9816                           postdec1	equ	0xFE5
  9817                           fsr1h	equ	0xFE2
  9818                           fsr1l	equ	0xFE1
  9819                           indf2	equ	0xFDF
  9820                           postinc2	equ	0xFDE
  9821                           postdec2	equ	0xFDD
  9822                           plusw2	equ	0xFDB
  9823                           fsr2h	equ	0xFDA
  9824                           fsr2l	equ	0xFD9
  9825                           status	equ	0xFD8
  9826                           
  9827 ;; *************** function _CDCInitEP *****************
  9828 ;; Defined at:
  9829 ;;		line 294 in file "picLibs/usb_device_cdc.c"
  9830 ;; Parameters:    Size  Location     Type
  9831 ;;		None
  9832 ;; Auto vars:     Size  Location     Type
  9833 ;;		None
  9834 ;; Return value:  Size  Location     Type
  9835 ;;                  1    wreg      void 
  9836 ;; Registers used:
  9837 ;;		wreg, fsr2l, fsr2h, status,2, status,0, prodl, prodh, cstack
  9838 ;; Tracked objects:
  9839 ;;		On entry : 0/0
  9840 ;;		On exit  : 0/0
  9841 ;;		Unchanged: 0/0
  9842 ;; Data sizes:     COMRAM   BANK0   BANK1   BANK2
  9843 ;;      Params:         0       0       0       0
  9844 ;;      Locals:         0       0       0       0
  9845 ;;      Temps:          0       0       0       0
  9846 ;;      Totals:         0       0       0       0
  9847 ;;Total ram usage:        0 bytes
  9848 ;; Hardware stack levels used:    1
  9849 ;; Hardware stack levels required when called:    2
  9850 ;; This function calls:
  9851 ;;		_USBEnableEndpoint
  9852 ;;		i2_USBTransferOnePacket
  9853 ;; This function is called by:
  9854 ;;		_USER_USB_CALLBACK_EVENT_HANDLER
  9855 ;; This function uses a non-reentrant model
  9856 ;;
  9857                           
  9858                           	psect	text48
  9859  002366                     __ptext48:
  9860                           	opt stack 0
  9861  002366                     _CDCInitEP:
  9862                           	opt stack 20
  9863                           
  9864                           ;usb_device_cdc.c: 297: line_coding.dwDTERate = 19200;
  9865                           
  9866                           ;incstack = 0
  9867  002366  0E00               	movlw	0
  9868  002368  6E49               	movwf	_line_coding,c
  9869  00236A  0E4B               	movlw	75
  9870  00236C  6E4A               	movwf	_line_coding+1,c
  9871  00236E  0E00               	movlw	0
  9872  002370  6E4B               	movwf	_line_coding+2,c
  9873  002372  0E00               	movlw	0
  9874  002374  6E4C               	movwf	_line_coding+3,c
  9875                           
  9876                           ;usb_device_cdc.c: 298: line_coding.bCharFormat = 0x00;
  9877  002376  0E00               	movlw	0
  9878  002378  6E4D               	movwf	_line_coding+4,c
  9879                           
  9880                           ;usb_device_cdc.c: 299: line_coding.bParityType = 0x00;
  9881  00237A  0E00               	movlw	0
  9882  00237C  6E4E               	movwf	_line_coding+5,c
  9883                           
  9884                           ;usb_device_cdc.c: 300: line_coding.bDataBits = 0x08;
  9885  00237E  0E08               	movlw	8
  9886  002380  6E4F               	movwf	_line_coding+6,c
  9887                           
  9888                           ;usb_device_cdc.c: 302: cdc_rx_len = 0;
  9889  002382  0E00               	movlw	0
  9890  002384  0100               	movlb	0	; () banked
  9891  002386  6F96               	movwf	_cdc_rx_len& (0+255),b
  9892                           
  9893                           ; BSR set to: 0
  9894                           ;usb_device_cdc.c: 315: USBEnableEndpoint(1,0x02|0x10|0x08);
  9895  002388  0E1A               	movlw	26
  9896  00238A  6E09               	movwf	USBEnableEndpoint@options,c
  9897  00238C  0E01               	movlw	1
  9898  00238E  EC83  F012         	call	_USBEnableEndpoint
  9899                           
  9900                           ;usb_device_cdc.c: 316: USBEnableEndpoint(2,0x02|0x04|0x10|0x08);
  9901  002392  0E1E               	movlw	30
  9902  002394  6E09               	movwf	USBEnableEndpoint@options,c
  9903  002396  0E02               	movlw	2
  9904  002398  EC83  F012         	call	_USBEnableEndpoint
  9905                           
  9906                           ;usb_device_cdc.c: 318: CDCDataOutHandle = USBTransferOnePacket(2,0,(uint8_t*)&cdc_data_
      +                          rx,sizeof(cdc_data_rx));
  9907  00239C  0E00               	movlw	0
  9908  00239E  6E01               	movwf	i2USBTransferOnePacket@dir,c
  9909  0023A0  0E80               	movlw	128
  9910  0023A2  6E02               	movwf	i2USBTransferOnePacket@data,c
  9911  0023A4  0E02               	movlw	2
  9912  0023A6  6E03               	movwf	i2USBTransferOnePacket@data+1,c
  9913  0023A8  0E40               	movlw	64
  9914  0023AA  6E04               	movwf	i2USBTransferOnePacket@len,c
  9915  0023AC  0E02               	movlw	2
  9916  0023AE  EC91  F00A         	call	i2_USBTransferOnePacket
  9917  0023B2  C001  F092         	movff	?i2_USBTransferOnePacket,_CDCDataOutHandle
  9918  0023B6  C002  F093         	movff	?i2_USBTransferOnePacket+1,_CDCDataOutHandle+1
  9919                           
  9920                           ;usb_device_cdc.c: 319: CDCDataInHandle = (0);
  9921  0023BA  0E00               	movlw	0
  9922  0023BC  0100               	movlb	0	; () banked
  9923  0023BE  6F90               	movwf	_CDCDataInHandle& (0+255),b
  9924  0023C0  0E00               	movlw	0
  9925  0023C2  0100               	movlb	0	; () banked
  9926  0023C4  6F91               	movwf	(_CDCDataInHandle+1)& (0+255),b
  9927                           
  9928                           ; BSR set to: 0
  9929                           ;usb_device_cdc.c: 346: cdc_trf_state = 0;
  9930  0023C6  0E00               	movlw	0
  9931  0023C8  0100               	movlb	0	; () banked
  9932  0023CA  6F98               	movwf	_cdc_trf_state& (0+255),b
  9933                           
  9934                           ; BSR set to: 0
  9935  0023CC  0012               	return		;funcret
  9936  0023CE                     __end_of_CDCInitEP:
  9937                           	opt stack 0
  9938                           pclatu	equ	0xFFB
  9939                           pclath	equ	0xFFA
  9940                           tblptru	equ	0xFF8
  9941                           tblptrh	equ	0xFF7
  9942                           tblptrl	equ	0xFF6
  9943                           tablat	equ	0xFF5
  9944                           prodh	equ	0xFF4
  9945                           prodl	equ	0xFF3
  9946                           intcon	equ	0xFF2
  9947                           postinc0	equ	0xFEE
  9948                           fsr0h	equ	0xFEA
  9949                           fsr0l	equ	0xFE9
  9950                           wreg	equ	0xFE8
  9951                           indf1	equ	0xFE7
  9952                           postdec1	equ	0xFE5
  9953                           fsr1h	equ	0xFE2
  9954                           fsr1l	equ	0xFE1
  9955                           indf2	equ	0xFDF
  9956                           postinc2	equ	0xFDE
  9957                           postdec2	equ	0xFDD
  9958                           plusw2	equ	0xFDB
  9959                           fsr2h	equ	0xFDA
  9960                           fsr2l	equ	0xFD9
  9961                           status	equ	0xFD8
  9962                           
  9963 ;; *************** function i2_USBTransferOnePacket *****************
  9964 ;; Defined at:
  9965 ;;		line 995 in file "picLibs/usb_device.c"
  9966 ;; Parameters:    Size  Location     Type
  9967 ;;  ep              1    wreg     unsigned char 
  9968 ;;  dir             1    0[COMRAM] unsigned char 
  9969 ;;  data            2    1[COMRAM] PTR unsigned char 
  9970 ;;		 -> cdc_data_tx(64), cdc_data_rx(64), NULL(0), 
  9971 ;;  len             1    3[COMRAM] unsigned char 
  9972 ;; Auto vars:     Size  Location     Type
  9973 ;;  ep              1    8[COMRAM] unsigned char 
  9974 ;;  USBTransferO    2    9[COMRAM] PTR volatile struct __BD
  9975 ;;		 -> RAM(767), NULL(0), BDT(48), 
  9976 ;; Return value:  Size  Location     Type
  9977 ;;                  2    0[COMRAM] PTR void 
  9978 ;; Registers used:
  9979 ;;		wreg, fsr2l, fsr2h, status,2, status,0, prodl, prodh
  9980 ;; Tracked objects:
  9981 ;;		On entry : 0/0
  9982 ;;		On exit  : 0/0
  9983 ;;		Unchanged: 0/0
  9984 ;; Data sizes:     COMRAM   BANK0   BANK1   BANK2
  9985 ;;      Params:         4       0       0       0
  9986 ;;      Locals:         3       0       0       0
  9987 ;;      Temps:          4       0       0       0
  9988 ;;      Totals:        11       0       0       0
  9989 ;;Total ram usage:       11 bytes
  9990 ;; Hardware stack levels used:    1
  9991 ;; This function calls:
  9992 ;;		Nothing
  9993 ;; This function is called by:
  9994 ;;		_CDCInitEP
  9995 ;; This function uses a non-reentrant model
  9996 ;;
  9997                           
  9998                           	psect	text49
  9999  001522                     __ptext49:
 10000                           	opt stack 0
 10001  001522                     i2_USBTransferOnePacket:
 10002                           	opt stack 21
 10003                           
 10004                           ; BSR set to: 0
 10005                           ;incstack = 0
 10006                           ;i2USBTransferOnePacket@ep stored from wreg
 10007  001522  6E09               	movwf	i2USBTransferOnePacket@ep,c
 10008                           
 10009                           ;usb_device.c: 997: volatile BDT_ENTRY* handle;
 10010                           ;usb_device.c: 1000: if(dir != 0)
 10011  001524  5001               	movf	i2USBTransferOnePacket@dir,w,c
 10012  001526  B4D8               	btfsc	status,2,c
 10013  001528  D007               	goto	i2l3178
 10014                           
 10015                           ;usb_device.c: 1001: {
 10016                           ;usb_device.c: 1003: handle = pBDTEntryIn[ep];
 10017  00152A  5009               	movf	i2USBTransferOnePacket@ep,w,c
 10018  00152C  0D02               	mullw	2
 10019  00152E  0E78               	movlw	low _pBDTEntryIn
 10020  001530  24F3               	addwf	prodl,w,c
 10021  001532  6ED9               	movwf	fsr2l,c
 10022  001534  0E00               	movlw	high _pBDTEntryIn
 10023  001536  D006               	goto	L12
 10024  001538                     i2l3178:
 10025                           
 10026                           ;usb_device.c: 1005: else
 10027                           ;usb_device.c: 1006: {
 10028                           ;usb_device.c: 1008: handle = pBDTEntryOut[ep];
 10029  001538  5009               	movf	i2USBTransferOnePacket@ep,w,c
 10030  00153A  0D02               	mullw	2
 10031  00153C  0E7E               	movlw	low _pBDTEntryOut
 10032  00153E  24F3               	addwf	prodl,w,c
 10033  001540  6ED9               	movwf	fsr2l,c
 10034  001542  0E00               	movlw	high _pBDTEntryOut
 10035  001544                     L12:
 10036  001544  20F4               	addwfc	prodh,w,c
 10037  001546  6EDA               	movwf	fsr2h,c
 10038  001548  CFDE F00A          	movff	postinc2,i2USBTransferOnePacket@handle
 10039  00154C  CFDD F00B          	movff	postdec2,i2USBTransferOnePacket@handle+1
 10040                           
 10041                           ;usb_device.c: 1009: }
 10042                           ;usb_device.c: 1013: if(handle == 0)
 10043  001550  500A               	movf	i2USBTransferOnePacket@handle,w,c
 10044  001552  100B               	iorwf	i2USBTransferOnePacket@handle+1,w,c
 10045  001554  A4D8               	btfss	status,2,c
 10046  001556  D005               	goto	i2l3186
 10047                           
 10048                           ;usb_device.c: 1014: {
 10049                           ;usb_device.c: 1015: return 0;
 10050  001558  0E00               	movlw	0
 10051  00155A  6E01               	movwf	?i2_USBTransferOnePacket,c
 10052  00155C  0E00               	movlw	0
 10053  00155E  6E02               	movwf	?i2_USBTransferOnePacket+1,c
 10054  001560  0012               	return	
 10055  001562                     i2l3186:
 10056                           
 10057                           ;usb_device.c: 1016: }
 10058                           ;usb_device.c: 1029: handle->ADR = ((uint16_t)(data));
 10059  001562  EE20 F002          	lfsr	2,2
 10060  001566  500A               	movf	i2USBTransferOnePacket@handle,w,c
 10061  001568  26D9               	addwf	fsr2l,f,c
 10062  00156A  500B               	movf	i2USBTransferOnePacket@handle+1,w,c
 10063  00156C  22DA               	addwfc	fsr2h,f,c
 10064  00156E  C002  FFDE         	movff	i2USBTransferOnePacket@data,postinc2
 10065  001572  C003  FFDD         	movff	i2USBTransferOnePacket@data+1,postdec2
 10066                           
 10067                           ;usb_device.c: 1030: handle->CNT = len;
 10068  001576  EE20 F001          	lfsr	2,1
 10069  00157A  500A               	movf	i2USBTransferOnePacket@handle,w,c
 10070  00157C  26D9               	addwf	fsr2l,f,c
 10071  00157E  500B               	movf	i2USBTransferOnePacket@handle+1,w,c
 10072  001580  22DA               	addwfc	fsr2h,f,c
 10073  001582  C004  FFDF         	movff	i2USBTransferOnePacket@len,indf2
 10074                           
 10075                           ;usb_device.c: 1031: handle->STAT.Val &= 0x40;
 10076  001586  C00A  FFD9         	movff	i2USBTransferOnePacket@handle,fsr2l
 10077  00158A  C00B  FFDA         	movff	i2USBTransferOnePacket@handle+1,fsr2h
 10078  00158E  0E40               	movlw	64
 10079  001590  16DF               	andwf	indf2,f,c
 10080                           
 10081                           ;usb_device.c: 1032: handle->STAT.Val |= (0x08 & 0x08);
 10082  001592  C00A  FFD9         	movff	i2USBTransferOnePacket@handle,fsr2l
 10083  001596  C00B  FFDA         	movff	i2USBTransferOnePacket@handle+1,fsr2h
 10084  00159A  0E00               	movlw	0
 10085  00159C  86DB               	bsf	plusw2,3,c
 10086                           
 10087                           ;usb_device.c: 1033: handle->STAT.Val |= 0x80;
 10088  00159E  C00A  FFD9         	movff	i2USBTransferOnePacket@handle,fsr2l
 10089  0015A2  C00B  FFDA         	movff	i2USBTransferOnePacket@handle+1,fsr2h
 10090  0015A6  0E00               	movlw	0
 10091  0015A8  8EDB               	bsf	plusw2,7,c
 10092                           
 10093                           ;usb_device.c: 1036: if(dir != 0)
 10094  0015AA  5001               	movf	i2USBTransferOnePacket@dir,w,c
 10095  0015AC  B4D8               	btfsc	status,2,c
 10096  0015AE  D018               	goto	i2l3198
 10097                           
 10098                           ;usb_device.c: 1037: {
 10099                           ;usb_device.c: 1039: pBDTEntryIn[ep] = (BDT_ENTRY*)(((uintptr_t)pBDTEntryIn[ep]) ^ 0x000
      +                          4);
 10100  0015B0  5009               	movf	i2USBTransferOnePacket@ep,w,c
 10101  0015B2  0D02               	mullw	2
 10102  0015B4  0E78               	movlw	low _pBDTEntryIn
 10103  0015B6  24F3               	addwf	prodl,w,c
 10104  0015B8  6ED9               	movwf	fsr2l,c
 10105  0015BA  0E00               	movlw	high _pBDTEntryIn
 10106  0015BC  20F4               	addwfc	prodh,w,c
 10107  0015BE  6EDA               	movwf	fsr2h,c
 10108  0015C0  CFDE F005          	movff	postinc2,??i2_USBTransferOnePacket
 10109  0015C4  CFDD F006          	movff	postdec2,??i2_USBTransferOnePacket+1
 10110  0015C8  0E04               	movlw	4
 10111  0015CA  1805               	xorwf	??i2_USBTransferOnePacket,w,c
 10112  0015CC  6E07               	movwf	(??i2_USBTransferOnePacket+2)& (0+255),c
 10113  0015CE  5006               	movf	??i2_USBTransferOnePacket+1,w,c
 10114  0015D0  6E08               	movwf	(??i2_USBTransferOnePacket+3)& (0+255),c
 10115  0015D2  5009               	movf	i2USBTransferOnePacket@ep,w,c
 10116  0015D4  0D02               	mullw	2
 10117  0015D6  0E78               	movlw	low _pBDTEntryIn
 10118  0015D8  24F3               	addwf	prodl,w,c
 10119  0015DA  6ED9               	movwf	fsr2l,c
 10120  0015DC  0E00               	movlw	high _pBDTEntryIn
 10121  0015DE  D017               	goto	L13
 10122  0015E0                     i2l3198:
 10123                           
 10124                           ;usb_device.c: 1041: else
 10125                           ;usb_device.c: 1042: {
 10126                           ;usb_device.c: 1044: pBDTEntryOut[ep] = (BDT_ENTRY*)(((uintptr_t)pBDTEntryOut[ep]) ^ 0x0
      +                          004);
 10127  0015E0  5009               	movf	i2USBTransferOnePacket@ep,w,c
 10128  0015E2  0D02               	mullw	2
 10129  0015E4  0E7E               	movlw	low _pBDTEntryOut
 10130  0015E6  24F3               	addwf	prodl,w,c
 10131  0015E8  6ED9               	movwf	fsr2l,c
 10132  0015EA  0E00               	movlw	high _pBDTEntryOut
 10133  0015EC  20F4               	addwfc	prodh,w,c
 10134  0015EE  6EDA               	movwf	fsr2h,c
 10135  0015F0  CFDE F005          	movff	postinc2,??i2_USBTransferOnePacket
 10136  0015F4  CFDD F006          	movff	postdec2,??i2_USBTransferOnePacket+1
 10137  0015F8  0E04               	movlw	4
 10138  0015FA  1805               	xorwf	??i2_USBTransferOnePacket,w,c
 10139  0015FC  6E07               	movwf	(??i2_USBTransferOnePacket+2)& (0+255),c
 10140  0015FE  5006               	movf	??i2_USBTransferOnePacket+1,w,c
 10141  001600  6E08               	movwf	(??i2_USBTransferOnePacket+3)& (0+255),c
 10142  001602  5009               	movf	i2USBTransferOnePacket@ep,w,c
 10143  001604  0D02               	mullw	2
 10144  001606  0E7E               	movlw	low _pBDTEntryOut
 10145  001608  24F3               	addwf	prodl,w,c
 10146  00160A  6ED9               	movwf	fsr2l,c
 10147  00160C  0E00               	movlw	high _pBDTEntryOut
 10148  00160E                     L13:
 10149  00160E  20F4               	addwfc	prodh,w,c
 10150  001610  6EDA               	movwf	fsr2h,c
 10151  001612  C007  FFDE         	movff	??i2_USBTransferOnePacket+2,postinc2
 10152  001616  C008  FFDD         	movff	??i2_USBTransferOnePacket+3,postdec2
 10153                           
 10154                           ;usb_device.c: 1045: }
 10155                           ;usb_device.c: 1046: return (void*)handle;
 10156  00161A  C00A  F001         	movff	i2USBTransferOnePacket@handle,?i2_USBTransferOnePacket
 10157  00161E  C00B  F002         	movff	i2USBTransferOnePacket@handle+1,?i2_USBTransferOnePacket+1
 10158  001622  0012               	return	
 10159  001624                     __end_ofi2_USBTransferOnePacket:
 10160                           	opt stack 0
 10161                           pclatu	equ	0xFFB
 10162                           pclath	equ	0xFFA
 10163                           tblptru	equ	0xFF8
 10164                           tblptrh	equ	0xFF7
 10165                           tblptrl	equ	0xFF6
 10166                           tablat	equ	0xFF5
 10167                           prodh	equ	0xFF4
 10168                           prodl	equ	0xFF3
 10169                           intcon	equ	0xFF2
 10170                           postinc0	equ	0xFEE
 10171                           fsr0h	equ	0xFEA
 10172                           fsr0l	equ	0xFE9
 10173                           wreg	equ	0xFE8
 10174                           indf1	equ	0xFE7
 10175                           postdec1	equ	0xFE5
 10176                           fsr1h	equ	0xFE2
 10177                           fsr1l	equ	0xFE1
 10178                           indf2	equ	0xFDF
 10179                           postinc2	equ	0xFDE
 10180                           postdec2	equ	0xFDD
 10181                           plusw2	equ	0xFDB
 10182                           fsr2h	equ	0xFDA
 10183                           fsr2l	equ	0xFD9
 10184                           status	equ	0xFD8
 10185                           
 10186 ;; *************** function _USBEnableEndpoint *****************
 10187 ;; Defined at:
 10188 ;;		line 878 in file "picLibs/usb_device.c"
 10189 ;; Parameters:    Size  Location     Type
 10190 ;;  ep              1    wreg     unsigned char 
 10191 ;;  options         1    8[COMRAM] unsigned char 
 10192 ;; Auto vars:     Size  Location     Type
 10193 ;;  ep              1   11[COMRAM] unsigned char 
 10194 ;;  p               2    9[COMRAM] PTR unsigned char 
 10195 ;;		 -> UEP0(1), 
 10196 ;; Return value:  Size  Location     Type
 10197 ;;                  1    wreg      void 
 10198 ;; Registers used:
 10199 ;;		wreg, fsr2l, fsr2h, status,2, status,0, prodl, prodh, cstack
 10200 ;; Tracked objects:
 10201 ;;		On entry : 0/0
 10202 ;;		On exit  : 0/0
 10203 ;;		Unchanged: 0/0
 10204 ;; Data sizes:     COMRAM   BANK0   BANK1   BANK2
 10205 ;;      Params:         1       0       0       0
 10206 ;;      Locals:         3       0       0       0
 10207 ;;      Temps:          0       0       0       0
 10208 ;;      Totals:         4       0       0       0
 10209 ;;Total ram usage:        4 bytes
 10210 ;; Hardware stack levels used:    1
 10211 ;; Hardware stack levels required when called:    1
 10212 ;; This function calls:
 10213 ;;		_USBConfigureEndpoint
 10214 ;; This function is called by:
 10215 ;;		_CDCInitEP
 10216 ;; This function uses a non-reentrant model
 10217 ;;
 10218                           
 10219                           	psect	text50
 10220  002506                     __ptext50:
 10221                           	opt stack 0
 10222  002506                     _USBEnableEndpoint:
 10223                           	opt stack 20
 10224                           
 10225                           ;incstack = 0
 10226                           ;USBEnableEndpoint@ep stored from wreg
 10227  002506  6E0C               	movwf	USBEnableEndpoint@ep,c
 10228                           
 10229                           ;usb_device.c: 880: unsigned char* p;
 10230                           ;usb_device.c: 884: if(options & 0x04)
 10231  002508  A409               	btfss	USBEnableEndpoint@options,2,c
 10232  00250A  D005               	goto	i2l3154
 10233                           
 10234                           ;usb_device.c: 885: {
 10235                           ;usb_device.c: 886: USBConfigureEndpoint(ep, 0);
 10236  00250C  0E00               	movlw	0
 10237  00250E  6E01               	movwf	USBConfigureEndpoint@direction,c
 10238  002510  500C               	movf	USBEnableEndpoint@ep,w,c
 10239  002512  ECA7  F010         	call	_USBConfigureEndpoint
 10240  002516                     i2l3154:
 10241                           
 10242                           ;usb_device.c: 887: }
 10243                           ;usb_device.c: 888: if(options & 0x02)
 10244  002516  A209               	btfss	USBEnableEndpoint@options,1,c
 10245  002518  D005               	goto	i2l3158
 10246                           
 10247                           ;usb_device.c: 889: {
 10248                           ;usb_device.c: 890: USBConfigureEndpoint(ep, 1);
 10249  00251A  0E01               	movlw	1
 10250  00251C  6E01               	movwf	USBConfigureEndpoint@direction,c
 10251  00251E  500C               	movf	USBEnableEndpoint@ep,w,c
 10252  002520  ECA7  F010         	call	_USBConfigureEndpoint
 10253  002524                     i2l3158:
 10254                           
 10255                           ;usb_device.c: 891: }
 10256                           ;usb_device.c: 899: p = (unsigned char*)(&UEP0+ep);
 10257  002524  500C               	movf	USBEnableEndpoint@ep,w,c
 10258  002526  0D01               	mullw	1
 10259  002528  0E53               	movlw	83
 10260  00252A  24F3               	addwf	prodl,w,c
 10261  00252C  6E0A               	movwf	USBEnableEndpoint@p,c
 10262  00252E  0E0F               	movlw	15
 10263  002530  20F4               	addwfc	prodh,w,c
 10264  002532  6E0B               	movwf	USBEnableEndpoint@p+1,c
 10265                           
 10266                           ;usb_device.c: 901: *p = options;
 10267  002534  C00A  FFD9         	movff	USBEnableEndpoint@p,fsr2l
 10268  002538  C00B  FFDA         	movff	USBEnableEndpoint@p+1,fsr2h
 10269  00253C  C009  FFDF         	movff	USBEnableEndpoint@options,indf2
 10270  002540  0012               	return		;funcret
 10271  002542                     __end_of_USBEnableEndpoint:
 10272                           	opt stack 0
 10273                           pclatu	equ	0xFFB
 10274                           pclath	equ	0xFFA
 10275                           tblptru	equ	0xFF8
 10276                           tblptrh	equ	0xFF7
 10277                           tblptrl	equ	0xFF6
 10278                           tablat	equ	0xFF5
 10279                           prodh	equ	0xFF4
 10280                           prodl	equ	0xFF3
 10281                           intcon	equ	0xFF2
 10282                           postinc0	equ	0xFEE
 10283                           fsr0h	equ	0xFEA
 10284                           fsr0l	equ	0xFE9
 10285                           wreg	equ	0xFE8
 10286                           indf1	equ	0xFE7
 10287                           postdec1	equ	0xFE5
 10288                           fsr1h	equ	0xFE2
 10289                           fsr1l	equ	0xFE1
 10290                           indf2	equ	0xFDF
 10291                           postinc2	equ	0xFDE
 10292                           postdec2	equ	0xFDD
 10293                           plusw2	equ	0xFDB
 10294                           fsr2h	equ	0xFDA
 10295                           fsr2l	equ	0xFD9
 10296                           status	equ	0xFD8
 10297                           
 10298 ;; *************** function _USBConfigureEndpoint *****************
 10299 ;; Defined at:
 10300 ;;		line 1543 in file "picLibs/usb_device.c"
 10301 ;; Parameters:    Size  Location     Type
 10302 ;;  EPNum           1    wreg     unsigned char 
 10303 ;;  direction       1    0[COMRAM] unsigned char 
 10304 ;; Auto vars:     Size  Location     Type
 10305 ;;  EPNum           1    5[COMRAM] unsigned char 
 10306 ;;  handle          2    6[COMRAM] PTR volatile struct __BD
 10307 ;;		 -> BDT(48), 
 10308 ;; Return value:  Size  Location     Type
 10309 ;;                  1    wreg      void 
 10310 ;; Registers used:
 10311 ;;		wreg, fsr2l, fsr2h, status,2, status,0, prodl, prodh
 10312 ;; Tracked objects:
 10313 ;;		On entry : 0/0
 10314 ;;		On exit  : 0/0
 10315 ;;		Unchanged: 0/0
 10316 ;; Data sizes:     COMRAM   BANK0   BANK1   BANK2
 10317 ;;      Params:         1       0       0       0
 10318 ;;      Locals:         3       0       0       0
 10319 ;;      Temps:          4       0       0       0
 10320 ;;      Totals:         8       0       0       0
 10321 ;;Total ram usage:        8 bytes
 10322 ;; Hardware stack levels used:    1
 10323 ;; This function calls:
 10324 ;;		Nothing
 10325 ;; This function is called by:
 10326 ;;		_USBEnableEndpoint
 10327 ;; This function uses a non-reentrant model
 10328 ;;
 10329                           
 10330                           	psect	text51
 10331  00214E                     __ptext51:
 10332                           	opt stack 0
 10333  00214E                     _USBConfigureEndpoint:
 10334                           	opt stack 20
 10335                           
 10336                           ;incstack = 0
 10337                           ;USBConfigureEndpoint@EPNum stored from wreg
 10338  00214E  6E06               	movwf	USBConfigureEndpoint@EPNum,c
 10339                           
 10340                           ;usb_device.c: 1545: volatile BDT_ENTRY* handle;
 10341                           ;usb_device.c: 1549: handle = (volatile BDT_ENTRY*)&BDT[0];
 10342  002150  0E00               	movlw	0
 10343  002152  6E07               	movwf	USBConfigureEndpoint@handle,c
 10344  002154  0E02               	movlw	2
 10345  002156  6E08               	movwf	USBConfigureEndpoint@handle+1,c
 10346                           
 10347                           ;usb_device.c: 1550: handle += (4*EPNum+2*direction+0u);
 10348  002158  5001               	movf	USBConfigureEndpoint@direction,w,c
 10349  00215A  6E02               	movwf	??_USBConfigureEndpoint& (0+255),c
 10350  00215C  6A03               	clrf	(??_USBConfigureEndpoint+1)& (0+255),c
 10351  00215E  90D8               	bcf	status,0,c
 10352  002160  3602               	rlcf	??_USBConfigureEndpoint,f,c
 10353  002162  3603               	rlcf	??_USBConfigureEndpoint+1,f,c
 10354  002164  5006               	movf	USBConfigureEndpoint@EPNum,w,c
 10355  002166  6E04               	movwf	(??_USBConfigureEndpoint+2)& (0+255),c
 10356  002168  6A05               	clrf	(??_USBConfigureEndpoint+3)& (0+255),c
 10357  00216A  90D8               	bcf	status,0,c
 10358  00216C  3604               	rlcf	??_USBConfigureEndpoint+2,f,c
 10359  00216E  3605               	rlcf	??_USBConfigureEndpoint+3,f,c
 10360  002170  90D8               	bcf	status,0,c
 10361  002172  3604               	rlcf	??_USBConfigureEndpoint+2,f,c
 10362  002174  3605               	rlcf	??_USBConfigureEndpoint+3,f,c
 10363  002176  5002               	movf	??_USBConfigureEndpoint,w,c
 10364  002178  2604               	addwf	??_USBConfigureEndpoint+2,f,c
 10365  00217A  5003               	movf	??_USBConfigureEndpoint+1,w,c
 10366  00217C  2205               	addwfc	??_USBConfigureEndpoint+3,f,c
 10367  00217E  90D8               	bcf	status,0,c
 10368  002180  3604               	rlcf	??_USBConfigureEndpoint+2,f,c
 10369  002182  3605               	rlcf	??_USBConfigureEndpoint+3,f,c
 10370  002184  90D8               	bcf	status,0,c
 10371  002186  3604               	rlcf	??_USBConfigureEndpoint+2,f,c
 10372  002188  3605               	rlcf	??_USBConfigureEndpoint+3,f,c
 10373  00218A  5004               	movf	??_USBConfigureEndpoint+2,w,c
 10374  00218C  2607               	addwf	USBConfigureEndpoint@handle,f,c
 10375  00218E  5005               	movf	??_USBConfigureEndpoint+3,w,c
 10376  002190  2208               	addwfc	USBConfigureEndpoint@handle+1,f,c
 10377                           
 10378                           ;usb_device.c: 1552: handle->STAT.UOWN = 0;
 10379  002192  C007  FFD9         	movff	USBConfigureEndpoint@handle,fsr2l
 10380  002196  C008  FFDA         	movff	USBConfigureEndpoint@handle+1,fsr2h
 10381  00219A  9EDF               	bcf	indf2,7,c
 10382                           
 10383                           ;usb_device.c: 1557: if(direction == 0)
 10384  00219C  5001               	movf	USBConfigureEndpoint@direction,w,c
 10385  00219E  A4D8               	btfss	status,2,c
 10386  0021A0  D007               	goto	i2l3132
 10387                           
 10388                           ;usb_device.c: 1558: {
 10389                           ;usb_device.c: 1559: pBDTEntryOut[EPNum] = handle;
 10390  0021A2  5006               	movf	USBConfigureEndpoint@EPNum,w,c
 10391  0021A4  0D02               	mullw	2
 10392  0021A6  0E7E               	movlw	low _pBDTEntryOut
 10393  0021A8  24F3               	addwf	prodl,w,c
 10394  0021AA  6ED9               	movwf	fsr2l,c
 10395  0021AC  0E00               	movlw	high _pBDTEntryOut
 10396  0021AE  D006               	goto	L14
 10397  0021B0                     i2l3132:
 10398                           
 10399                           ;usb_device.c: 1561: else
 10400                           ;usb_device.c: 1562: {
 10401                           ;usb_device.c: 1563: pBDTEntryIn[EPNum] = handle;
 10402  0021B0  5006               	movf	USBConfigureEndpoint@EPNum,w,c
 10403  0021B2  0D02               	mullw	2
 10404  0021B4  0E78               	movlw	low _pBDTEntryIn
 10405  0021B6  24F3               	addwf	prodl,w,c
 10406  0021B8  6ED9               	movwf	fsr2l,c
 10407  0021BA  0E00               	movlw	high _pBDTEntryIn
 10408  0021BC                     L14:
 10409  0021BC  20F4               	addwfc	prodh,w,c
 10410  0021BE  6EDA               	movwf	fsr2h,c
 10411  0021C0  C007  FFDE         	movff	USBConfigureEndpoint@handle,postinc2
 10412  0021C4  C008  FFDD         	movff	USBConfigureEndpoint@handle+1,postdec2
 10413                           
 10414                           ;usb_device.c: 1564: }
 10415                           ;usb_device.c: 1567: handle->STAT.DTS = 0;
 10416  0021C8  C007  FFD9         	movff	USBConfigureEndpoint@handle,fsr2l
 10417  0021CC  C008  FFDA         	movff	USBConfigureEndpoint@handle+1,fsr2h
 10418  0021D0  9CDF               	bcf	indf2,6,c
 10419                           
 10420                           ;usb_device.c: 1568: (handle+1)->STAT.DTS = 1;
 10421  0021D2  EE20 F004          	lfsr	2,4
 10422  0021D6  5007               	movf	USBConfigureEndpoint@handle,w,c
 10423  0021D8  26D9               	addwf	fsr2l,f,c
 10424  0021DA  5008               	movf	USBConfigureEndpoint@handle+1,w,c
 10425  0021DC  22DA               	addwfc	fsr2h,f,c
 10426  0021DE  8CDF               	bsf	indf2,6,c
 10427  0021E0  0012               	return		;funcret
 10428  0021E2                     __end_of_USBConfigureEndpoint:
 10429                           	opt stack 0
 10430                           pclatu	equ	0xFFB
 10431                           pclath	equ	0xFFA
 10432                           tblptru	equ	0xFF8
 10433                           tblptrh	equ	0xFF7
 10434                           tblptrl	equ	0xFF6
 10435                           tablat	equ	0xFF5
 10436                           prodh	equ	0xFF4
 10437                           prodl	equ	0xFF3
 10438                           intcon	equ	0xFF2
 10439                           postinc0	equ	0xFEE
 10440                           fsr0h	equ	0xFEA
 10441                           fsr0l	equ	0xFE9
 10442                           wreg	equ	0xFE8
 10443                           indf1	equ	0xFE7
 10444                           postdec1	equ	0xFE5
 10445                           fsr1h	equ	0xFE2
 10446                           fsr1l	equ	0xFE1
 10447                           indf2	equ	0xFDF
 10448                           postinc2	equ	0xFDE
 10449                           postdec2	equ	0xFDD
 10450                           plusw2	equ	0xFDB
 10451                           fsr2h	equ	0xFDA
 10452                           fsr2l	equ	0xFD9
 10453                           status	equ	0xFD8
 10454                           
 10455 ;; *************** function _APP_LEDUpdateUSBStatus *****************
 10456 ;; Defined at:
 10457 ;;		line 50 in file "picLibs/app_led_usb_status.c"
 10458 ;; Parameters:    Size  Location     Type
 10459 ;;		None
 10460 ;; Auto vars:     Size  Location     Type
 10461 ;;		None
 10462 ;; Return value:  Size  Location     Type
 10463 ;;                  1    wreg      void 
 10464 ;; Registers used:
 10465 ;;		wreg, status,2, status,0, cstack
 10466 ;; Tracked objects:
 10467 ;;		On entry : 0/0
 10468 ;;		On exit  : 0/0
 10469 ;;		Unchanged: 0/0
 10470 ;; Data sizes:     COMRAM   BANK0   BANK1   BANK2
 10471 ;;      Params:         0       0       0       0
 10472 ;;      Locals:         0       0       0       0
 10473 ;;      Temps:          0       0       0       0
 10474 ;;      Totals:         0       0       0       0
 10475 ;;Total ram usage:        0 bytes
 10476 ;; Hardware stack levels used:    1
 10477 ;; Hardware stack levels required when called:    1
 10478 ;; This function calls:
 10479 ;;		_LED_Off
 10480 ;;		_LED_On
 10481 ;; This function is called by:
 10482 ;;		_USER_USB_CALLBACK_EVENT_HANDLER
 10483 ;; This function uses a non-reentrant model
 10484 ;;
 10485                           
 10486                           	psect	text52
 10487  002264                     __ptext52:
 10488                           	opt stack 0
 10489  002264                     _APP_LEDUpdateUSBStatus:
 10490                           	opt stack 21
 10491                           
 10492                           ;app_led_usb_status.c: 52: static uint16_t ledCount = 0;
 10493                           ;app_led_usb_status.c: 54: if(UCONbits.SUSPND == 1)
 10494                           
 10495                           ;incstack = 0
 10496  002264  A264               	btfss	3940,1,c	;volatile
 10497  002266  D036               	goto	i2l3238
 10498                           
 10499                           ;app_led_usb_status.c: 55: {
 10500                           ;app_led_usb_status.c: 56: LED_Off(LED_D1);
 10501  002268  0E01               	movlw	1
 10502  00226A  EC2A  F013         	call	_LED_Off
 10503                           
 10504                           ;app_led_usb_status.c: 57: return;
 10505  00226E  0012               	return	
 10506  002270                     i2l3212:
 10507                           
 10508                           ;app_led_usb_status.c: 65: if(ledCount == 1)
 10509  002270  0439               	decf	APP_LEDUpdateUSBStatus@ledCount,w,c
 10510  002272  103A               	iorwf	APP_LEDUpdateUSBStatus@ledCount+1,w,c
 10511  002274  A4D8               	btfss	status,2,c
 10512  002276  D004               	goto	i2l3216
 10513                           
 10514                           ;app_led_usb_status.c: 66: {
 10515                           ;app_led_usb_status.c: 67: LED_On(LED_D1);
 10516  002278  0E01               	movlw	1
 10517  00227A  EC0F  F013         	call	_LED_On
 10518                           
 10519                           ;app_led_usb_status.c: 68: }
 10520  00227E  D030               	goto	i2l3240
 10521  002280                     i2l3216:
 10522                           
 10523                           ;app_led_usb_status.c: 69: else if(ledCount == 75)
 10524  002280  0E4B               	movlw	75
 10525  002282  1839               	xorwf	APP_LEDUpdateUSBStatus@ledCount,w,c
 10526  002284  103A               	iorwf	APP_LEDUpdateUSBStatus@ledCount+1,w,c
 10527  002286  A4D8               	btfss	status,2,c
 10528  002288  D004               	goto	i2l3220
 10529                           
 10530                           ;app_led_usb_status.c: 70: {
 10531                           ;app_led_usb_status.c: 71: LED_Off(LED_D1);
 10532  00228A  0E01               	movlw	1
 10533  00228C  EC2A  F013         	call	_LED_Off
 10534                           
 10535                           ;app_led_usb_status.c: 72: }
 10536  002290  D027               	goto	i2l3240
 10537  002292                     i2l3220:
 10538                           
 10539                           ;app_led_usb_status.c: 73: else if(ledCount > 150)
 10540  002292  503A               	movf	APP_LEDUpdateUSBStatus@ledCount+1,w,c
 10541  002294  E104               	bnz	i2u209_40
 10542  002296  0E97               	movlw	151
 10543  002298  5C39               	subwf	APP_LEDUpdateUSBStatus@ledCount,w,c
 10544  00229A  A0D8               	btfss	status,0,c
 10545  00229C  D021               	goto	i2l3240
 10546  00229E                     i2u209_40:
 10547                           
 10548                           ;app_led_usb_status.c: 74: {
 10549                           ;app_led_usb_status.c: 75: ledCount = 0;
 10550  00229E  0E00               	movlw	0
 10551  0022A0  6E3A               	movwf	APP_LEDUpdateUSBStatus@ledCount+1,c
 10552  0022A2  0E00               	movlw	0
 10553  0022A4  6E39               	movwf	APP_LEDUpdateUSBStatus@ledCount,c
 10554                           
 10555                           ;app_led_usb_status.c: 76: }
 10556                           ;app_led_usb_status.c: 77: break;
 10557  0022A6  D01C               	goto	i2l3240
 10558  0022A8                     i2l3224:
 10559                           
 10560                           ;app_led_usb_status.c: 82: if(ledCount == 1)
 10561  0022A8  0439               	decf	APP_LEDUpdateUSBStatus@ledCount,w,c
 10562  0022AA  103A               	iorwf	APP_LEDUpdateUSBStatus@ledCount+1,w,c
 10563  0022AC  A4D8               	btfss	status,2,c
 10564  0022AE  D004               	goto	i2l3228
 10565                           
 10566                           ;app_led_usb_status.c: 83: {
 10567                           ;app_led_usb_status.c: 84: LED_On(LED_D1);
 10568  0022B0  0E01               	movlw	1
 10569  0022B2  EC0F  F013         	call	_LED_On
 10570                           
 10571                           ;app_led_usb_status.c: 85: }
 10572  0022B6  D014               	goto	i2l3240
 10573  0022B8                     i2l3228:
 10574                           
 10575                           ;app_led_usb_status.c: 86: else if(ledCount == 50)
 10576  0022B8  0E32               	movlw	50
 10577  0022BA  1839               	xorwf	APP_LEDUpdateUSBStatus@ledCount,w,c
 10578  0022BC  103A               	iorwf	APP_LEDUpdateUSBStatus@ledCount+1,w,c
 10579  0022BE  A4D8               	btfss	status,2,c
 10580  0022C0  D004               	goto	i2l3232
 10581                           
 10582                           ;app_led_usb_status.c: 87: {
 10583                           ;app_led_usb_status.c: 88: LED_Off(LED_D1);
 10584  0022C2  0E01               	movlw	1
 10585  0022C4  EC2A  F013         	call	_LED_Off
 10586                           
 10587                           ;app_led_usb_status.c: 89: }
 10588  0022C8  D00B               	goto	i2l3240
 10589  0022CA                     i2l3232:
 10590                           
 10591                           ;app_led_usb_status.c: 90: else if(ledCount > 950)
 10592  0022CA  0EB7               	movlw	183
 10593  0022CC  5C39               	subwf	APP_LEDUpdateUSBStatus@ledCount,w,c
 10594  0022CE  0E03               	movlw	3
 10595  0022D0  583A               	subwfb	APP_LEDUpdateUSBStatus@ledCount+1,w,c
 10596  0022D2  D7E3               	goto	L15
 10597  0022D4                     i2l3238:
 10598  0022D4  0100               	movlb	0	; () banked
 10599  0022D6  5199               	movf	_USBDeviceState& (0+255),w,b	;volatile
 10600                           
 10601                           ; Switch size 1, requested type "space"
 10602                           ; Number of cases is 1, Range of values is 32 to 32
 10603                           ; switch strategies available:
 10604                           ; Name         Instructions Cycles
 10605                           ; simple_byte            4     3 (average)
 10606                           ;	Chosen strategy is simple_byte
 10607  0022D8  0A20               	xorlw	32	; case 32
 10608  0022DA  B4D8               	btfsc	status,2,c
 10609  0022DC  D7C9               	goto	i2l3212
 10610  0022DE  D7E4               	goto	i2l3224
 10611  0022E0                     i2l3240:
 10612                           
 10613                           ;app_led_usb_status.c: 98: ledCount++;
 10614  0022E0  4A39               	infsnz	APP_LEDUpdateUSBStatus@ledCount,f,c
 10615  0022E2  2A3A               	incf	APP_LEDUpdateUSBStatus@ledCount+1,f,c
 10616  0022E4  0012               	return		;funcret
 10617  0022E6                     __end_of_APP_LEDUpdateUSBStatus:
 10618                           	opt stack 0
 10619                           pclatu	equ	0xFFB
 10620                           pclath	equ	0xFFA
 10621                           tblptru	equ	0xFF8
 10622                           tblptrh	equ	0xFF7
 10623                           tblptrl	equ	0xFF6
 10624                           tablat	equ	0xFF5
 10625                           prodh	equ	0xFF4
 10626                           prodl	equ	0xFF3
 10627                           intcon	equ	0xFF2
 10628                           postinc0	equ	0xFEE
 10629                           fsr0h	equ	0xFEA
 10630                           fsr0l	equ	0xFE9
 10631                           wreg	equ	0xFE8
 10632                           indf1	equ	0xFE7
 10633                           postdec1	equ	0xFE5
 10634                           fsr1h	equ	0xFE2
 10635                           fsr1l	equ	0xFE1
 10636                           indf2	equ	0xFDF
 10637                           postinc2	equ	0xFDE
 10638                           postdec2	equ	0xFDD
 10639                           plusw2	equ	0xFDB
 10640                           fsr2h	equ	0xFDA
 10641                           fsr2l	equ	0xFD9
 10642                           status	equ	0xFD8
 10643                           
 10644 ;; *************** function _LED_On *****************
 10645 ;; Defined at:
 10646 ;;		line 59 in file "picLibs/leds.c"
 10647 ;; Parameters:    Size  Location     Type
 10648 ;;  led             1    wreg     enum E2
 10649 ;; Auto vars:     Size  Location     Type
 10650 ;;  led             1    0[COMRAM] enum E2
 10651 ;; Return value:  Size  Location     Type
 10652 ;;                  1    wreg      void 
 10653 ;; Registers used:
 10654 ;;		wreg, status,2, status,0
 10655 ;; Tracked objects:
 10656 ;;		On entry : 0/0
 10657 ;;		On exit  : 0/0
 10658 ;;		Unchanged: 0/0
 10659 ;; Data sizes:     COMRAM   BANK0   BANK1   BANK2
 10660 ;;      Params:         0       0       0       0
 10661 ;;      Locals:         1       0       0       0
 10662 ;;      Temps:          0       0       0       0
 10663 ;;      Totals:         1       0       0       0
 10664 ;;Total ram usage:        1 bytes
 10665 ;; Hardware stack levels used:    1
 10666 ;; This function calls:
 10667 ;;		Nothing
 10668 ;; This function is called by:
 10669 ;;		_APP_LEDUpdateUSBStatus
 10670 ;; This function uses a non-reentrant model
 10671 ;;
 10672                           
 10673                           	psect	text53
 10674  00261E                     __ptext53:
 10675                           	opt stack 0
 10676  00261E                     _LED_On:
 10677                           	opt stack 21
 10678                           
 10679                           ;incstack = 0
 10680                           ;LED_On@led stored from wreg
 10681  00261E  6E01               	movwf	LED_On@led,c
 10682                           
 10683                           ;leds.c: 61: switch(led)
 10684  002620  D008               	goto	i2l3148
 10685  002622                     i2l178:
 10686                           
 10687                           ;leds.c: 64: LATCbits.LATC0 = 1;
 10688  002622  808B               	bsf	3979,0,c	;volatile
 10689                           
 10690                           ;leds.c: 65: break;
 10691  002624  0012               	return	
 10692  002626                     i2l180:
 10693                           
 10694                           ;leds.c: 68: LATCbits.LATC1 = 1;
 10695  002626  828B               	bsf	3979,1,c	;volatile
 10696                           
 10697                           ;leds.c: 69: break;
 10698  002628  0012               	return	
 10699  00262A                     i2l181:
 10700                           
 10701                           ;leds.c: 72: LATCbits.LATC2 = 1;
 10702  00262A  848B               	bsf	3979,2,c	;volatile
 10703                           
 10704                           ;leds.c: 73: break;
 10705  00262C  0012               	return	
 10706  00262E                     i2l182:
 10707                           
 10708                           ;leds.c: 76: LATCbits.LATC3 = 1;
 10709  00262E  868B               	bsf	3979,3,c	;volatile
 10710                           
 10711                           ;leds.c: 81: }
 10712                           
 10713                           ;leds.c: 80: break;
 10714                           
 10715                           ;leds.c: 79: case LED_NONE:
 10716                           
 10717                           ;leds.c: 77: break;
 10718  002630  0012               	return	
 10719  002632                     i2l3148:
 10720  002632  5001               	movf	LED_On@led,w,c
 10721                           
 10722                           ; Switch size 1, requested type "space"
 10723                           ; Number of cases is 5, Range of values is 0 to 4
 10724                           ; switch strategies available:
 10725                           ; Name         Instructions Cycles
 10726                           ; simple_byte           16     9 (average)
 10727                           ;	Chosen strategy is simple_byte
 10728  002634  0A00               	xorlw	0	; case 0
 10729  002636  B4D8               	btfsc	status,2,c
 10730  002638  0012               	return	
 10731  00263A  0A01               	xorlw	1	; case 1
 10732  00263C  B4D8               	btfsc	status,2,c
 10733  00263E  D7F1               	goto	i2l178
 10734  002640  0A03               	xorlw	3	; case 2
 10735  002642  B4D8               	btfsc	status,2,c
 10736  002644  D7F0               	goto	i2l180
 10737  002646  0A01               	xorlw	1	; case 3
 10738  002648  B4D8               	btfsc	status,2,c
 10739  00264A  D7EF               	goto	i2l181
 10740  00264C  0A07               	xorlw	7	; case 4
 10741  00264E  A4D8               	btfss	status,2,c
 10742  002650  0012               	return	
 10743  002652  D7ED               	goto	i2l182
 10744  002654                     __end_of_LED_On:
 10745                           	opt stack 0
 10746                           pclatu	equ	0xFFB
 10747                           pclath	equ	0xFFA
 10748                           tblptru	equ	0xFF8
 10749                           tblptrh	equ	0xFF7
 10750                           tblptrl	equ	0xFF6
 10751                           tablat	equ	0xFF5
 10752                           prodh	equ	0xFF4
 10753                           prodl	equ	0xFF3
 10754                           intcon	equ	0xFF2
 10755                           postinc0	equ	0xFEE
 10756                           fsr0h	equ	0xFEA
 10757                           fsr0l	equ	0xFE9
 10758                           wreg	equ	0xFE8
 10759                           indf1	equ	0xFE7
 10760                           postdec1	equ	0xFE5
 10761                           fsr1h	equ	0xFE2
 10762                           fsr1l	equ	0xFE1
 10763                           indf2	equ	0xFDF
 10764                           postinc2	equ	0xFDE
 10765                           postdec2	equ	0xFDD
 10766                           plusw2	equ	0xFDB
 10767                           fsr2h	equ	0xFDA
 10768                           fsr2l	equ	0xFD9
 10769                           status	equ	0xFD8
 10770                           
 10771 ;; *************** function _LED_Off *****************
 10772 ;; Defined at:
 10773 ;;		line 100 in file "picLibs/leds.c"
 10774 ;; Parameters:    Size  Location     Type
 10775 ;;  led             1    wreg     enum E2
 10776 ;; Auto vars:     Size  Location     Type
 10777 ;;  led             1    0[COMRAM] enum E2
 10778 ;; Return value:  Size  Location     Type
 10779 ;;                  1    wreg      void 
 10780 ;; Registers used:
 10781 ;;		wreg, status,2, status,0
 10782 ;; Tracked objects:
 10783 ;;		On entry : 0/0
 10784 ;;		On exit  : 0/0
 10785 ;;		Unchanged: 0/0
 10786 ;; Data sizes:     COMRAM   BANK0   BANK1   BANK2
 10787 ;;      Params:         0       0       0       0
 10788 ;;      Locals:         1       0       0       0
 10789 ;;      Temps:          0       0       0       0
 10790 ;;      Totals:         1       0       0       0
 10791 ;;Total ram usage:        1 bytes
 10792 ;; Hardware stack levels used:    1
 10793 ;; This function calls:
 10794 ;;		Nothing
 10795 ;; This function is called by:
 10796 ;;		_APP_LEDUpdateUSBStatus
 10797 ;; This function uses a non-reentrant model
 10798 ;;
 10799                           
 10800                           	psect	text54
 10801  002654                     __ptext54:
 10802                           	opt stack 0
 10803  002654                     _LED_Off:
 10804                           	opt stack 21
 10805                           
 10806                           ;incstack = 0
 10807                           ;LED_Off@led stored from wreg
 10808  002654  6E01               	movwf	LED_Off@led,c
 10809                           
 10810                           ;leds.c: 102: switch(led)
 10811  002656  D008               	goto	i2l3142
 10812  002658                     i2l188:
 10813                           
 10814                           ;leds.c: 105: LATCbits.LATC0 = 0;
 10815  002658  908B               	bcf	3979,0,c	;volatile
 10816                           
 10817                           ;leds.c: 106: break;
 10818  00265A  0012               	return	
 10819  00265C                     i2l190:
 10820                           
 10821                           ;leds.c: 109: LATCbits.LATC1 = 0;
 10822  00265C  928B               	bcf	3979,1,c	;volatile
 10823                           
 10824                           ;leds.c: 110: break;
 10825  00265E  0012               	return	
 10826  002660                     i2l191:
 10827                           
 10828                           ;leds.c: 113: LATCbits.LATC2 = 0;
 10829  002660  948B               	bcf	3979,2,c	;volatile
 10830                           
 10831                           ;leds.c: 114: break;
 10832  002662  0012               	return	
 10833  002664                     i2l192:
 10834                           
 10835                           ;leds.c: 117: LATCbits.LATC3 = 0;
 10836  002664  968B               	bcf	3979,3,c	;volatile
 10837                           
 10838                           ;leds.c: 122: }
 10839                           
 10840                           ;leds.c: 121: break;
 10841                           
 10842                           ;leds.c: 120: case LED_NONE:
 10843                           
 10844                           ;leds.c: 118: break;
 10845  002666  0012               	return	
 10846  002668                     i2l3142:
 10847  002668  5001               	movf	LED_Off@led,w,c
 10848                           
 10849                           ; Switch size 1, requested type "space"
 10850                           ; Number of cases is 5, Range of values is 0 to 4
 10851                           ; switch strategies available:
 10852                           ; Name         Instructions Cycles
 10853                           ; simple_byte           16     9 (average)
 10854                           ;	Chosen strategy is simple_byte
 10855  00266A  0A00               	xorlw	0	; case 0
 10856  00266C  B4D8               	btfsc	status,2,c
 10857  00266E  0012               	return	
 10858  002670  0A01               	xorlw	1	; case 1
 10859  002672  B4D8               	btfsc	status,2,c
 10860  002674  D7F1               	goto	i2l188
 10861  002676  0A03               	xorlw	3	; case 2
 10862  002678  B4D8               	btfsc	status,2,c
 10863  00267A  D7F0               	goto	i2l190
 10864  00267C  0A01               	xorlw	1	; case 3
 10865  00267E  B4D8               	btfsc	status,2,c
 10866  002680  D7EF               	goto	i2l191
 10867  002682  0A07               	xorlw	7	; case 4
 10868  002684  A4D8               	btfss	status,2,c
 10869  002686  0012               	return	
 10870  002688  D7ED               	goto	i2l192
 10871  00268A                     __end_of_LED_Off:
 10872                           	opt stack 0
 10873                           pclatu	equ	0xFFB
 10874                           pclath	equ	0xFFA
 10875                           tblptru	equ	0xFF8
 10876                           tblptrh	equ	0xFF7
 10877                           tblptrl	equ	0xFF6
 10878                           tablat	equ	0xFF5
 10879                           prodh	equ	0xFF4
 10880                           prodl	equ	0xFF3
 10881                           intcon	equ	0xFF2
 10882                           postinc0	equ	0xFEE
 10883                           fsr0h	equ	0xFEA
 10884                           fsr0l	equ	0xFE9
 10885                           wreg	equ	0xFE8
 10886                           indf1	equ	0xFE7
 10887                           postdec1	equ	0xFE5
 10888                           fsr1h	equ	0xFE2
 10889                           fsr1l	equ	0xFE1
 10890                           indf2	equ	0xFDF
 10891                           postinc2	equ	0xFDE
 10892                           postdec2	equ	0xFDD
 10893                           plusw2	equ	0xFDB
 10894                           fsr2h	equ	0xFDA
 10895                           fsr2l	equ	0xFD9
 10896                           status	equ	0xFD8
 10897                           
 10898 ;; *************** function _APP_DeviceCDCBasicDemoInitialize *****************
 10899 ;; Defined at:
 10900 ;;		line 53 in file "picLibs/app_device_cdc_basic.c"
 10901 ;; Parameters:    Size  Location     Type
 10902 ;;		None
 10903 ;; Auto vars:     Size  Location     Type
 10904 ;;		None
 10905 ;; Return value:  Size  Location     Type
 10906 ;;                  1    wreg      void 
 10907 ;; Registers used:
 10908 ;;		wreg, status,2
 10909 ;; Tracked objects:
 10910 ;;		On entry : 0/0
 10911 ;;		On exit  : 0/0
 10912 ;;		Unchanged: 0/0
 10913 ;; Data sizes:     COMRAM   BANK0   BANK1   BANK2
 10914 ;;      Params:         0       0       0       0
 10915 ;;      Locals:         0       0       0       0
 10916 ;;      Temps:          0       0       0       0
 10917 ;;      Totals:         0       0       0       0
 10918 ;;Total ram usage:        0 bytes
 10919 ;; Hardware stack levels used:    1
 10920 ;; This function calls:
 10921 ;;		Nothing
 10922 ;; This function is called by:
 10923 ;;		_USER_USB_CALLBACK_EVENT_HANDLER
 10924 ;; This function uses a non-reentrant model
 10925 ;;
 10926                           
 10927                           	psect	text55
 10928  002814                     __ptext55:
 10929                           	opt stack 0
 10930  002814                     _APP_DeviceCDCBasicDemoInitialize:
 10931                           	opt stack 22
 10932                           
 10933                           ;app_device_cdc_basic.c: 55: line_coding.bCharFormat = 0;
 10934                           
 10935                           ;incstack = 0
 10936  002814  0E00               	movlw	0
 10937  002816  6E4D               	movwf	_line_coding+4,c
 10938                           
 10939                           ;app_device_cdc_basic.c: 56: line_coding.bDataBits = 8;
 10940  002818  0E08               	movlw	8
 10941  00281A  6E4F               	movwf	_line_coding+6,c
 10942                           
 10943                           ;app_device_cdc_basic.c: 57: line_coding.bParityType = 0;
 10944  00281C  0E00               	movlw	0
 10945  00281E  6E4E               	movwf	_line_coding+5,c
 10946                           
 10947                           ;app_device_cdc_basic.c: 58: line_coding.dwDTERate = 9600;
 10948  002820  0E80               	movlw	128
 10949  002822  6E49               	movwf	_line_coding,c
 10950  002824  0E25               	movlw	37
 10951  002826  6E4A               	movwf	_line_coding+1,c
 10952  002828  0E00               	movlw	0
 10953  00282A  6E4B               	movwf	_line_coding+2,c
 10954  00282C  0E00               	movlw	0
 10955  00282E  6E4C               	movwf	_line_coding+3,c
 10956                           
 10957                           ;app_device_cdc_basic.c: 60: buttonPressed = 0;
 10958  002830  0E00               	movlw	0
 10959  002832  0100               	movlb	0	; () banked
 10960  002834  6F97               	movwf	_buttonPressed& (0+255),b
 10961                           
 10962                           ; BSR set to: 0
 10963  002836  0012               	return		;funcret
 10964  002838                     __end_of_APP_DeviceCDCBasicDemoInitialize:
 10965                           	opt stack 0
 10966                           pclatu	equ	0xFFB
 10967                           pclath	equ	0xFFA
 10968                           tblptru	equ	0xFF8
 10969                           tblptrh	equ	0xFF7
 10970                           tblptrl	equ	0xFF6
 10971                           tablat	equ	0xFF5
 10972                           prodh	equ	0xFF4
 10973                           prodl	equ	0xFF3
 10974                           intcon	equ	0xFF2
 10975                           postinc0	equ	0xFEE
 10976                           fsr0h	equ	0xFEA
 10977                           fsr0l	equ	0xFE9
 10978                           wreg	equ	0xFE8
 10979                           indf1	equ	0xFE7
 10980                           postdec1	equ	0xFE5
 10981                           fsr1h	equ	0xFE2
 10982                           fsr1l	equ	0xFE1
 10983                           indf2	equ	0xFDF
 10984                           postinc2	equ	0xFDE
 10985                           postdec2	equ	0xFDD
 10986                           plusw2	equ	0xFDB
 10987                           fsr2h	equ	0xFDA
 10988                           fsr2l	equ	0xFD9
 10989                           status	equ	0xFD8
 10990                           
 10991 ;; *************** function _USBCtrlTrfOutHandler *****************
 10992 ;; Defined at:
 10993 ;;		line 2538 in file "picLibs/usb_device.c"
 10994 ;; Parameters:    Size  Location     Type
 10995 ;;		None
 10996 ;; Auto vars:     Size  Location     Type
 10997 ;;		None
 10998 ;; Return value:  Size  Location     Type
 10999 ;;                  1    wreg      void 
 11000 ;; Registers used:
 11001 ;;		wreg, fsr1l, fsr1h, fsr2l, fsr2h, status,2, status,0, prodl, prodh, cstack
 11002 ;; Tracked objects:
 11003 ;;		On entry : 0/0
 11004 ;;		On exit  : 0/0
 11005 ;;		Unchanged: 0/0
 11006 ;; Data sizes:     COMRAM   BANK0   BANK1   BANK2
 11007 ;;      Params:         0       0       0       0
 11008 ;;      Locals:         0       0       0       0
 11009 ;;      Temps:          0       0       0       0
 11010 ;;      Totals:         0       0       0       0
 11011 ;;Total ram usage:        0 bytes
 11012 ;; Hardware stack levels used:    1
 11013 ;; Hardware stack levels required when called:    2
 11014 ;; This function calls:
 11015 ;;		_USBCtrlTrfRxService
 11016 ;; This function is called by:
 11017 ;;		_USBCtrlEPService
 11018 ;; This function uses a non-reentrant model
 11019 ;;
 11020                           
 11021                           	psect	text56
 11022  0023CE                     __ptext56:
 11023                           	opt stack 0
 11024  0023CE                     _USBCtrlTrfOutHandler:
 11025                           	opt stack 20
 11026                           
 11027                           ;usb_device.c: 2540: if(controlTransferState == 2)
 11028                           
 11029                           ; BSR set to: 0
 11030                           ;incstack = 0
 11031  0023CE  0E02               	movlw	2
 11032  0023D0  1847               	xorwf	_controlTransferState,w,c	;volatile
 11033  0023D2  A4D8               	btfss	status,2,c
 11034  0023D4  D003               	goto	i2l3942
 11035                           
 11036                           ;usb_device.c: 2541: {
 11037                           ;usb_device.c: 2542: USBCtrlTrfRxService();
 11038  0023D6  EC05  F00A         	call	_USBCtrlTrfRxService	;wreg free
 11039                           
 11040                           ;usb_device.c: 2543: }
 11041  0023DA  0012               	return	
 11042  0023DC                     i2l3942:
 11043                           
 11044                           ;usb_device.c: 2544: else
 11045                           ;usb_device.c: 2545: {
 11046                           ;usb_device.c: 2548: controlTransferState = 0;
 11047  0023DC  0E00               	movlw	0
 11048  0023DE  6E47               	movwf	_controlTransferState,c	;volatile
 11049                           
 11050                           ;usb_device.c: 2555: if(BothEP0OutUOWNsSet == 0)
 11051  0023E0  5043               	movf	_BothEP0OutUOWNsSet,w,c	;volatile
 11052  0023E2  A4D8               	btfss	status,2,c
 11053  0023E4  D01F               	goto	i2l3950
 11054                           
 11055                           ;usb_device.c: 2556: {
 11056                           ;usb_device.c: 2557: pBDTEntryEP0OutNext->CNT = 8;
 11057  0023E6  EE20 F001          	lfsr	2,1
 11058  0023EA  5035               	movf	_pBDTEntryEP0OutNext,w,c
 11059  0023EC  26D9               	addwf	fsr2l,f,c
 11060  0023EE  5036               	movf	_pBDTEntryEP0OutNext+1,w,c
 11061  0023F0  22DA               	addwfc	fsr2h,f,c
 11062  0023F2  0E08               	movlw	8
 11063  0023F4  6EDF               	movwf	indf2,c
 11064                           
 11065                           ;usb_device.c: 2558: pBDTEntryEP0OutNext->ADR = ((uint16_t)(&SetupPkt));
 11066  0023F6  EE20 F002          	lfsr	2,2
 11067  0023FA  5035               	movf	_pBDTEntryEP0OutNext,w,c
 11068  0023FC  26D9               	addwf	fsr2l,f,c
 11069  0023FE  5036               	movf	_pBDTEntryEP0OutNext+1,w,c
 11070  002400  22DA               	addwfc	fsr2h,f,c
 11071  002402  0E30               	movlw	48
 11072  002404  6EDE               	movwf	postinc2,c
 11073  002406  0E02               	movlw	2
 11074  002408  6EDD               	movwf	postdec2,c
 11075                           
 11076                           ;usb_device.c: 2559: pBDTEntryEP0OutNext->STAT.Val = 0x00|(0x08 & 0x08)|0x04;
 11077  00240A  C035  FFD9         	movff	_pBDTEntryEP0OutNext,fsr2l
 11078  00240E  C036  FFDA         	movff	_pBDTEntryEP0OutNext+1,fsr2h
 11079  002412  0E0C               	movlw	12
 11080  002414  6EDF               	movwf	indf2,c
 11081                           
 11082                           ;usb_device.c: 2560: pBDTEntryEP0OutNext->STAT.Val |= 0x80;
 11083  002416  C035  FFD9         	movff	_pBDTEntryEP0OutNext,fsr2l
 11084  00241A  C036  FFDA         	movff	_pBDTEntryEP0OutNext+1,fsr2h
 11085  00241E  0E00               	movlw	0
 11086  002420  8EDB               	bsf	plusw2,7,c
 11087                           
 11088                           ;usb_device.c: 2561: }
 11089  002422  0012               	return	
 11090  002424                     i2l3950:
 11091                           
 11092                           ;usb_device.c: 2562: else
 11093                           ;usb_device.c: 2563: {
 11094                           ;usb_device.c: 2564: BothEP0OutUOWNsSet = 0;
 11095  002424  0E00               	movlw	0
 11096  002426  6E43               	movwf	_BothEP0OutUOWNsSet,c	;volatile
 11097  002428  0012               	return	
 11098  00242A                     __end_of_USBCtrlTrfOutHandler:
 11099                           	opt stack 0
 11100                           pclatu	equ	0xFFB
 11101                           pclath	equ	0xFFA
 11102                           tblptru	equ	0xFF8
 11103                           tblptrh	equ	0xFF7
 11104                           tblptrl	equ	0xFF6
 11105                           tablat	equ	0xFF5
 11106                           prodh	equ	0xFF4
 11107                           prodl	equ	0xFF3
 11108                           intcon	equ	0xFF2
 11109                           postinc0	equ	0xFEE
 11110                           fsr0h	equ	0xFEA
 11111                           fsr0l	equ	0xFE9
 11112                           wreg	equ	0xFE8
 11113                           indf1	equ	0xFE7
 11114                           postdec1	equ	0xFE5
 11115                           fsr1h	equ	0xFE2
 11116                           fsr1l	equ	0xFE1
 11117                           indf2	equ	0xFDF
 11118                           postinc2	equ	0xFDE
 11119                           postdec2	equ	0xFDD
 11120                           plusw2	equ	0xFDB
 11121                           fsr2h	equ	0xFDA
 11122                           fsr2l	equ	0xFD9
 11123                           status	equ	0xFD8
 11124                           
 11125 ;; *************** function _USBCtrlTrfRxService *****************
 11126 ;; Defined at:
 11127 ;;		line 1852 in file "picLibs/usb_device.c"
 11128 ;; Parameters:    Size  Location     Type
 11129 ;;		None
 11130 ;; Auto vars:     Size  Location     Type
 11131 ;;  byteToRead      1    1[COMRAM] unsigned char 
 11132 ;;  i               1    0[COMRAM] unsigned char 
 11133 ;; Return value:  Size  Location     Type
 11134 ;;                  1    wreg      void 
 11135 ;; Registers used:
 11136 ;;		wreg, fsr1l, fsr1h, fsr2l, fsr2h, status,2, status,0, prodl, prodh, cstack
 11137 ;; Tracked objects:
 11138 ;;		On entry : 0/0
 11139 ;;		On exit  : 0/0
 11140 ;;		Unchanged: 0/0
 11141 ;; Data sizes:     COMRAM   BANK0   BANK1   BANK2
 11142 ;;      Params:         0       0       0       0
 11143 ;;      Locals:         2       0       0       0
 11144 ;;      Temps:          0       0       0       0
 11145 ;;      Totals:         2       0       0       0
 11146 ;;Total ram usage:        2 bytes
 11147 ;; Hardware stack levels used:    1
 11148 ;; Hardware stack levels required when called:    1
 11149 ;; This function calls:
 11150 ;;		_USBCtrlEPAllowStatusStage
 11151 ;; This function is called by:
 11152 ;;		_USBCtrlTrfOutHandler
 11153 ;; This function uses a non-reentrant model
 11154 ;;
 11155                           
 11156                           	psect	text57
 11157  00140A                     __ptext57:
 11158                           	opt stack 0
 11159  00140A                     _USBCtrlTrfRxService:
 11160                           	opt stack 20
 11161                           
 11162                           ;usb_device.c: 1854: uint8_t byteToRead;
 11163                           ;usb_device.c: 1855: uint8_t i;
 11164                           ;usb_device.c: 1859: byteToRead = pBDTEntryEP0OutCurrent->CNT;
 11165                           
 11166                           ;incstack = 0
 11167  00140A  EE20 F001          	lfsr	2,1
 11168  00140E  5037               	movf	_pBDTEntryEP0OutCurrent,w,c
 11169  001410  26D9               	addwf	fsr2l,f,c
 11170  001412  5038               	movf	_pBDTEntryEP0OutCurrent+1,w,c
 11171  001414  22DA               	addwfc	fsr2h,f,c
 11172  001416  50DF               	movf	indf2,w,c
 11173  001418  6E02               	movwf	USBCtrlTrfRxService@byteToRead,c
 11174                           
 11175                           ;usb_device.c: 1865: if(byteToRead > outPipes[0].wCount.Val)
 11176  00141A  5002               	movf	USBCtrlTrfRxService@byteToRead,w,c
 11177  00141C  0100               	movlb	0	; () banked
 11178  00141E  5D6E               	subwf	(_outPipes+4)& (0+255),w,b	;volatile
 11179  001420  0E00               	movlw	0
 11180  001422  596F               	subwfb	(_outPipes+5)& (0+255),w,b	;volatile
 11181  001424  A0D8               	btfss	status,0,c
 11182                           
 11183                           ; BSR set to: 0
 11184                           ;usb_device.c: 1866: {
 11185                           ;usb_device.c: 1867: byteToRead = outPipes[0].wCount.Val;
 11186  001426  C06E  F002         	movff	_outPipes+4,USBCtrlTrfRxService@byteToRead	;volatile
 11187                           
 11188                           ; BSR set to: 0
 11189                           ;usb_device.c: 1868: }
 11190                           ;usb_device.c: 1870: outPipes[0].wCount.Val -= byteToRead;
 11191                           
 11192                           ; BSR set to: 0
 11193  00142A  5002               	movf	USBCtrlTrfRxService@byteToRead,w,c
 11194  00142C  0100               	movlb	0	; () banked
 11195  00142E  5F6E               	subwf	(_outPipes+4)& (0+255),f,b	;volatile
 11196  001430  0E00               	movlw	0
 11197  001432  5B6F               	subwfb	(_outPipes+5)& (0+255),f,b	;volatile
 11198                           
 11199                           ; BSR set to: 0
 11200                           ;usb_device.c: 1874: for(i=0;i<byteToRead;i++)
 11201  001434  0E00               	movlw	0
 11202  001436  6E01               	movwf	USBCtrlTrfRxService@i,c
 11203  001438  D012               	goto	i2l3720
 11204  00143A                     i2l3714:
 11205                           
 11206                           ; BSR set to: 0
 11207                           ;usb_device.c: 1875: {
 11208                           ;usb_device.c: 1876: *outPipes[0].pDst.bRam++ = CtrlTrfData[i];
 11209  00143A  5001               	movf	USBCtrlTrfRxService@i,w,c
 11210  00143C  0D01               	mullw	1
 11211  00143E  0E38               	movlw	56
 11212  001440  24F3               	addwf	prodl,w,c
 11213  001442  6ED9               	movwf	fsr2l,c
 11214  001444  0E02               	movlw	2
 11215  001446  20F4               	addwfc	prodh,w,c
 11216  001448  6EDA               	movwf	fsr2h,c
 11217  00144A  C06A  FFE1         	movff	_outPipes,fsr1l	;volatile
 11218  00144E  C06B  FFE2         	movff	_outPipes+1,fsr1h	;volatile
 11219  001452  CFDF FFE7          	movff	indf2,indf1
 11220                           
 11221                           ; BSR set to: 0
 11222  001456  0100               	movlb	0	; () banked
 11223  001458  4B6A               	infsnz	_outPipes& (0+255),f,b	;volatile
 11224  00145A  2B6B               	incf	(_outPipes+1)& (0+255),f,b	;volatile
 11225                           
 11226                           ; BSR set to: 0
 11227  00145C  2A01               	incf	USBCtrlTrfRxService@i,f,c
 11228  00145E                     i2l3720:
 11229                           
 11230                           ; BSR set to: 0
 11231  00145E  5002               	movf	USBCtrlTrfRxService@byteToRead,w,c
 11232  001460  5C01               	subwf	USBCtrlTrfRxService@i,w,c
 11233  001462  A0D8               	btfss	status,0,c
 11234  001464  D7EA               	goto	i2l3714
 11235                           
 11236                           ; BSR set to: 0
 11237                           ;usb_device.c: 1877: }
 11238                           ;usb_device.c: 1881: if(outPipes[0].wCount.Val > 0)
 11239                           
 11240                           ; BSR set to: 0
 11241  001466  0100               	movlb	0	; () banked
 11242  001468  516E               	movf	(_outPipes+4)& (0+255),w,b	;volatile
 11243  00146A  0100               	movlb	0	; () banked
 11244  00146C  116F               	iorwf	(_outPipes+5)& (0+255),w,b	;volatile
 11245  00146E  B4D8               	btfsc	status,2,c
 11246  001470  D032               	goto	i2l3736
 11247                           
 11248                           ; BSR set to: 0
 11249                           ;usb_device.c: 1882: {
 11250                           ;usb_device.c: 1883: pBDTEntryEP0OutNext->CNT = 8;
 11251  001472  EE20 F001          	lfsr	2,1
 11252  001476  5035               	movf	_pBDTEntryEP0OutNext,w,c
 11253  001478  26D9               	addwf	fsr2l,f,c
 11254  00147A  5036               	movf	_pBDTEntryEP0OutNext+1,w,c
 11255  00147C  22DA               	addwfc	fsr2h,f,c
 11256  00147E  0E08               	movlw	8
 11257  001480  6EDF               	movwf	indf2,c
 11258                           
 11259                           ;usb_device.c: 1884: pBDTEntryEP0OutNext->ADR = ((uint16_t)(&CtrlTrfData));
 11260  001482  EE20 F002          	lfsr	2,2
 11261  001486  5035               	movf	_pBDTEntryEP0OutNext,w,c
 11262  001488  26D9               	addwf	fsr2l,f,c
 11263  00148A  5036               	movf	_pBDTEntryEP0OutNext+1,w,c
 11264  00148C  22DA               	addwfc	fsr2h,f,c
 11265  00148E  0E38               	movlw	56
 11266  001490  6EDE               	movwf	postinc2,c
 11267  001492  0E02               	movlw	2
 11268  001494  6EDD               	movwf	postdec2,c
 11269                           
 11270                           ; BSR set to: 0
 11271                           ;usb_device.c: 1885: if(pBDTEntryEP0OutCurrent->STAT.DTS == 0)
 11272  001496  C037  FFD9         	movff	_pBDTEntryEP0OutCurrent,fsr2l
 11273  00149A  C038  FFDA         	movff	_pBDTEntryEP0OutCurrent+1,fsr2h
 11274  00149E  BCDF               	btfsc	indf2,6,c
 11275  0014A0  D00D               	goto	i2l3732
 11276                           
 11277                           ; BSR set to: 0
 11278                           ;usb_device.c: 1886: {
 11279                           ;usb_device.c: 1887: pBDTEntryEP0OutNext->STAT.Val = 0x40|(0x08 & 0x08);
 11280  0014A2  C035  FFD9         	movff	_pBDTEntryEP0OutNext,fsr2l
 11281  0014A6  C036  FFDA         	movff	_pBDTEntryEP0OutNext+1,fsr2h
 11282  0014AA  0E48               	movlw	72
 11283  0014AC  6EDF               	movwf	indf2,c
 11284                           
 11285                           ; BSR set to: 0
 11286                           ;usb_device.c: 1888: pBDTEntryEP0OutNext->STAT.Val |= 0x80;
 11287  0014AE  C035  FFD9         	movff	_pBDTEntryEP0OutNext,fsr2l
 11288  0014B2  C036  FFDA         	movff	_pBDTEntryEP0OutNext+1,fsr2h
 11289  0014B6  0E00               	movlw	0
 11290  0014B8  8EDB               	bsf	plusw2,7,c
 11291                           
 11292                           ;usb_device.c: 1889: }
 11293  0014BA  0012               	return	
 11294  0014BC                     i2l3732:
 11295                           
 11296                           ; BSR set to: 0
 11297                           ;usb_device.c: 1890: else
 11298                           ;usb_device.c: 1891: {
 11299                           ;usb_device.c: 1892: pBDTEntryEP0OutNext->STAT.Val = 0x00|(0x08 & 0x08);
 11300  0014BC  C035  FFD9         	movff	_pBDTEntryEP0OutNext,fsr2l
 11301  0014C0  C036  FFDA         	movff	_pBDTEntryEP0OutNext+1,fsr2h
 11302  0014C4  0E08               	movlw	8
 11303  0014C6  6EDF               	movwf	indf2,c
 11304                           
 11305                           ; BSR set to: 0
 11306                           ;usb_device.c: 1893: pBDTEntryEP0OutNext->STAT.Val |= 0x80;
 11307  0014C8  C035  FFD9         	movff	_pBDTEntryEP0OutNext,fsr2l
 11308  0014CC  C036  FFDA         	movff	_pBDTEntryEP0OutNext+1,fsr2h
 11309  0014D0  0E00               	movlw	0
 11310  0014D2  8EDB               	bsf	plusw2,7,c
 11311                           
 11312                           ; BSR set to: 0
 11313                           ;usb_device.c: 1894: }
 11314                           ;usb_device.c: 1895: }
 11315  0014D4  0012               	return	
 11316  0014D6                     i2l3736:
 11317                           
 11318                           ; BSR set to: 0
 11319                           ;usb_device.c: 1896: else
 11320                           ;usb_device.c: 1897: {
 11321                           ;usb_device.c: 1901: pBDTEntryEP0OutNext->CNT = 8;
 11322  0014D6  EE20 F001          	lfsr	2,1
 11323  0014DA  5035               	movf	_pBDTEntryEP0OutNext,w,c
 11324  0014DC  26D9               	addwf	fsr2l,f,c
 11325  0014DE  5036               	movf	_pBDTEntryEP0OutNext+1,w,c
 11326  0014E0  22DA               	addwfc	fsr2h,f,c
 11327  0014E2  0E08               	movlw	8
 11328  0014E4  6EDF               	movwf	indf2,c
 11329                           
 11330                           ;usb_device.c: 1902: pBDTEntryEP0OutNext->ADR = ((uint16_t)(&SetupPkt));
 11331  0014E6  EE20 F002          	lfsr	2,2
 11332  0014EA  5035               	movf	_pBDTEntryEP0OutNext,w,c
 11333  0014EC  26D9               	addwf	fsr2l,f,c
 11334  0014EE  5036               	movf	_pBDTEntryEP0OutNext+1,w,c
 11335  0014F0  22DA               	addwfc	fsr2h,f,c
 11336  0014F2  0E30               	movlw	48
 11337  0014F4  6EDE               	movwf	postinc2,c
 11338  0014F6  0E02               	movlw	2
 11339  0014F8  6EDD               	movwf	postdec2,c
 11340                           
 11341                           ; BSR set to: 0
 11342                           ;usb_device.c: 1906: pBDTEntryEP0OutNext->STAT.Val = 0x04;
 11343  0014FA  C035  FFD9         	movff	_pBDTEntryEP0OutNext,fsr2l
 11344  0014FE  C036  FFDA         	movff	_pBDTEntryEP0OutNext+1,fsr2h
 11345  001502  0E04               	movlw	4
 11346  001504  6EDF               	movwf	indf2,c
 11347                           
 11348                           ; BSR set to: 0
 11349                           ;usb_device.c: 1907: pBDTEntryEP0OutNext->STAT.Val |= 0x80;
 11350  001506  C035  FFD9         	movff	_pBDTEntryEP0OutNext,fsr2l
 11351  00150A  C036  FFDA         	movff	_pBDTEntryEP0OutNext+1,fsr2h
 11352  00150E  0E00               	movlw	0
 11353  001510  8EDB               	bsf	plusw2,7,c
 11354                           
 11355                           ; BSR set to: 0
 11356                           ;usb_device.c: 1926: }
 11357                           ;usb_device.c: 1927: outPipes[0].info.bits.busy = 0;
 11358                           
 11359                           ; BSR set to: 0
 11360                           ;usb_device.c: 1915: {
 11361                           ;usb_device.c: 1921: outPipes[0].pFunc();
 11362  001512  0100               	movlb	0	; () banked
 11363  001514  9F6D               	bcf	(_outPipes+3)& (0+255),7,b	;volatile
 11364                           
 11365                           ; BSR set to: 0
 11366                           ;usb_device.c: 1941: if(USBDeferStatusStagePacket == 0)
 11367  001516  5041               	movf	_USBDeferStatusStagePacket,w,c	;volatile
 11368  001518  A4D8               	btfss	status,2,c
 11369  00151A  0012               	return	
 11370                           
 11371                           ; BSR set to: 0
 11372                           ;usb_device.c: 1942: {
 11373                           ;usb_device.c: 1943: USBCtrlEPAllowStatusStage();
 11374  00151C  EC9D  F00E         	call	_USBCtrlEPAllowStatusStage	;wreg free
 11375  001520  0012               	return	
 11376  001522                     __end_of_USBCtrlTrfRxService:
 11377                           	opt stack 0
 11378                           pclatu	equ	0xFFB
 11379                           pclath	equ	0xFFA
 11380                           tblptru	equ	0xFF8
 11381                           tblptrh	equ	0xFF7
 11382                           tblptrl	equ	0xFF6
 11383                           tablat	equ	0xFF5
 11384                           prodh	equ	0xFF4
 11385                           prodl	equ	0xFF3
 11386                           intcon	equ	0xFF2
 11387                           postinc0	equ	0xFEE
 11388                           fsr0h	equ	0xFEA
 11389                           fsr0l	equ	0xFE9
 11390                           wreg	equ	0xFE8
 11391                           indf1	equ	0xFE7
 11392                           postdec1	equ	0xFE5
 11393                           fsr1h	equ	0xFE2
 11394                           fsr1l	equ	0xFE1
 11395                           indf2	equ	0xFDF
 11396                           postinc2	equ	0xFDE
 11397                           postdec2	equ	0xFDD
 11398                           plusw2	equ	0xFDB
 11399                           fsr2h	equ	0xFDA
 11400                           fsr2l	equ	0xFD9
 11401                           status	equ	0xFD8
 11402                           
 11403 ;; *************** function _USBCtrlEPAllowStatusStage *****************
 11404 ;; Defined at:
 11405 ;;		line 1416 in file "picLibs/usb_device.c"
 11406 ;; Parameters:    Size  Location     Type
 11407 ;;		None
 11408 ;; Auto vars:     Size  Location     Type
 11409 ;;		None
 11410 ;; Return value:  Size  Location     Type
 11411 ;;                  1    wreg      void 
 11412 ;; Registers used:
 11413 ;;		wreg, fsr2l, fsr2h, status,2, status,0
 11414 ;; Tracked objects:
 11415 ;;		On entry : 0/0
 11416 ;;		On exit  : 0/0
 11417 ;;		Unchanged: 0/0
 11418 ;; Data sizes:     COMRAM   BANK0   BANK1   BANK2
 11419 ;;      Params:         0       0       0       0
 11420 ;;      Locals:         0       0       0       0
 11421 ;;      Temps:          0       0       0       0
 11422 ;;      Totals:         0       0       0       0
 11423 ;;Total ram usage:        0 bytes
 11424 ;; Hardware stack levels used:    1
 11425 ;; This function calls:
 11426 ;;		Nothing
 11427 ;; This function is called by:
 11428 ;;		_USBDeviceTasks
 11429 ;;		_USBCtrlEPServiceComplete
 11430 ;;		_USBCtrlTrfRxService
 11431 ;; This function uses a non-reentrant model
 11432 ;;
 11433                           
 11434                           	psect	text58
 11435  001D3A                     __ptext58:
 11436                           	opt stack 0
 11437  001D3A                     _USBCtrlEPAllowStatusStage:
 11438                           	opt stack 20
 11439                           
 11440                           ;usb_device.c: 1423: if(USBStatusStageEnabledFlag1 == 0)
 11441                           
 11442                           ;incstack = 0
 11443  001D3A  5040               	movf	_USBStatusStageEnabledFlag1,w,c	;volatile
 11444  001D3C  A4D8               	btfss	status,2,c
 11445  001D3E  0012               	return	
 11446                           
 11447                           ;usb_device.c: 1424: {
 11448                           ;usb_device.c: 1425: USBStatusStageEnabledFlag1 = 1;
 11449  001D40  0E01               	movlw	1
 11450  001D42  6E40               	movwf	_USBStatusStageEnabledFlag1,c	;volatile
 11451                           
 11452                           ;usb_device.c: 1426: if(USBStatusStageEnabledFlag2 == 0)
 11453  001D44  503F               	movf	_USBStatusStageEnabledFlag2,w,c	;volatile
 11454  001D46  A4D8               	btfss	status,2,c
 11455  001D48  0012               	return	
 11456                           
 11457                           ;usb_device.c: 1427: {
 11458                           ;usb_device.c: 1428: USBStatusStageEnabledFlag2 = 1;
 11459  001D4A  0E01               	movlw	1
 11460  001D4C  6E3F               	movwf	_USBStatusStageEnabledFlag2,c	;volatile
 11461                           
 11462                           ;usb_device.c: 1432: if(controlTransferState == 2)
 11463  001D4E  0E02               	movlw	2
 11464  001D50  1847               	xorwf	_controlTransferState,w,c	;volatile
 11465  001D52  A4D8               	btfss	status,2,c
 11466  001D54  D016               	goto	i2l3396
 11467                           
 11468                           ;usb_device.c: 1433: {
 11469                           ;usb_device.c: 1434: pBDTEntryIn[0]->CNT = 0;
 11470  001D56  0100               	movlb	0	; () banked
 11471  001D58  EE20 F001          	lfsr	2,1
 11472  001D5C  5178               	movf	_pBDTEntryIn& (0+255),w,b
 11473  001D5E  26D9               	addwf	fsr2l,f,c
 11474  001D60  5179               	movf	(_pBDTEntryIn+1)& (0+255),w,b
 11475  001D62  22DA               	addwfc	fsr2h,f,c
 11476  001D64  0E00               	movlw	0
 11477  001D66  6EDF               	movwf	indf2,c
 11478                           
 11479                           ; BSR set to: 0
 11480                           ;usb_device.c: 1435: pBDTEntryIn[0]->STAT.Val = 0x40|(0x08 & 0x08);
 11481  001D68  C078  FFD9         	movff	_pBDTEntryIn,fsr2l
 11482  001D6C  C079  FFDA         	movff	_pBDTEntryIn+1,fsr2h
 11483  001D70  0E48               	movlw	72
 11484  001D72  6EDF               	movwf	indf2,c
 11485                           
 11486                           ; BSR set to: 0
 11487                           ;usb_device.c: 1436: pBDTEntryIn[0]->STAT.Val |= 0x80;
 11488  001D74  C078  FFD9         	movff	_pBDTEntryIn,fsr2l
 11489  001D78  C079  FFDA         	movff	_pBDTEntryIn+1,fsr2h
 11490  001D7C  0E00               	movlw	0
 11491  001D7E  8EDB               	bsf	plusw2,7,c
 11492                           
 11493                           ;usb_device.c: 1437: }
 11494  001D80  0012               	return	
 11495  001D82                     i2l3396:
 11496                           
 11497                           ;usb_device.c: 1438: else if(controlTransferState == 1)
 11498  001D82  0447               	decf	_controlTransferState,w,c	;volatile
 11499  001D84  A4D8               	btfss	status,2,c
 11500  001D86  0012               	return	
 11501                           
 11502                           ;usb_device.c: 1439: {
 11503                           ;usb_device.c: 1440: BothEP0OutUOWNsSet = 0;
 11504  001D88  0E00               	movlw	0
 11505  001D8A  6E43               	movwf	_BothEP0OutUOWNsSet,c	;volatile
 11506                           
 11507                           ;usb_device.c: 1445: pBDTEntryEP0OutCurrent->CNT = 8;
 11508  001D8C  EE20 F001          	lfsr	2,1
 11509  001D90  5037               	movf	_pBDTEntryEP0OutCurrent,w,c
 11510  001D92  26D9               	addwf	fsr2l,f,c
 11511  001D94  5038               	movf	_pBDTEntryEP0OutCurrent+1,w,c
 11512  001D96  22DA               	addwfc	fsr2h,f,c
 11513  001D98  0E08               	movlw	8
 11514  001D9A  6EDF               	movwf	indf2,c
 11515                           
 11516                           ;usb_device.c: 1446: pBDTEntryEP0OutCurrent->ADR = ((uint16_t)(&SetupPkt));
 11517  001D9C  EE20 F002          	lfsr	2,2
 11518  001DA0  5037               	movf	_pBDTEntryEP0OutCurrent,w,c
 11519  001DA2  26D9               	addwf	fsr2l,f,c
 11520  001DA4  5038               	movf	_pBDTEntryEP0OutCurrent+1,w,c
 11521  001DA6  22DA               	addwfc	fsr2h,f,c
 11522  001DA8  0E30               	movlw	48
 11523  001DAA  6EDE               	movwf	postinc2,c
 11524  001DAC  0E02               	movlw	2
 11525  001DAE  6EDD               	movwf	postdec2,c
 11526                           
 11527                           ;usb_device.c: 1447: pBDTEntryEP0OutCurrent->STAT.Val = 0x04;
 11528  001DB0  C037  FFD9         	movff	_pBDTEntryEP0OutCurrent,fsr2l
 11529  001DB4  C038  FFDA         	movff	_pBDTEntryEP0OutCurrent+1,fsr2h
 11530  001DB8  0E04               	movlw	4
 11531  001DBA  6EDF               	movwf	indf2,c
 11532                           
 11533                           ;usb_device.c: 1448: pBDTEntryEP0OutCurrent->STAT.Val |= 0x80;
 11534  001DBC  C037  FFD9         	movff	_pBDTEntryEP0OutCurrent,fsr2l
 11535  001DC0  C038  FFDA         	movff	_pBDTEntryEP0OutCurrent+1,fsr2h
 11536  001DC4  0E00               	movlw	0
 11537  001DC6  8EDB               	bsf	plusw2,7,c
 11538                           
 11539                           ;usb_device.c: 1449: BothEP0OutUOWNsSet = 1;
 11540  001DC8  0E01               	movlw	1
 11541  001DCA  6E43               	movwf	_BothEP0OutUOWNsSet,c	;volatile
 11542                           
 11543                           ;usb_device.c: 1453: pBDTEntryEP0OutNext->CNT = 8;
 11544  001DCC  EE20 F001          	lfsr	2,1
 11545  001DD0  5035               	movf	_pBDTEntryEP0OutNext,w,c
 11546  001DD2  26D9               	addwf	fsr2l,f,c
 11547  001DD4  5036               	movf	_pBDTEntryEP0OutNext+1,w,c
 11548  001DD6  22DA               	addwfc	fsr2h,f,c
 11549  001DD8  0E08               	movlw	8
 11550  001DDA  6EDF               	movwf	indf2,c
 11551                           
 11552                           ;usb_device.c: 1454: pBDTEntryEP0OutNext->ADR = ((uint16_t)(&SetupPkt));
 11553  001DDC  EE20 F002          	lfsr	2,2
 11554  001DE0  5035               	movf	_pBDTEntryEP0OutNext,w,c
 11555  001DE2  26D9               	addwf	fsr2l,f,c
 11556  001DE4  5036               	movf	_pBDTEntryEP0OutNext+1,w,c
 11557  001DE6  22DA               	addwfc	fsr2h,f,c
 11558  001DE8  0E30               	movlw	48
 11559  001DEA  6EDE               	movwf	postinc2,c
 11560  001DEC  0E02               	movlw	2
 11561  001DEE  6EDD               	movwf	postdec2,c
 11562                           
 11563                           ;usb_device.c: 1455: pBDTEntryEP0OutNext->STAT.Val = 0x80;
 11564  001DF0  C035  FFD9         	movff	_pBDTEntryEP0OutNext,fsr2l
 11565  001DF4  C036  FFDA         	movff	_pBDTEntryEP0OutNext+1,fsr2h
 11566  001DF8  0E80               	movlw	128
 11567  001DFA  6EDF               	movwf	indf2,c
 11568  001DFC  0012               	return	
 11569  001DFE                     __end_of_USBCtrlEPAllowStatusStage:
 11570                           	opt stack 0
 11571                           pclatu	equ	0xFFB
 11572                           pclath	equ	0xFFA
 11573                           tblptru	equ	0xFF8
 11574                           tblptrh	equ	0xFF7
 11575                           tblptrl	equ	0xFF6
 11576                           tablat	equ	0xFF5
 11577                           prodh	equ	0xFF4
 11578                           prodl	equ	0xFF3
 11579                           intcon	equ	0xFF2
 11580                           postinc0	equ	0xFEE
 11581                           fsr0h	equ	0xFEA
 11582                           fsr0l	equ	0xFE9
 11583                           wreg	equ	0xFE8
 11584                           indf1	equ	0xFE7
 11585                           postdec1	equ	0xFE5
 11586                           fsr1h	equ	0xFE2
 11587                           fsr1l	equ	0xFE1
 11588                           indf2	equ	0xFDF
 11589                           postinc2	equ	0xFDE
 11590                           postdec2	equ	0xFDD
 11591                           plusw2	equ	0xFDB
 11592                           fsr2h	equ	0xFDA
 11593                           fsr2l	equ	0xFD9
 11594                           status	equ	0xFD8
 11595                           
 11596 ;; *************** function _USBCtrlTrfInHandler *****************
 11597 ;; Defined at:
 11598 ;;		line 2592 in file "picLibs/usb_device.c"
 11599 ;; Parameters:    Size  Location     Type
 11600 ;;		None
 11601 ;; Auto vars:     Size  Location     Type
 11602 ;;  lastDTS         1    1[COMRAM] unsigned char 
 11603 ;; Return value:  Size  Location     Type
 11604 ;;                  1    wreg      void 
 11605 ;; Registers used:
 11606 ;;		wreg, fsr1l, fsr1h, fsr2l, fsr2h, status,2, status,0, tblptrl, tblptrh, tblptru, cstack
 11607 ;; Tracked objects:
 11608 ;;		On entry : 0/0
 11609 ;;		On exit  : 0/0
 11610 ;;		Unchanged: 0/0
 11611 ;; Data sizes:     COMRAM   BANK0   BANK1   BANK2
 11612 ;;      Params:         0       0       0       0
 11613 ;;      Locals:         1       0       0       0
 11614 ;;      Temps:          0       0       0       0
 11615 ;;      Totals:         1       0       0       0
 11616 ;;Total ram usage:        1 bytes
 11617 ;; Hardware stack levels used:    1
 11618 ;; Hardware stack levels required when called:    1
 11619 ;; This function calls:
 11620 ;;		_USBCtrlTrfTxService
 11621 ;; This function is called by:
 11622 ;;		_USBCtrlEPService
 11623 ;; This function uses a non-reentrant model
 11624 ;;
 11625                           
 11626                           	psect	text59
 11627  0019F0                     __ptext59:
 11628                           	opt stack 0
 11629  0019F0                     _USBCtrlTrfInHandler:
 11630                           	opt stack 21
 11631                           
 11632                           ;usb_device.c: 2594: uint8_t lastDTS;
 11633                           ;usb_device.c: 2596: lastDTS = pBDTEntryIn[0]->STAT.DTS;
 11634                           
 11635                           ;incstack = 0
 11636  0019F0  C078  FFD9         	movff	_pBDTEntryIn,fsr2l
 11637  0019F4  C079  FFDA         	movff	_pBDTEntryIn+1,fsr2h
 11638  0019F8  0100               	movlb	0	; () banked
 11639  0019FA  0E00               	movlw	0
 11640  0019FC  BCDF               	btfsc	indf2,6,c
 11641  0019FE  0E01               	movlw	1
 11642  001A00  6E02               	movwf	USBCtrlTrfInHandler@lastDTS,c
 11643                           
 11644                           ; BSR set to: 0
 11645                           ;usb_device.c: 2599: pBDTEntryIn[0] = (volatile BDT_ENTRY*)(((uintptr_t)pBDTEntryIn[0]) 
      +                          ^ 0x0004);
 11646  001A02  0E04               	movlw	4
 11647  001A04  0100               	movlb	0	; () banked
 11648  001A06  1978               	xorwf	_pBDTEntryIn& (0+255),w,b
 11649  001A08  0100               	movlb	0	; () banked
 11650  001A0A  6F78               	movwf	_pBDTEntryIn& (0+255),b
 11651  001A0C  0100               	movlb	0	; () banked
 11652  001A0E  5179               	movf	(_pBDTEntryIn+1)& (0+255),w,b
 11653  001A10  0100               	movlb	0	; () banked
 11654  001A12  6F79               	movwf	(_pBDTEntryIn+1)& (0+255),b
 11655                           
 11656                           ; BSR set to: 0
 11657                           ;usb_device.c: 2604: if(USBDeviceState == ADR_PENDING_STATE)
 11658  001A14  0E08               	movlw	8
 11659  001A16  0100               	movlb	0	; () banked
 11660  001A18  1999               	xorwf	_USBDeviceState& (0+255),w,b	;volatile
 11661  001A1A  A4D8               	btfss	status,2,c
 11662  001A1C  D00E               	goto	i2l3966
 11663                           
 11664                           ; BSR set to: 0
 11665                           ;usb_device.c: 2605: {
 11666                           ;usb_device.c: 2606: UADDR = (SetupPkt.bDevADR & 0x7F);
 11667  001A1E  0102               	movlb	2	; () banked
 11668  001A20  5132               	movf	50,w,b	;volatile
 11669  001A22  0B7F               	andlw	127
 11670  001A24  010F               	movlb	15	; () banked
 11671  001A26  6F5C               	movwf	92,b	;volatile
 11672                           
 11673                           ; BSR set to: 15
 11674                           ;usb_device.c: 2607: if(UADDR != 0u)
 11675  001A28  010F               	movlb	15	; () banked
 11676  001A2A  515C               	movf	92,w,b	;volatile
 11677  001A2C  B4D8               	btfsc	status,2,c
 11678  001A2E  D002               	goto	i2l3964
 11679                           
 11680                           ; BSR set to: 15
 11681                           ;usb_device.c: 2608: {
 11682                           ;usb_device.c: 2609: USBDeviceState=ADDRESS_STATE;
 11683  001A30  0E10               	movlw	16
 11684  001A32  D001               	goto	L16
 11685  001A34                     i2l3964:
 11686                           
 11687                           ;usb_device.c: 2611: else
 11688                           ;usb_device.c: 2612: {
 11689                           ;usb_device.c: 2613: USBDeviceState=DEFAULT_STATE;
 11690  001A34  0E04               	movlw	4
 11691  001A36                     L16:
 11692  001A36  0100               	movlb	0	; () banked
 11693  001A38  6F99               	movwf	_USBDeviceState& (0+255),b	;volatile
 11694  001A3A                     i2l3966:
 11695                           
 11696                           ; BSR set to: 0
 11697                           ;usb_device.c: 2614: }
 11698                           ;usb_device.c: 2615: }
 11699                           ;usb_device.c: 2618: if(controlTransferState == 1)
 11700  001A3A  0447               	decf	_controlTransferState,w,c	;volatile
 11701  001A3C  A4D8               	btfss	status,2,c
 11702  001A3E  D03B               	goto	i2l593
 11703                           
 11704                           ; BSR set to: 0
 11705                           ;usb_device.c: 2619: {
 11706                           ;usb_device.c: 2620: pBDTEntryIn[0]->ADR = ((uint16_t)(CtrlTrfData));
 11707  001A40  0100               	movlb	0	; () banked
 11708  001A42  EE20 F002          	lfsr	2,2
 11709  001A46  5178               	movf	_pBDTEntryIn& (0+255),w,b
 11710  001A48  26D9               	addwf	fsr2l,f,c
 11711  001A4A  5179               	movf	(_pBDTEntryIn+1)& (0+255),w,b
 11712  001A4C  22DA               	addwfc	fsr2h,f,c
 11713  001A4E  0E38               	movlw	56
 11714  001A50  6EDE               	movwf	postinc2,c
 11715  001A52  0E02               	movlw	2
 11716  001A54  6EDD               	movwf	postdec2,c
 11717                           
 11718                           ; BSR set to: 0
 11719                           ;usb_device.c: 2621: USBCtrlTrfTxService();
 11720  001A56  EC63  F00D         	call	_USBCtrlTrfTxService	;wreg free
 11721                           
 11722                           ;usb_device.c: 2627: if(shortPacketStatus == 2)
 11723  001A5A  0E02               	movlw	2
 11724  001A5C  1848               	xorwf	_shortPacketStatus,w,c	;volatile
 11725  001A5E  A4D8               	btfss	status,2,c
 11726  001A60  D00D               	goto	i2l3978
 11727                           
 11728                           ;usb_device.c: 2628: {
 11729                           ;usb_device.c: 2631: pBDTEntryIn[0]->STAT.Val = 0x04;
 11730  001A62  C078  FFD9         	movff	_pBDTEntryIn,fsr2l
 11731  001A66  C079  FFDA         	movff	_pBDTEntryIn+1,fsr2h
 11732  001A6A  0E04               	movlw	4
 11733  001A6C  6EDF               	movwf	indf2,c
 11734                           
 11735                           ;usb_device.c: 2632: pBDTEntryIn[0]->STAT.Val |= 0x80;
 11736  001A6E  C078  FFD9         	movff	_pBDTEntryIn,fsr2l
 11737  001A72  C079  FFDA         	movff	_pBDTEntryIn+1,fsr2h
 11738  001A76  0E00               	movlw	0
 11739  001A78  8EDB               	bsf	plusw2,7,c
 11740                           
 11741                           ;usb_device.c: 2633: }
 11742  001A7A  0012               	return	
 11743  001A7C                     i2l3978:
 11744                           
 11745                           ;usb_device.c: 2634: else
 11746                           ;usb_device.c: 2635: {
 11747                           ;usb_device.c: 2636: if(lastDTS == 0)
 11748  001A7C  5002               	movf	USBCtrlTrfInHandler@lastDTS,w,c
 11749  001A7E  A4D8               	btfss	status,2,c
 11750  001A80  D00D               	goto	i2l3984
 11751                           
 11752                           ;usb_device.c: 2637: {
 11753                           ;usb_device.c: 2638: pBDTEntryIn[0]->STAT.Val = 0x40|(0x08 & 0x08);
 11754  001A82  C078  FFD9         	movff	_pBDTEntryIn,fsr2l
 11755  001A86  C079  FFDA         	movff	_pBDTEntryIn+1,fsr2h
 11756  001A8A  0E48               	movlw	72
 11757  001A8C  6EDF               	movwf	indf2,c
 11758                           
 11759                           ;usb_device.c: 2639: pBDTEntryIn[0]->STAT.Val |= 0x80;
 11760  001A8E  C078  FFD9         	movff	_pBDTEntryIn,fsr2l
 11761  001A92  C079  FFDA         	movff	_pBDTEntryIn+1,fsr2h
 11762  001A96  0E00               	movlw	0
 11763  001A98  8EDB               	bsf	plusw2,7,c
 11764                           
 11765                           ;usb_device.c: 2640: }
 11766  001A9A  0012               	return	
 11767  001A9C                     i2l3984:
 11768                           
 11769                           ;usb_device.c: 2641: else
 11770                           ;usb_device.c: 2642: {
 11771                           ;usb_device.c: 2643: pBDTEntryIn[0]->STAT.Val = 0x00|(0x08 & 0x08);
 11772  001A9C  C078  FFD9         	movff	_pBDTEntryIn,fsr2l
 11773  001AA0  C079  FFDA         	movff	_pBDTEntryIn+1,fsr2h
 11774  001AA4  0E08               	movlw	8
 11775  001AA6  6EDF               	movwf	indf2,c
 11776                           
 11777                           ;usb_device.c: 2644: pBDTEntryIn[0]->STAT.Val |= 0x80;
 11778  001AA8  C078  FFD9         	movff	_pBDTEntryIn,fsr2l
 11779  001AAC  C079  FFDA         	movff	_pBDTEntryIn+1,fsr2h
 11780  001AB0  0E00               	movlw	0
 11781  001AB2  8EDB               	bsf	plusw2,7,c
 11782                           
 11783                           ;usb_device.c: 2645: }
 11784                           ;usb_device.c: 2646: }
 11785                           ;usb_device.c: 2647: }
 11786  001AB4  0012               	return	
 11787  001AB6                     i2l593:
 11788                           
 11789                           ; BSR set to: 0
 11790                           ;usb_device.c: 2648: else
 11791                           ;usb_device.c: 2649: {
 11792                           ;usb_device.c: 2653: if(outPipes[0].info.bits.busy == 1)
 11793  001AB6  0100               	movlb	0	; () banked
 11794  001AB8  AF6D               	btfss	(_outPipes+3)& (0+255),7,b	;volatile
 11795  001ABA  D002               	goto	i2l3990
 11796                           
 11797                           ; BSR set to: 0
 11798                           ;usb_device.c: 2658: }
 11799                           ;usb_device.c: 2659: outPipes[0].info.bits.busy = 0;
 11800                           
 11801                           ; BSR set to: 0
 11802                           ;usb_device.c: 2656: {
 11803                           ;usb_device.c: 2657: outPipes[0].pFunc();
 11804  001ABC  0100               	movlb	0	; () banked
 11805  001ABE  9F6D               	bcf	(_outPipes+3)& (0+255),7,b	;volatile
 11806  001AC0                     i2l3990:
 11807                           
 11808                           ; BSR set to: 0
 11809                           ;usb_device.c: 2660: }
 11810                           ;usb_device.c: 2662: controlTransferState = 0;
 11811  001AC0  0E00               	movlw	0
 11812  001AC2  6E47               	movwf	_controlTransferState,c	;volatile
 11813  001AC4  0012               	return	
 11814  001AC6                     __end_of_USBCtrlTrfInHandler:
 11815                           	opt stack 0
 11816                           pclatu	equ	0xFFB
 11817                           pclath	equ	0xFFA
 11818                           tblptru	equ	0xFF8
 11819                           tblptrh	equ	0xFF7
 11820                           tblptrl	equ	0xFF6
 11821                           tablat	equ	0xFF5
 11822                           prodh	equ	0xFF4
 11823                           prodl	equ	0xFF3
 11824                           intcon	equ	0xFF2
 11825                           postinc0	equ	0xFEE
 11826                           fsr0h	equ	0xFEA
 11827                           fsr0l	equ	0xFE9
 11828                           wreg	equ	0xFE8
 11829                           indf1	equ	0xFE7
 11830                           postdec1	equ	0xFE5
 11831                           fsr1h	equ	0xFE2
 11832                           fsr1l	equ	0xFE1
 11833                           indf2	equ	0xFDF
 11834                           postinc2	equ	0xFDE
 11835                           postdec2	equ	0xFDD
 11836                           plusw2	equ	0xFDB
 11837                           fsr2h	equ	0xFDA
 11838                           fsr2l	equ	0xFD9
 11839                           status	equ	0xFD8
 11840                           
 11841 ;; *************** function _USBCtrlTrfTxService *****************
 11842 ;; Defined at:
 11843 ;;		line 1771 in file "picLibs/usb_device.c"
 11844 ;; Parameters:    Size  Location     Type
 11845 ;;		None
 11846 ;; Auto vars:     Size  Location     Type
 11847 ;;  byteToSend      1    0[COMRAM] unsigned char 
 11848 ;; Return value:  Size  Location     Type
 11849 ;;                  1    wreg      void 
 11850 ;; Registers used:
 11851 ;;		wreg, fsr1l, fsr1h, fsr2l, fsr2h, status,2, status,0, tblptrl, tblptrh, tblptru
 11852 ;; Tracked objects:
 11853 ;;		On entry : 0/0
 11854 ;;		On exit  : 0/0
 11855 ;;		Unchanged: 0/0
 11856 ;; Data sizes:     COMRAM   BANK0   BANK1   BANK2
 11857 ;;      Params:         0       0       0       0
 11858 ;;      Locals:         1       0       0       0
 11859 ;;      Temps:          0       0       0       0
 11860 ;;      Totals:         1       0       0       0
 11861 ;;Total ram usage:        1 bytes
 11862 ;; Hardware stack levels used:    1
 11863 ;; This function calls:
 11864 ;;		Nothing
 11865 ;; This function is called by:
 11866 ;;		_USBCtrlEPAllowDataStage
 11867 ;;		_USBCtrlTrfInHandler
 11868 ;; This function uses a non-reentrant model
 11869 ;;
 11870                           
 11871                           	psect	text60
 11872  001AC6                     __ptext60:
 11873                           	opt stack 0
 11874  001AC6                     _USBCtrlTrfTxService:
 11875                           	opt stack 19
 11876                           
 11877                           ;usb_device.c: 1773: uint8_t byteToSend;
 11878                           ;usb_device.c: 1777: byteToSend = 8;
 11879                           
 11880                           ;incstack = 0
 11881  001AC6  0E08               	movlw	8
 11882  001AC8  6E01               	movwf	USBCtrlTrfTxService@byteToSend,c
 11883                           
 11884                           ;usb_device.c: 1778: if(inPipes[0].wCount.Val < (uint8_t)8)
 11885  001ACA  0100               	movlb	0	; () banked
 11886  001ACC  5177               	movf	(_inPipes+5)& (0+255),w,b	;volatile
 11887  001ACE  E111               	bnz	i2l3342
 11888  001AD0  0E08               	movlw	8
 11889  001AD2  0100               	movlb	0	; () banked
 11890  001AD4  5D76               	subwf	(_inPipes+4)& (0+255),w,b	;volatile
 11891  001AD6  B0D8               	btfsc	status,0,c
 11892  001AD8  D00C               	goto	i2l3342
 11893                           
 11894                           ; BSR set to: 0
 11895                           ;usb_device.c: 1779: {
 11896                           ;usb_device.c: 1780: byteToSend = inPipes[0].wCount.Val;
 11897  001ADA  C076  F001         	movff	_inPipes+4,USBCtrlTrfTxService@byteToSend	;volatile
 11898                           
 11899                           ; BSR set to: 0
 11900                           ;usb_device.c: 1787: if(shortPacketStatus == 0)
 11901  001ADE  5048               	movf	_shortPacketStatus,w,c	;volatile
 11902  001AE0  A4D8               	btfss	status,2,c
 11903  001AE2  D002               	goto	i2l3338
 11904                           
 11905                           ; BSR set to: 0
 11906                           ;usb_device.c: 1788: {
 11907                           ;usb_device.c: 1789: shortPacketStatus = 1;
 11908  001AE4  0E01               	movlw	1
 11909  001AE6  D004               	goto	L17
 11910  001AE8                     i2l3338:
 11911                           
 11912                           ; BSR set to: 0
 11913                           ;usb_device.c: 1791: else if(shortPacketStatus == 1)
 11914  001AE8  0448               	decf	_shortPacketStatus,w,c	;volatile
 11915  001AEA  A4D8               	btfss	status,2,c
 11916  001AEC  D002               	goto	i2l3342
 11917                           
 11918                           ; BSR set to: 0
 11919                           ;usb_device.c: 1792: {
 11920                           ;usb_device.c: 1793: shortPacketStatus = 2;
 11921  001AEE  0E02               	movlw	2
 11922  001AF0                     L17:
 11923  001AF0  6E48               	movwf	_shortPacketStatus,c	;volatile
 11924  001AF2                     i2l3342:
 11925                           
 11926                           ; BSR set to: 0
 11927                           ;usb_device.c: 1794: }
 11928                           ;usb_device.c: 1795: }
 11929                           ;usb_device.c: 1799: inPipes[0].wCount.Val -= byteToSend;
 11930  001AF2  5001               	movf	USBCtrlTrfTxService@byteToSend,w,c
 11931  001AF4  0100               	movlb	0	; () banked
 11932  001AF6  5F76               	subwf	(_inPipes+4)& (0+255),f,b	;volatile
 11933  001AF8  0E00               	movlw	0
 11934  001AFA  5B77               	subwfb	(_inPipes+5)& (0+255),f,b	;volatile
 11935                           
 11936                           ; BSR set to: 0
 11937                           ;usb_device.c: 1804: pBDTEntryIn[0]->CNT = byteToSend;
 11938  001AFC  0100               	movlb	0	; () banked
 11939  001AFE  EE20 F001          	lfsr	2,1
 11940  001B02  5178               	movf	_pBDTEntryIn& (0+255),w,b
 11941  001B04  26D9               	addwf	fsr2l,f,c
 11942  001B06  5179               	movf	(_pBDTEntryIn+1)& (0+255),w,b
 11943  001B08  22DA               	addwfc	fsr2h,f,c
 11944  001B0A  C001  FFDF         	movff	USBCtrlTrfTxService@byteToSend,indf2
 11945                           
 11946                           ; BSR set to: 0
 11947                           ;usb_device.c: 1808: pDst = (volatile uint8_t*)CtrlTrfData;
 11948  001B0E  0E38               	movlw	56
 11949  001B10  6E33               	movwf	_pDst,c
 11950  001B12  0E02               	movlw	2
 11951  001B14  6E34               	movwf	_pDst+1,c
 11952                           
 11953                           ; BSR set to: 0
 11954                           ;usb_device.c: 1809: if(inPipes[0].info.bits.ctrl_trf_mem == 0x00)
 11955  001B16  0100               	movlb	0	; () banked
 11956  001B18  A175               	btfss	(_inPipes+3)& (0+255),0,b	;volatile
 11957  001B1A  D01C               	goto	i2l3360
 11958  001B1C  D03A               	goto	i2l3370
 11959  001B1E                     i2l3352:
 11960                           
 11961                           ; BSR set to: 0
 11962                           ;usb_device.c: 1812: {
 11963                           ;usb_device.c: 1813: *pDst++ = *inPipes[0].pSrc.bRom++;
 11964  001B1E  C072  FFF6         	movff	_inPipes,tblptrl	;volatile
 11965  001B22  C073  FFF7         	movff	_inPipes+1,tblptrh	;volatile
 11966  001B26  6AF8               	clrf	tblptru,c
 11967  001B28  C033  FFD9         	movff	_pDst,fsr2l
 11968  001B2C  C034  FFDA         	movff	_pDst+1,fsr2h
 11969  001B30  0E02               	movlw	(high __ramtop+-1)
 11970  001B32  64F7               	cpfsgt	tblptrh,c
 11971  001B34  D003               	bra	i2u221_47
 11972  001B36  0008               	tblrd		*
 11973  001B38  50F5               	movf	tablat,w,c
 11974  001B3A  D005               	bra	i2u221_40
 11975  001B3C                     i2u221_47:
 11976  001B3C  CFF6 FFE1          	movff	tblptrl,fsr1l
 11977  001B40  CFF7 FFE2          	movff	tblptrh,fsr1h
 11978  001B44  50E7               	movf	indf1,w,c
 11979  001B46                     i2u221_40:
 11980  001B46  6EDF               	movwf	indf2,c
 11981  001B48  0100               	movlb	0	; () banked
 11982  001B4A  4B72               	infsnz	_inPipes& (0+255),f,b	;volatile
 11983  001B4C  2B73               	incf	(_inPipes+1)& (0+255),f,b	;volatile
 11984                           
 11985                           ; BSR set to: 0
 11986  001B4E  4A33               	infsnz	_pDst,f,c
 11987  001B50  2A34               	incf	_pDst+1,f,c
 11988                           
 11989                           ; BSR set to: 0
 11990                           ;usb_device.c: 1814: byteToSend--;
 11991  001B52  0601               	decf	USBCtrlTrfTxService@byteToSend,f,c
 11992  001B54                     i2l3360:
 11993                           
 11994                           ; BSR set to: 0
 11995  001B54  5001               	movf	USBCtrlTrfTxService@byteToSend,w,c
 11996  001B56  B4D8               	btfsc	status,2,c
 11997  001B58  0012               	return	
 11998  001B5A  D7E1               	goto	i2l3352
 11999  001B5C                     i2l3362:
 12000                           
 12001                           ; BSR set to: 0
 12002                           ;usb_device.c: 1820: {
 12003                           ;usb_device.c: 1821: *pDst++ = *inPipes[0].pSrc.bRam++;
 12004  001B5C  C072  FFF6         	movff	_inPipes,tblptrl	;volatile
 12005  001B60  C073  FFF7         	movff	_inPipes+1,tblptrh	;volatile
 12006  001B64  6AF8               	clrf	tblptru,c
 12007  001B66  C033  FFD9         	movff	_pDst,fsr2l
 12008  001B6A  C034  FFDA         	movff	_pDst+1,fsr2h
 12009  001B6E  0E02               	movlw	(high __ramtop+-1)
 12010  001B70  64F7               	cpfsgt	tblptrh,c
 12011  001B72  D003               	bra	i2u223_47
 12012  001B74  0008               	tblrd		*
 12013  001B76  50F5               	movf	tablat,w,c
 12014  001B78  D005               	bra	i2u223_40
 12015  001B7A                     i2u223_47:
 12016  001B7A  CFF6 FFE1          	movff	tblptrl,fsr1l
 12017  001B7E  CFF7 FFE2          	movff	tblptrh,fsr1h
 12018  001B82  50E7               	movf	indf1,w,c
 12019  001B84                     i2u223_40:
 12020  001B84  6EDF               	movwf	indf2,c
 12021  001B86  0100               	movlb	0	; () banked
 12022  001B88  4B72               	infsnz	_inPipes& (0+255),f,b	;volatile
 12023  001B8A  2B73               	incf	(_inPipes+1)& (0+255),f,b	;volatile
 12024                           
 12025                           ; BSR set to: 0
 12026  001B8C  4A33               	infsnz	_pDst,f,c
 12027  001B8E  2A34               	incf	_pDst+1,f,c
 12028                           
 12029                           ; BSR set to: 0
 12030                           ;usb_device.c: 1822: byteToSend--;
 12031  001B90  0601               	decf	USBCtrlTrfTxService@byteToSend,f,c
 12032  001B92                     i2l3370:
 12033                           
 12034                           ; BSR set to: 0
 12035  001B92  5001               	movf	USBCtrlTrfTxService@byteToSend,w,c
 12036  001B94  B4D8               	btfsc	status,2,c
 12037  001B96  0012               	return	
 12038  001B98  D7E1               	goto	i2l3362
 12039  001B9A                     __end_of_USBCtrlTrfTxService:
 12040                           	opt stack 0
 12041                           pclatu	equ	0xFFB
 12042                           pclath	equ	0xFFA
 12043                           tblptru	equ	0xFF8
 12044                           tblptrh	equ	0xFF7
 12045                           tblptrl	equ	0xFF6
 12046                           tablat	equ	0xFF5
 12047                           prodh	equ	0xFF4
 12048                           prodl	equ	0xFF3
 12049                           intcon	equ	0xFF2
 12050                           postinc0	equ	0xFEE
 12051                           fsr0h	equ	0xFEA
 12052                           fsr0l	equ	0xFE9
 12053                           wreg	equ	0xFE8
 12054                           indf1	equ	0xFE7
 12055                           postdec1	equ	0xFE5
 12056                           fsr1h	equ	0xFE2
 12057                           fsr1l	equ	0xFE1
 12058                           indf2	equ	0xFDF
 12059                           postinc2	equ	0xFDE
 12060                           postdec2	equ	0xFDD
 12061                           plusw2	equ	0xFDB
 12062                           fsr2h	equ	0xFDA
 12063                           fsr2l	equ	0xFD9
 12064                           status	equ	0xFD8
 12065                           pclatu	equ	0xFFB
 12066                           pclath	equ	0xFFA
 12067                           tblptru	equ	0xFF8
 12068                           tblptrh	equ	0xFF7
 12069                           tblptrl	equ	0xFF6
 12070                           tablat	equ	0xFF5
 12071                           prodh	equ	0xFF4
 12072                           prodl	equ	0xFF3
 12073                           intcon	equ	0xFF2
 12074                           postinc0	equ	0xFEE
 12075                           fsr0h	equ	0xFEA
 12076                           fsr0l	equ	0xFE9
 12077                           wreg	equ	0xFE8
 12078                           indf1	equ	0xFE7
 12079                           postdec1	equ	0xFE5
 12080                           fsr1h	equ	0xFE2
 12081                           fsr1l	equ	0xFE1
 12082                           indf2	equ	0xFDF
 12083                           postinc2	equ	0xFDE
 12084                           postdec2	equ	0xFDD
 12085                           plusw2	equ	0xFDB
 12086                           fsr2h	equ	0xFDA
 12087                           fsr2l	equ	0xFD9
 12088                           status	equ	0xFD8
 12089                           
 12090                           	psect	rparam
 12091  0000                     pclatu	equ	0xFFB
 12092                           pclath	equ	0xFFA
 12093                           tblptru	equ	0xFF8
 12094                           tblptrh	equ	0xFF7
 12095                           tblptrl	equ	0xFF6
 12096                           tablat	equ	0xFF5
 12097                           prodh	equ	0xFF4
 12098                           prodl	equ	0xFF3
 12099                           intcon	equ	0xFF2
 12100                           postinc0	equ	0xFEE
 12101                           fsr0h	equ	0xFEA
 12102                           fsr0l	equ	0xFE9
 12103                           wreg	equ	0xFE8
 12104                           indf1	equ	0xFE7
 12105                           postdec1	equ	0xFE5
 12106                           fsr1h	equ	0xFE2
 12107                           fsr1l	equ	0xFE1
 12108                           indf2	equ	0xFDF
 12109                           postinc2	equ	0xFDE
 12110                           postdec2	equ	0xFDD
 12111                           plusw2	equ	0xFDB
 12112                           fsr2h	equ	0xFDA
 12113                           fsr2l	equ	0xFD9
 12114                           status	equ	0xFD8
 12115                           
 12116                           	psect	temp
 12117  000054                     btemp:
 12118                           	opt stack 0
 12119  000054                     	ds	1
 12120  0000                     int$flags	set	btemp
 12121                           pclatu	equ	0xFFB
 12122                           pclath	equ	0xFFA
 12123                           tblptru	equ	0xFF8
 12124                           tblptrh	equ	0xFF7
 12125                           tblptrl	equ	0xFF6
 12126                           tablat	equ	0xFF5
 12127                           prodh	equ	0xFF4
 12128                           prodl	equ	0xFF3
 12129                           intcon	equ	0xFF2
 12130                           postinc0	equ	0xFEE
 12131                           fsr0h	equ	0xFEA
 12132                           fsr0l	equ	0xFE9
 12133                           wreg	equ	0xFE8
 12134                           indf1	equ	0xFE7
 12135                           postdec1	equ	0xFE5
 12136                           fsr1h	equ	0xFE2
 12137                           fsr1l	equ	0xFE1
 12138                           indf2	equ	0xFDF
 12139                           postinc2	equ	0xFDE
 12140                           postdec2	equ	0xFDD
 12141                           plusw2	equ	0xFDB
 12142                           fsr2h	equ	0xFDA
 12143                           fsr2l	equ	0xFD9
 12144                           status	equ	0xFD8


Data Sizes:
    Strings     12
    Constant    201
    Data        18
    BSS         235
    Persistent  0
    Stack       0

Auto Spaces:
    Space          Size  Autos    Used
    COMRAM           94     42      83
    BANK0           160     38     122
    BANK1           256      0     128
    BANK2            64      0       0

Pointer List with Targets:

    USER_USB_CALLBACK_EVENT_HANDLER@pdata	PTR void  size(2) Largest target is 767
		 -> RAM(DATA[767]), USTATcopy(COMRAM[1]), USBActiveConfiguration(COMRAM[1]), NULL(NULL[0]), 
		 -> BDT(BIGRAMl[48]), 

    memset@p1	PTR void  size(2) Largest target is 48
		 -> USBAlternateInterface(COMRAM[2]), BDT(BIGRAMl[48]), UEP1(SFR[1]), 

    memset@p	PTR unsigned char  size(2) Largest target is 48
		 -> USBAlternateInterface(COMRAM[2]), BDT(BIGRAMl[48]), UEP1(SFR[1]), 

    memcpy@d1	PTR void  size(2) Largest target is 8
		 -> SetupPkt(BIGRAMh[8]), 

    memcpy@d	PTR unsigned char  size(2) Largest target is 8
		 -> SetupPkt(BIGRAMh[8]), 

    memcpy@s1	PTR const void  size(2) Largest target is 767
		 -> CtrlTrfData(BIGRAMh[8]), RAM(DATA[767]), SetupPkt(BIGRAMh[8]), 

    memcpy@s	PTR const unsigned char  size(2) Largest target is 767
		 -> CtrlTrfData(BIGRAMh[8]), RAM(DATA[767]), SetupPkt(BIGRAMh[8]), 

    putrsUSBUSART@data	PTR const unsigned char  size(2) Largest target is 18
		 -> STR_1(CODE[12]), buttonMessage(BANK0[18]), 

    putrsUSBUSART@pData	PTR const unsigned char  size(2) Largest target is 18
		 -> STR_1(CODE[12]), buttonMessage(BANK0[18]), 

    putUSBUSART@data	PTR unsigned char  size(2) Largest target is 64
		 -> writeBuffer(BANK1[64]), 

    getsUSBUSART@buffer	PTR unsigned char  size(2) Largest target is 64
		 -> readBuffer(BANK1[64]), 

    CDCDataInHandle	PTR void  size(2) Largest target is 767
		 -> RAM(DATA[767]), NULL(NULL[0]), BDT(BIGRAMl[48]), 

    CDCDataOutHandle	PTR void  size(2) Largest target is 767
		 -> RAM(DATA[767]), NULL(NULL[0]), BDT(BIGRAMl[48]), 

    pCDCDst.wRom	PTR const unsigned int  size(2) Largest target is 0

    pCDCDst.bRom	PTR const unsigned char  size(2) Largest target is 0

    pCDCDst.wRam	PTR unsigned int  size(2) Largest target is 0

    pCDCDst.bRam	PTR unsigned char  size(2) Largest target is 0

    S3143_POINTER$wRom	PTR const unsigned int  size(2) Largest target is 0

    pCDCSrc.wRom	PTR const unsigned int  size(2) Largest target is 0

    S3143_POINTER$bRom	PTR const unsigned char  size(2) Largest target is 0

    pCDCSrc.bRom	PTR const unsigned char  size(2) Largest target is 0

    S3143_POINTER$wRam	PTR unsigned int  size(2) Largest target is 0

    pCDCSrc.wRam	PTR unsigned int  size(2) Largest target is 0

    S3143_POINTER$bRam	PTR unsigned char  size(2) Largest target is 0

    pCDCSrc.bRam	PTR unsigned char  size(2) Largest target is 0

    USBStdFeatureReqHandler@pUEP	PTR unsigned char  size(2) Largest target is 1
		 -> UEP0(SFR[1]), 

    USBStdFeatureReqHandler@p	PTR struct __BDT size(2) Largest target is 767
		 -> RAM(DATA[767]), NULL(NULL[0]), BDT(BIGRAMl[48]), 

    sp__memcpy	PTR void  size(2) Largest target is 8
		 -> SetupPkt(BIGRAMh[8]), 

    USBStdGetStatusHandler@p	PTR struct __BDT size(2) Largest target is 767
		 -> RAM(DATA[767]), NULL(NULL[0]), BDT(BIGRAMl[48]), 

    pDst	PTR volatile unsigned char  size(2) Largest target is 8
		 -> CtrlTrfData(BIGRAMh[8]), NULL(NULL[0]), 

    USBConfigureEndpoint@handle	PTR volatile struct __BDT size(2) Largest target is 48
		 -> BDT(BIGRAMl[48]), 

    pBDTEntryEP0OutCurrent	PTR volatile struct __BDT size(2) Largest target is 48
		 -> NULL(NULL[0]), BDT(BIGRAMl[48]), 

    pBDTEntryEP0OutNext	PTR volatile struct __BDT size(2) Largest target is 767
		 -> RAM(DATA[767]), NULL(NULL[0]), BDT(BIGRAMl[48]), 

    USBTransferOnePacket@data	PTR unsigned char  size(2) Largest target is 64
		 -> cdc_data_tx(BIGRAMh[64]), cdc_data_rx(BIGRAMh[64]), NULL(NULL[0]), 

    sp__USBTransferOnePacket	PTR void  size(2) Largest target is 767
		 -> RAM(DATA[767]), NULL(NULL[0]), BDT(BIGRAMl[48]), 

    USBTransferOnePacket@handle	PTR volatile struct __BDT size(2) Largest target is 767
		 -> RAM(DATA[767]), NULL(NULL[0]), BDT(BIGRAMl[48]), 

    USBEnableEndpoint@p	PTR unsigned char  size(2) Largest target is 1
		 -> UEP0(SFR[1]), 

    pBDTEntryOut	PTR volatile struct __BDT[3] size(2) Largest target is 767
		 -> RAM(DATA[767]), NULL(NULL[0]), BDT(BIGRAMl[48]), 

    pBDTEntryIn	PTR volatile struct __BDT[3] size(2) Largest target is 767
		 -> RAM(DATA[767]), NULL(NULL[0]), BDT(BIGRAMl[48]), 

    S1461$pFunc	PTR FTN()void  size(2) Largest target is 1
		 -> Absolute function(), 

    outPipes.pFunc	PTR FTN()void  size(2) Largest target is 1
		 -> Absolute function(), 

    S1451$wRam	PTR unsigned int  size(2) Largest target is 0

    outPipes.pDst.wRam	PTR unsigned int  size(2) Largest target is 0

    S1451$bRam	PTR unsigned char  size(2) Largest target is 0

    outPipes.pDst.bRam	PTR unsigned char  size(2) Largest target is 0

    S1427$wRom	PTR const unsigned int  size(2) Largest target is 0

    inPipes.pSrc.wRom	PTR const unsigned int  size(2) Largest target is 0

    S1427$wRam	PTR unsigned int  size(2) Largest target is 0

    inPipes.pSrc.wRam	PTR unsigned int  size(2) Largest target is 0

    S1427$bRom	PTR const unsigned char  size(2) Largest target is 0

    inPipes.pSrc.bRom	PTR const unsigned char  size(2) Largest target is 0

    S1427$bRam	PTR unsigned char  size(2) Largest target is 0

    inPipes.pSrc.bRam	PTR unsigned char  size(2) Largest target is 0

    sp__memset	PTR void  size(2) Largest target is 48
		 -> USBAlternateInterface(COMRAM[2]), BDT(BIGRAMl[48]), UEP1(SFR[1]), 

    USB_SD_Ptr	const PTR const unsigned char [3] size(2) Largest target is 52
		 -> sd002(CODE[52]), sd001(CODE[52]), sd000(CODE[4]), 

    USB_CD_Ptr	const PTR const unsigned char [1] size(2) Largest target is 67
		 -> configDescriptor1(CODE[67]), 


Critical Paths under _main in COMRAM

    None.

Critical Paths under _SYS_InterruptHigh in COMRAM

    _SYS_InterruptHigh->_USBDeviceTasks
    _USBDeviceTasks->_USBCtrlEPService
    i2_USBDeviceInit->i2_memset
    _USBWakeFromSuspend->_USER_USB_CALLBACK_EVENT_HANDLER
    _USBSuspend->_USER_USB_CALLBACK_EVENT_HANDLER
    _USBCtrlEPAllowDataStage->_USBCtrlTrfTxService
    _USBCheckStdRequest->_USBStdFeatureReqHandler
    _USBStdSetCfgHandler->_USER_USB_CALLBACK_EVENT_HANDLER
    _USBStdFeatureReqHandler->_USER_USB_CALLBACK_EVENT_HANDLER
    i2_SYSTEM_Initialize->i2_BUTTON_Enable
    i2_SYSTEM_Initialize->i2_LED_Enable
    _CDCInitEP->_USBEnableEndpoint
    _USBEnableEndpoint->_USBConfigureEndpoint
    _APP_LEDUpdateUSBStatus->_LED_Off
    _APP_LEDUpdateUSBStatus->_LED_On
    _USBCtrlTrfOutHandler->_USBCtrlTrfRxService
    _USBCtrlTrfInHandler->_USBCtrlTrfTxService

Critical Paths under _main in BANK0

    _main->_APP_DeviceCDCBasicDemoTasks
    _USBDeviceInit->_memset
    _SYSTEM_Initialize->_BUTTON_Enable
    _SYSTEM_Initialize->_LED_Enable
    _APP_DeviceCDCBasicDemoTasks->_writeEepromByte
    _writeEepromByte->_generateWritePulses
    _readEepromByte->_generateWritePulses
    _enterICSP->_enterLowVoltageICSP
    _getsUSBUSART->_USBTransferOnePacket
    _CDCTxService->_USBTransferOnePacket

Critical Paths under _SYS_InterruptHigh in BANK0

    None.

Critical Paths under _main in BANK1

    None.

Critical Paths under _SYS_InterruptHigh in BANK1

    None.

Critical Paths under _main in BANK2

    None.

Critical Paths under _SYS_InterruptHigh in BANK2

    None.

Call Graph Tables:

 ---------------------------------------------------------------------------------
 (Depth) Function   	        Calls       Base Space   Used Autos Params    Refs
 ---------------------------------------------------------------------------------
 (0) _main                                                 2     2      0   25582
                                             36 BANK0      2     2      0
        _APP_DeviceCDCBasicDemoTasks
                  _SYSTEM_Initialize
                    _USBDeviceAttach
                      _USBDeviceInit
 ---------------------------------------------------------------------------------
 (1) _USBDeviceInit                                        1     1      0    1361
                                              8 BANK0      1     1      0
                             _memset
 ---------------------------------------------------------------------------------
 (2) _memset                                               8     2      6    1070
                                              0 BANK0      8     2      6
 ---------------------------------------------------------------------------------
 (1) _USBDeviceAttach                                      0     0      0       0
 ---------------------------------------------------------------------------------
 (1) _SYSTEM_Initialize                                    1     1      0      66
                                              1 BANK0      1     1      0
                      _BUTTON_Enable
                         _LED_Enable
 ---------------------------------------------------------------------------------
 (2) _LED_Enable                                           1     1      0      22
                                              0 BANK0      1     1      0
 ---------------------------------------------------------------------------------
 (2) _BUTTON_Enable                                        1     1      0      22
                                              0 BANK0      1     1      0
 ---------------------------------------------------------------------------------
 (1) _APP_DeviceCDCBasicDemoTasks                         14    14      0   24155
                                             22 BANK0     14    14      0
                   _BUTTON_IsPressed
                       _CDCTxService
                       _getsUSBUSART
                        _putUSBUSART
                      _putrsUSBUSART
                     _readEepromByte
                    _writeEepromByte
 ---------------------------------------------------------------------------------
 (2) _writeEepromByte                                     10     5      5    9429
                                             12 BANK0     10     5      5
                          _enterICSP
                           _exitICSP
                 _generateReadPulses
                _generateWritePulses
 ---------------------------------------------------------------------------------
 (2) _readEepromByte                                       6     2      4    9216
                                             12 BANK0      6     2      4
                          _enterICSP
                           _exitICSP
                 _generateReadPulses
                _generateWritePulses
 ---------------------------------------------------------------------------------
 (3) _generateWritePulses                                 12     6      6    8502
                                              0 BANK0     12     6      6
 ---------------------------------------------------------------------------------
 (3) _generateReadPulses                                   9     7      2     505
                                              0 BANK0      9     7      2
 ---------------------------------------------------------------------------------
 (3) _exitICSP                                             0     0      0       0
                _exitHighVoltageICSP
                 _exitLowVoltageICSP
 ---------------------------------------------------------------------------------
 (4) _exitLowVoltageICSP                                   0     0      0       0
                       _setTrisToOut
 ---------------------------------------------------------------------------------
 (4) _exitHighVoltageICSP                                  0     0      0       0
 ---------------------------------------------------------------------------------
 (3) _enterICSP                                            0     0      0       0
               _enterHighVoltageICSP
                _enterLowVoltageICSP
 ---------------------------------------------------------------------------------
 (4) _enterLowVoltageICSP                                  1     1      0       0
                                              0 BANK0      1     1      0
                       _setTrisToOut
 ---------------------------------------------------------------------------------
 (5) _setTrisToOut                                         0     0      0       0
 ---------------------------------------------------------------------------------
 (4) _enterHighVoltageICSP                                 0     0      0       0
 ---------------------------------------------------------------------------------
 (2) _putrsUSBUSART                                        7     5      2     372
                                              0 BANK0      7     5      2
 ---------------------------------------------------------------------------------
 (2) _putUSBUSART                                          3     0      3     270
                                              0 BANK0      3     0      3
 ---------------------------------------------------------------------------------
 (2) _getsUSBUSART                                         4     1      3    2292
                                             11 BANK0      4     1      3
               _USBTransferOnePacket
 ---------------------------------------------------------------------------------
 (2) _CDCTxService                                         2     2      0    2189
                                             11 BANK0      2     2      0
               _USBTransferOnePacket
 ---------------------------------------------------------------------------------
 (3) _USBTransferOnePacket                                11     7      4    1988
                                              0 BANK0     11     7      4
 ---------------------------------------------------------------------------------
 (2) _BUTTON_IsPressed                                     1     1      0      31
                                              0 BANK0      1     1      0
 ---------------------------------------------------------------------------------
 Estimated maximum stack depth 5
 ---------------------------------------------------------------------------------
 (Depth) Function   	        Calls       Base Space   Used Autos Params    Refs
 ---------------------------------------------------------------------------------
 (6) _SYS_InterruptHigh                                   14    14      0   30325
                                             28 COMRAM    14    14      0
                     _USBDeviceTasks
 ---------------------------------------------------------------------------------
 (7) _USBDeviceTasks                                       1     1      0   30325
                                             27 COMRAM     1     1      0
          _USBCtrlEPAllowStatusStage
                   _USBCtrlEPService
      _USBIncrement1msInternalTimers
                    _USBStallHandler
                         _USBSuspend
                 _USBWakeFromSuspend
    _USER_USB_CALLBACK_EVENT_HANDLER
                    i2_USBDeviceInit
 ---------------------------------------------------------------------------------
 (8) i2_USBDeviceInit                                      1     1      0     610
                                              8 COMRAM     1     1      0
                           i2_memset
 ---------------------------------------------------------------------------------
 (8) _USBWakeFromSuspend                                   0     0      0    3989
    _USER_USB_CALLBACK_EVENT_HANDLER
 ---------------------------------------------------------------------------------
 (8) _USBSuspend                                           0     0      0    3989
    _USER_USB_CALLBACK_EVENT_HANDLER
 ---------------------------------------------------------------------------------
 (8) _USBStallHandler                                      1     1      0       0
                                              0 COMRAM     1     1      0
 ---------------------------------------------------------------------------------
 (8) _USBIncrement1msInternalTimers                        0     0      0       0
 ---------------------------------------------------------------------------------
 (8) _USBCtrlEPService                                     1     1      0   17702
                                             26 COMRAM     1     1      0
                _USBCtrlTrfInHandler
               _USBCtrlTrfOutHandler
             _USBCtrlTrfSetupHandler
                             _memcpy
 ---------------------------------------------------------------------------------
 (9) _memcpy                                              11     5      6     410
                                              0 COMRAM    11     5      6
 ---------------------------------------------------------------------------------
 (9) _USBCtrlTrfSetupHandler                               0     0      0   17063
                 _USBCheckStdRequest
           _USBCtrlEPServiceComplete
    _USER_USB_CALLBACK_EVENT_HANDLER
 ---------------------------------------------------------------------------------
 (10) _USBCtrlEPServiceComplete                            0     0      0      92
            _USBCtrlEPAllowDataStage
          _USBCtrlEPAllowStatusStage
 ---------------------------------------------------------------------------------
 (11) _USBCtrlEPAllowDataStage                             0     0      0      92
                _USBCtrlTrfTxService
 ---------------------------------------------------------------------------------
 (10) _USBCheckStdRequest                                  0     0      0   12982
            _USBStdFeatureReqHandler
                _USBStdGetDscHandler
             _USBStdGetStatusHandler
                _USBStdSetCfgHandler
    _USER_USB_CALLBACK_EVENT_HANDLER
 ---------------------------------------------------------------------------------
 (11) _USBStdSetCfgHandler                                 1     1      0    4487
                                             20 COMRAM     1     1      0
    _USER_USB_CALLBACK_EVENT_HANDLER
                           i2_memset
 ---------------------------------------------------------------------------------
 (9) i2_memset                                             8     2      6     408
                                              0 COMRAM     8     2      6
 ---------------------------------------------------------------------------------
 (11) _USBStdGetStatusHandler                              3     3      0      46
                                              0 COMRAM     3     3      0
 ---------------------------------------------------------------------------------
 (11) _USBStdGetDscHandler                                 2     2      0       0
                                              0 COMRAM     2     2      0
 ---------------------------------------------------------------------------------
 (11) _USBStdFeatureReqHandler                             6     6      0    4460
                                             20 COMRAM     6     6      0
    _USER_USB_CALLBACK_EVENT_HANDLER
 ---------------------------------------------------------------------------------
 (8) _USER_USB_CALLBACK_EVENT_HANDLER                      8     2      6    3989
                                             12 COMRAM     8     2      6
   _APP_DeviceCDCBasicDemoInitialize
             _APP_LEDUpdateUSBStatus
                          _CDCInitEP
                 _USBCheckCDCRequest
                i2_SYSTEM_Initialize
 ---------------------------------------------------------------------------------
 (9) i2_SYSTEM_Initialize                                  1     1      0      66
                                              1 COMRAM     1     1      0
                    i2_BUTTON_Enable
                       i2_LED_Enable
 ---------------------------------------------------------------------------------
 (10) i2_LED_Enable                                        1     1      0      22
                                              0 COMRAM     1     1      0
 ---------------------------------------------------------------------------------
 (10) i2_BUTTON_Enable                                     1     1      0      22
                                              0 COMRAM     1     1      0
 ---------------------------------------------------------------------------------
 (9) _USBCheckCDCRequest                                   0     0      0       0
 ---------------------------------------------------------------------------------
 (9) _CDCInitEP                                            0     0      0    1187
                  _USBEnableEndpoint
             i2_USBTransferOnePacket
 ---------------------------------------------------------------------------------
 (10) i2_USBTransferOnePacket                             11     7      4     454
                                              0 COMRAM    11     7      4
 ---------------------------------------------------------------------------------
 (10) _USBEnableEndpoint                                   4     3      1     733
                                              8 COMRAM     4     3      1
               _USBConfigureEndpoint
 ---------------------------------------------------------------------------------
 (11) _USBConfigureEndpoint                                8     7      1     400
                                              0 COMRAM     8     7      1
 ---------------------------------------------------------------------------------
 (9) _APP_LEDUpdateUSBStatus                               0     0      0      44
                            _LED_Off
                             _LED_On
 ---------------------------------------------------------------------------------
 (10) _LED_On                                              1     1      0      22
                                              0 COMRAM     1     1      0
 ---------------------------------------------------------------------------------
 (10) _LED_Off                                             1     1      0      22
                                              0 COMRAM     1     1      0
 ---------------------------------------------------------------------------------
 (9) _APP_DeviceCDCBasicDemoInitialize                     0     0      0       0
 ---------------------------------------------------------------------------------
 (9) _USBCtrlTrfOutHandler                                 0     0      0     114
                _USBCtrlTrfRxService
 ---------------------------------------------------------------------------------
 (10) _USBCtrlTrfRxService                                 2     2      0     114
                                              0 COMRAM     2     2      0
          _USBCtrlEPAllowStatusStage
 ---------------------------------------------------------------------------------
 (11) _USBCtrlEPAllowStatusStage                           0     0      0       0
 ---------------------------------------------------------------------------------
 (9) _USBCtrlTrfInHandler                                  1     1      0     115
                                              1 COMRAM     1     1      0
                _USBCtrlTrfTxService
 ---------------------------------------------------------------------------------
 (12) _USBCtrlTrfTxService                                 1     1      0      92
                                              0 COMRAM     1     1      0
 ---------------------------------------------------------------------------------
 Estimated maximum stack depth 12
 ---------------------------------------------------------------------------------

 Call Graph Graphs:

 _main (ROOT)
   _APP_DeviceCDCBasicDemoTasks
     _BUTTON_IsPressed
     _CDCTxService
       _USBTransferOnePacket
     _getsUSBUSART
       _USBTransferOnePacket
     _putUSBUSART
     _putrsUSBUSART
     _readEepromByte
       _enterICSP
         _enterHighVoltageICSP
         _enterLowVoltageICSP
           _setTrisToOut
       _exitICSP
         _exitHighVoltageICSP
         _exitLowVoltageICSP
           _setTrisToOut
       _generateReadPulses
       _generateWritePulses
     _writeEepromByte
       _enterICSP
         _enterHighVoltageICSP
         _enterLowVoltageICSP
           _setTrisToOut
       _exitICSP
         _exitHighVoltageICSP
         _exitLowVoltageICSP
           _setTrisToOut
       _generateReadPulses
       _generateWritePulses
   _SYSTEM_Initialize
     _BUTTON_Enable
     _LED_Enable
   _USBDeviceAttach
   _USBDeviceInit
     _memset

 _SYS_InterruptHigh (ROOT)
   _USBDeviceTasks
     _USBCtrlEPAllowStatusStage
     _USBCtrlEPService
       _USBCtrlTrfInHandler
         _USBCtrlTrfTxService
       _USBCtrlTrfOutHandler
         _USBCtrlTrfRxService
           _USBCtrlEPAllowStatusStage
       _USBCtrlTrfSetupHandler
         _USBCheckStdRequest
           _USBStdFeatureReqHandler
             _USER_USB_CALLBACK_EVENT_HANDLER
               _APP_DeviceCDCBasicDemoInitialize
               _APP_LEDUpdateUSBStatus
                 _LED_Off
                 _LED_On
               _CDCInitEP
                 _USBEnableEndpoint
                   _USBConfigureEndpoint
                 i2_USBTransferOnePacket
               _USBCheckCDCRequest
               i2_SYSTEM_Initialize
                 i2_BUTTON_Enable
                 i2_LED_Enable
           _USBStdGetDscHandler
           _USBStdGetStatusHandler
           _USBStdSetCfgHandler
             _USER_USB_CALLBACK_EVENT_HANDLER
               _APP_DeviceCDCBasicDemoInitialize
               _APP_LEDUpdateUSBStatus
                 _LED_Off
                 _LED_On
               _CDCInitEP
                 _USBEnableEndpoint
                   _USBConfigureEndpoint
                 i2_USBTransferOnePacket
               _USBCheckCDCRequest
               i2_SYSTEM_Initialize
                 i2_BUTTON_Enable
                 i2_LED_Enable
             i2_memset
           _USER_USB_CALLBACK_EVENT_HANDLER
             _APP_DeviceCDCBasicDemoInitialize
             _APP_LEDUpdateUSBStatus
               _LED_Off
               _LED_On
             _CDCInitEP
               _USBEnableEndpoint
                 _USBConfigureEndpoint
               i2_USBTransferOnePacket
             _USBCheckCDCRequest
             i2_SYSTEM_Initialize
               i2_BUTTON_Enable
               i2_LED_Enable
         _USBCtrlEPServiceComplete
           _USBCtrlEPAllowDataStage
             _USBCtrlTrfTxService
           _USBCtrlEPAllowStatusStage
         _USER_USB_CALLBACK_EVENT_HANDLER
           _APP_DeviceCDCBasicDemoInitialize
           _APP_LEDUpdateUSBStatus
             _LED_Off
             _LED_On
           _CDCInitEP
             _USBEnableEndpoint
               _USBConfigureEndpoint
             i2_USBTransferOnePacket
           _USBCheckCDCRequest
           i2_SYSTEM_Initialize
             i2_BUTTON_Enable
             i2_LED_Enable
       _memcpy
     _USBIncrement1msInternalTimers
     _USBStallHandler
     _USBSuspend
       _USER_USB_CALLBACK_EVENT_HANDLER
         _APP_DeviceCDCBasicDemoInitialize
         _APP_LEDUpdateUSBStatus
           _LED_Off
           _LED_On
         _CDCInitEP
           _USBEnableEndpoint
             _USBConfigureEndpoint
           i2_USBTransferOnePacket
         _USBCheckCDCRequest
         i2_SYSTEM_Initialize
           i2_BUTTON_Enable
           i2_LED_Enable
     _USBWakeFromSuspend
       _USER_USB_CALLBACK_EVENT_HANDLER
         _APP_DeviceCDCBasicDemoInitialize
         _APP_LEDUpdateUSBStatus
           _LED_Off
           _LED_On
         _CDCInitEP
           _USBEnableEndpoint
             _USBConfigureEndpoint
           i2_USBTransferOnePacket
         _USBCheckCDCRequest
         i2_SYSTEM_Initialize
           i2_BUTTON_Enable
           i2_LED_Enable
     _USER_USB_CALLBACK_EVENT_HANDLER
       _APP_DeviceCDCBasicDemoInitialize
       _APP_LEDUpdateUSBStatus
         _LED_Off
         _LED_On
       _CDCInitEP
         _USBEnableEndpoint
           _USBConfigureEndpoint
         i2_USBTransferOnePacket
       _USBCheckCDCRequest
       i2_SYSTEM_Initialize
         i2_BUTTON_Enable
         i2_LED_Enable
     i2_USBDeviceInit
       i2_memset

 Address spaces:
Name               Size   Autos  Total    Cost      Usage
BIGRAMl            1FF      0       0      12        0.0%
EEDATA             100      0       0       0        0.0%
BITBANK1           100      0       0       8        0.0%
BANK1              100      0      80       6       50.0%
BITBANK0            A0      0       0       4        0.0%
BANK0               A0     26      7A       5       76.3%
BITCOMRAM           5E      0       0       0        0.0%
COMRAM              5E     2A      53       1       88.3%
BIGRAMh             40      0       0      11        0.0%
BITBANK2            40      0       0       9        0.0%
BANK2               40      0       0      10        0.0%
BITSFR_1             0      0       0     200        0.0%
SFR_1                0      0       0     200        0.0%
BITSFR               0      0       0     200        0.0%
SFR                  0      0       0     200        0.0%
STACK                0      0       0       2        0.0%
NULL                 0      0       0       0        0.0%
ABS                  0      0     14D       7        0.0%
DATA                 0      0     14D       3        0.0%
CODE                 0      0       0       0        0.0%


Microchip Technology PIC18 Macro Assembler V1.42 build -159332390 
Symbol Table                                                                                   Tue Jun 13 21:41:10 2017

                         ??_exitLowVoltageICSP 00A2                       generateWritePulses@i_413 00AC  
                     generateWritePulses@i_414 00AD                                     _USB_SD_Ptr 0301  
                                           l40 1638                                             l41 167A  
                                           l50 1710                                             l42 1668  
                                           l51 1712                                             l43 166A  
                                           l60 1C5E                                             l44 168E  
                                           l46 16BE                                             l55 1BB4  
                                           l47 16C0                                             l56 1BF6  
                                           l48 16E0                                             l72 08CA  
                                           l57 1BE4                                             l58 1BE6  
                                           l59 1C08                                    ?_LED_Enable 0001  
                                _USBDeviceInit 0D9C                             __size_of_CDCInitEP 0068  
                                 __CFG_CP0$OFF 000000                                   __CFG_CP1$OFF 000000  
                                  __CFG_LVP$ON 000000           USER_USB_CALLBACK_EVENT_HANDLER@event 000D  
         USER_USB_CALLBACK_EVENT_HANDLER@pdata 000F                                            l115 093E  
                                          l220 254C                                            l109 0904  
                                          l221 2550                                            l222 2554  
                                          l160 277E                                            l218 2548  
                  __end_of_USBStdGetDscHandler 119E                                            l457 25DC  
                                          l458 25DA                                            l397 0E10  
                                          l761 0B2E                                            l756 0AD2  
                                          _BDT 000200                                   __CFG_CPB$OFF 000000  
                                 __CFG_CPD$OFF 000000                                            _UIE 000F60  
                                          _UIR 000F62                         _APP_LEDUpdateUSBStatus 2264  
                                   _USBSuspend 2720                                   __CFG_BORV$30 000000  
                         USBStdSetCfgHandler@i 0015                                            prod 000FF3  
                                          wreg 000FE8                         writeEepromByte@Success 00B7  
                               _USBDeviceTasks 119E                                 _USBDeviceState 0099  
                                 __CFG_FOSC$XT 000000                                  _BUTTON_Enable 2868  
                        ??_USBCtrlTrfRxService 0001                         writeEepromByte@address 00AE  
                     __size_ofi2_USBDeviceInit 0154                                 ??_getsUSBUSART 00B0  
                     USBEnableEndpoint@options 0009                                __end_of_LED_Off 268A  
                                         l5020 1E1E                                           l5004 234A  
                   USBConfigureEndpoint@handle 0007                                           l5030 1E82  
                                         l5112 0BFA                                           l5104 0BDA  
                                         l5024 1E4A                                           l5114 0C00  
                                         l5106 0BE4                                           l5026 1E52  
                                         l5034 1EB4                                           l5050 27EC  
                                         l5116 0C24                                           l5060 0AC2  
                                         l5132 2694                                           l5212 0DF0  
                                         l5072 0B16                                           l5160 0968  
                                         l5128 2558                                           l5136 26A6  
                                         l5240 0E5C                                           l5224 0E1C  
                                         l5208 0DE6                                           l5066 0ADE  
                                         l5162 0992                                           l5154 0938  
                                         l5306 2592                                           l5236 0E52  
                                         l5086 0B5A                                           l5094 0B94  
                                         l5078 0B32                                           l5174 0A46  
                                         l5246 0EC2                                           l5096 0BA0  
                                         l4800 1684                                           l5168 09D0  
                                         l5176 0A6E                                           l5184 0A9C  
                                         l5192 27B6                                           l5178 0A72  
                                         l4812 16D0                                           l5188 27A8  
                                         l4814 16D6                                           l4842 1BFE  
                                         l4828 1BAA                                           l4870 1328  
                                         l4862 12F4                                           l4848 1C4E  
                                         l4882 13BA                                           l4786 162E  
                                         l4946 0820                                           l4980 278E  
                                         l4974 278A                                           l4958 08AA  
                                         l4992 22F4                                           l4996 2302  
                        ??i2_SYSTEM_Initialize 0002                                           STR_1 03CA  
                                         u4114 1BD4                                           u4034 16AE  
                                         u4115 1BCC                                           u4035 16A6  
                                         u4240 2786                                           u4074 1700  
                                         u4075 16F8                                           u4164 1C30  
                          _generateWritePulses 1624                                           u4165 1C28  
                                         u4430 0B82                                           u4280 2344  
                                         u4450 0BC8                                           u4437 0B78  
                                         u4287 233A                                           u4457 0BBE  
                                         u4677 25A4                                           u4687 08CE  
                        ??_USBCtrlTrfTxService 0001                                           u4697 2704  
                                         u3994 1658                                           u3995 1650  
                                         _UCFG 000F61                                           _UEP0 000F53  
                                         _UEP1 000F54                                           _UEIE 000F5B  
                                         _UCON 000F64                                           _UEIR 000F5F  
                              _CDCDataInHandle 0090         USBStdFeatureReqHandler@current_ep_data 0018  
                                         _pDst 0033                                           _main 257C  
                     ??i2_USBTransferOnePacket 0005                                           fsr0h 000FEA  
                                         fsr1h 000FE2                                           fsr2h 000FDA  
                                         fsr0l 000FE9                                           indf1 000FE7  
                                  _BaudRateGen 002B                                           indf2 000FDF  
                                         fsr1l 000FE1                                           fsr2l 000FD9  
                              _USBDeviceAttach 25B2                                           btemp 0054  
                                         prodh 000FF4                                           prodl 000FF3  
                                         start 0082                       __size_ofi2_BUTTON_Enable 000E  
                                __CFG_IESO$OFF 000000                     __end_of_USBCheckStdRequest 190A  
                       ??_USBCtrlTrfOutHandler 0003                                   ___param_bank 000000  
                    ??_USBStdFeatureReqHandler 0015                         __size_of_putrsUSBUSART 0080  
                     ??_USBStdGetStatusHandler 0001                           ?_generateWritePulses 00A2  
                               ?_USBDeviceInit 0001                                  __CFG_PLLEN$ON 000000  
                                  _writeBuffer 0100                                          ?_main 0001  
            __size_of_USBCtrlEPServiceComplete 00F4                                          _ANSEL 000F7E  
                       __end_of_USBDeviceTasks 12D6                      ?_USBCtrlEPServiceComplete 0001  
                                        i2l220 25F0                                          i2l221 25F4  
                                        i2l222 25F8                                          i2l218 25EC  
                                        i2l180 2626                                          i2l420 126C  
                                        i2l181 262A                                          i2l190 265C  
                                        i2l182 262E                                          i2l191 2660  
                                        i2l192 2664                                          i2l408 11CA  
                                        i2l178 2622                                          i2l418 125C  
                                        i2l419 12D2                                          i2l188 2658  
                                        i2l710 1D0C                                          i2l622 0402  
                                        i2l550 1EDE                                          i2l607 1826  
                                        i2l616 188C                                          i2l641 05E6  
                                        i2l545 1EC8                                          i2l482 179C  
                                        i2l708 1CC8                                          i2l548 1F56  
                                        i2l549 1ED8                                          i2l397 0F72  
                                        i2l558 24BE                                          i2l593 1AB6  
                                        _UADDR 000F5C                                 __CFG_BBSIZ$OFF 000000  
                                        _USTAT 000F63                     __end_of_generateReadPulses 1C6A  
                                __CFG_WRT0$OFF 000000             __size_of_USBCtrlEPAllowStatusStage 00C4  
                                __CFG_WRT1$OFF 000000                                 __CFG_EBTR0$OFF 000000  
                               __CFG_FCMEN$OFF 000000                                 ?_BUTTON_Enable 0001  
                               __CFG_EBTR1$OFF 000000                __end_of_USBCtrlEPAllowDataStage 20B8  
                                        _sd000 03C6                                          _sd001 0380  
                                        _sd002 034C                                  __CFG_WRTB$OFF 000000  
               ?_USBIncrement1msInternalTimers 0001                                  __CFG_WRTC$OFF 000000  
                                __CFG_WRTD$OFF 000000                                 __CFG_EBTRB$OFF 000000  
                                   i2memset@p1 0001                      __size_of_BUTTON_IsPressed 002A  
                            ??_writeEepromByte 00B3                                 __CFG_BOREN$OFF 000000  
                                        pclath 000FFA                                          tablat 000FF5  
                          __size_of_LED_Enable 003A                                          plusw2 000FDB  
                            __end_of_CDCInitEP 23CE                                          status 000FD8  
                             __end_ofi2_memset 2778                                putUSBUSART@data 00A2  
                 __size_of_USBStdSetCfgHandler 00E6                                 __CFG_MCLRE$OFF 000000  
                              __initialization 242A                                   __end_of_main 25B2  
                        _control_signal_bitmap 003B                          ??_generateWritePulses 00A8  
                          _exitHighVoltageICSP 28AC                      __size_of_USBCtrlEPService 0096  
                                       ??_main 00C6                                  __activetblptr 000002  
                              ?_USBDeviceTasks 0001                                    ?_USBSuspend 0001  
                                    ??_LED_Off 0001                                   _cdc_mem_type 0094  
                                _putrsUSBUSART 22E6                        __end_of_USBDeviceAttach 25E8  
                             _CDCDataOutHandle 0092                  generateWritePulses@payLoadLsb 00A6  
                generateWritePulses@payLoadMsb 00A4                                         _ANSELH 000F7F  
                              getsUSBUSART@len 00AF                         SYSTEM_Initialize@state 00A3  
                        __size_of_CDCTxService 0186                                         i2l3220 2292  
                                       i2l3212 2270                                         i2l3132 21B0  
                                       i2l3300 2802                                         i2l3142 2668  
                                       i2l3310 2202                                         i2l3232 22CA  
                                       i2l3224 22A8                                         i2l3240 22E0  
                                       i2l3216 2280                                         i2l3304 21E4  
                                       _LED_On 261E                                         i2l3154 2516  
                                       i2l3314 220C                                         i2l3306 21EA  
                                       i2l3148 2632                                         i2l3228 22B8  
                                       i2l3172 25FC                                         i2l3308 21F6  
                                       i2l3500 1176                                         i2l3342 1AF2  
                                       i2l3238 22D4                                         i2l3158 2524  
                                       i2l3318 2212                                         i2l3502 117E  
                                       i2l3430 2084                                 __CFG_WDTEN$OFF 000000  
                                       i2l3352 1B1E                                         i2l3360 1B54  
                                       i2l3272 1CEE                                         i2l3264 1CB6  
                                       i2l3256 1C96                                         i2l3280 1D16  
                                       i2l3600 05CC                                         i2l4240 26E6  
                                       i2l3362 1B5C                                         i2l3370 1B92  
                                       i2l3338 1AE8                                         i2l3186 1562  
                                       i2l3178 1538                                         i2l3506 1186  
                                       i2l3450 1954                                         i2l3426 2068  
                                       i2l4330 0F7E                                         i2l4314 0F4E  
                                       i2l3198 15E0                                         i2l3614 0648  
                                       i2l3518 1EFE                                         i2l3374 2756  
                                       i2l3446 194C                                         i2l4238 26E4  
                                       i2l4342 0FB2                                         i2l4318 0F56  
                                       i2l4510 1292                                         i2l4430 11B6  
                                       i2l3720 145E                                         i2l3296 27F4  
                                       i2l3616 0654                                         i2l3608 0602  
                                       i2l3560 047A                                         i2l3480 1074  
                                       i2l3528 1F3E                                         i2l3472 19CC  
                                       i2l3456 1980                                         i2l4352 1016  
                                       i2l3714 143A                                         i2l3546 03FE  
                                       i2l3378 2766                                         i2l4346 0FBA  
                                       i2l3396 1D82                                         i2l3732 14BC  
                                       i2l3572 04EC                                         i2l3492 111C  
                                       i2l3484 108C                                         i2l4276 24BA  
                                       i2l4516 12B2                                         i2l4452 11DE  
                                       i2l5350 222A                                         i2l3582 053E  
                                       i2l3566 04C6                                         i2l3494 1124  
                                       i2l3902 24D4                                         i2l3910 24F4  
                                       i2l4294 2138                                         i2l4518 12CE  
                                       i2l4438 11C2                                         i2l3736 14D6  
                                       i2l5352 225E                                         i2l3584 055A  
                                       i2l4296 213E                                         i2l4464 120C  
                                       i2l3770 1866                                         i2l3754 1832  
                                       i2l3666 1746                                         i2l4490 1250  
                                       i2l4482 122A                                         i2l4458 11E8  
                                       i2l3588 0574                                         i2l3780 18A8  
                                       i2l3756 1838                                         i2l4476 1220  
                                       i2l3950 2424                                         i2l3942 23DC  
                                       i2l3598 05C0                                         i2l3766 185A  
                                       i2l3758 183E                                         i2l3686 17C2  
                                       i2l3768 1860                                         i2l3784 18C6  
                                       i2l4496 1264                                         i2l3964 1A34  
                                       i2l3990 1AC0                                         i2l3966 1A3A  
                                       i2l3984 1A9C                                         i2l3978 1A7C  
                         ?_exitHighVoltageICSP 0001                                  CDCTxService@i 00AD  
                  __end_of_enterLowVoltageICSP 2720                       i2USBTransferOnePacket@ep 0009  
                            ??i2_USBDeviceInit 0009                __size_ofi2_USBTransferOnePacket 0102  
                            _shortPacketStatus 0048                                 __CFG_XINST$OFF 000000  
                              USBDeviceTasks@i 001C                    USBStdFeatureReqHandler@pUEP 0016  
                     USBTransferOnePacket@data 00A3                     USBCtrlTrfInHandler@lastDTS 0002  
                              ??_USBDeviceInit 00AA                                   ?_putUSBUSART 00A2  
                               __CFG_STVREN$ON 000000                           __end_of_getsUSBUSART 1EBA  
                             __end_of_exitICSP 28A6                              ??i2_BUTTON_Enable 0001  
                            _USBEnableEndpoint 2506                __size_of_USBStdGetStatusHandler 00BA  
                                       _memcpy 24C2                                  ?i2_LED_Enable 0001  
                                       _memset 268A                                         clear_0 2450  
                                       clear_1 245C                                         clear_2 2468  
                           ?_USBEnableEndpoint 0009                  __size_of_USBTransferOnePacket 0134  
                              ??_BUTTON_Enable 00A2                                   _CDCTxService 0AA2  
                                 __mediumconst 0000                                         tblptrh 000FF7  
                                       tblptrl 000FF6                                         tblptru 000FF8  
                               ?_putrsUSBUSART 00A2       APP_DeviceCDCBasicDemoTasks@eepromAddress 00BC  
                          ??_USBEnableEndpoint 000A                                    _CtrlTrfData 000238  
                              __CFG_HFOFST$OFF 000000                   ?_APP_DeviceCDCBasicDemoTasks 0001  
                        ??_exitHighVoltageICSP 00A2                           _controlTransferState 0047  
                            _SYSTEM_Initialize 27A2                                     __accesstop 0060  
                      __end_of__initialization 246E                             ?_SYSTEM_Initialize 0001  
                                ___rparam_used 000001                       __size_of_USBStallHandler 0046  
                          __size_of_USBSuspend 002C                        __size_of_readEepromByte 0174  
                               __pcstackCOMRAM 0001                      __end_of_USBEnableEndpoint 2542  
                                __end_of_sd000 03CA                                  __end_of_sd001 03B4  
                                __end_of_sd002 0380                                   __pidataBANK0 2856  
                          ??_SYSTEM_Initialize 00A3                                      LED_On@led 0001  
             __size_of_USBCtrlEPAllowDataStage 009E                                 ??i2_LED_Enable 0001  
                                 ??_LED_Enable 00A2                  __size_of_USBConfigureEndpoint 0094  
                  __end_of_USBCtrlTrfInHandler 1AC6                        ?_APP_LEDUpdateUSBStatus 0001  
                       i2_USBTransferOnePacket 1522                                __CFG_PCLKEN$OFF 000000  
                                   _cdc_notice 0060                                      ?i2_memset 0001  
                                   _cdc_rx_len 0096                                     _cdc_tx_len 0095  
                                _buttonMessage 00C8                       ??_USBCtrlTrfSetupHandler 001B  
                      _USBTicksSinceSuspendEnd 003C                               ?_USBDeviceAttach 0001  
                    __end_of_SYSTEM_Initialize 27CA                               _BUTTON_IsPressed 2778  
                       _USBStdGetStatusHandler 1EBA                             __size_of_enterICSP 0006  
                                _buttonPressed 0097                                     __pbssBANK0 0060  
                                   __pbssBANK1 0100                                        ?_LED_On 0001  
                __size_of_enterHighVoltageICSP 0002                  ??_APP_DeviceCDCBasicDemoTasks 00B8  
     __end_of_APP_DeviceCDCBasicDemoInitialize 2838      __size_of_APP_DeviceCDCBasicDemoInitialize 0024  
           ??_APP_DeviceCDCBasicDemoInitialize 0001              ?_APP_DeviceCDCBasicDemoInitialize 0001  
             _APP_DeviceCDCBasicDemoInitialize 2814                             __end_of_LED_Enable 257C  
                  __size_of_USBWakeFromSuspend 0032                                    _pBDTEntryIn 0078  
             __end_of_USBCtrlEPServiceComplete 1816                    __size_of_USBCheckCDCRequest 00D0  
                         USBCtrlTrfRxService@i 0001                    __size_of_exitLowVoltageICSP 000E  
                                LED_Enable@led 00A2                 __end_of_APP_LEDUpdateUSBStatus 22E6  
                                      ?_memcpy 0001                   APP_DeviceCDCBasicDemoTasks@i 00C5  
                                      ?_memset 00A2                                     _device_dsc 03B4  
                             _USBCtrlEPService 20B8                                     _ep_data_in 008D  
                              _writeEepromByte 067A                    __end_of_USBCtrlTrfRxService 1522  
                           _USBCheckStdRequest 1816                              _configDescriptor1 0309  
                        generateReadPulses@OUT 00A7                                ??_putrsUSBUSART 00A4  
                                      _LED_Off 2654                    __end_ofi2_SYSTEM_Initialize 2814  
                                   ??i2_memset 0007                    __end_of_USBCtrlTrfTxService 1B9A  
                          _USBStdSetCfgHandler 190A                                  ?_setTrisToOut 0001  
                              __CFG_USBDIV$OFF 000000                            ?_USBCheckStdRequest 0001  
                 __size_of_USBStdGetDscHandler 013C                                        _UIEbits 000F60  
                                      _UIRbits 000F62                      generateReadPulses@command 00A2  
                                    ?_exitICSP 0001                                __size_of_LED_On 0036  
                                _cdc_trf_state 0098                 APP_LEDUpdateUSBStatus@ledCount 0039  
                           _generateReadPulses 1B9A                                        _pCDCDst 0084  
                                      _pCDCSrc 0087                                __CFG_PWRTEN$OFF 000000  
                        __size_of_getsUSBUSART 00BC                                        __Hparam 0000  
              ??_USBIncrement1msInternalTimers 0001                           ?_USBStdSetCfgHandler 0001  
                                    _CDCInitEP 2366                                        __Lparam 0000  
                   __size_of_USBEnableEndpoint 003C                                     _readBuffer 0140  
                          ?_generateReadPulses 00A2                           ??_USBCheckStdRequest 001B  
                __size_of_USBCtrlTrfOutHandler 005C                               ??_USBDeviceTasks 001C  
                            ??_USBStallHandler 0001                              __end_of_enterICSP 28AC  
                                 __psmallconst 0300           __size_of_APP_DeviceCDCBasicDemoTasks 01A8  
                         __size_of_putUSBUSART 0026                                        __pcinit 242A  
                           getsUSBUSART@buffer 00AD                                __size_of_memcpy 0044  
                              __size_of_memset 0034                      __end_of_configDescriptor1 034C  
                                      __ramtop 0300                                        __ptext0 257C  
                                      __ptext1 0D9C                                        __ptext2 268A  
                                      __ptext3 25B2                                        __ptext4 27A2  
                                      __ptext5 2542                                        __ptext6 2868  
                                      __ptext7 08FA                                        __ptext8 067A  
                                      __ptext9 0C28                                        _inPipes 0072  
                  _USBDeferOUTDataStagePackets 003D                                   ??_USBSuspend 0015  
APP_DeviceCDCBasicDemoTasks@eepromAddress_1011 00C0                                 ??_setTrisToOut 00A2  
                              i2_USBDeviceInit 0F0E                               i2USBDeviceInit@i 0009  
                         ??_generateReadPulses 00A4                             __end_of_USB_CD_Ptr 0309  
                   __size_of_SYSTEM_Initialize 0028                        generateReadPulses@i_441 00AA  
              __size_of_USBCtrlTrfSetupHandler 00A6                           end_of_initialization 246E  
                                 _getsUSBUSART 1DFE                           __end_ofi2_LED_Enable 261E  
                           __end_of_USB_SD_Ptr 0307                                     ??_exitICSP 00A2  
                                      memcpy@d 0007                                        memcpy@n 0005  
                                      memcpy@s 0009                            _pBDTEntryEP0OutNext 0035  
                                      memset@c 00A4                                        memset@n 00A6  
                                      memset@p 00A8                                  __Lmediumconst 0000  
                              _USB1msTickCount 002F                _dummy_encapsulated_cmd_response 009A  
                              i2_BUTTON_Enable 2888                       ?_USBStdFeatureReqHandler 0001  
                  __end_of_generateWritePulses 1722                          ??_USBStdSetCfgHandler 0015  
                                   ?_CDCInitEP 0001                                 _readEepromByte 0C28  
                           __end_of_USBSuspend 274C                        _USBCtrlEPAllowDataStage 201A  
                           readEepromByte@Data 00B2                                        postdec1 000FE5  
                                      postdec2 000FDD                        __end_of_writeEepromByte 08FA  
                                      postinc0 000FEE                                        postinc2 000FDE  
                     _USBCtrlEPServiceComplete 1722                     _USBStatusStageEnabledFlag1 0040  
                   _USBStatusStageEnabledFlag2 003F                             USBEnableEndpoint@p 000A  
                                    _PORTAbits 000F80                                      _PORTCbits 000F82  
                                    _TRISBbits 000F93                                      _TRISCbits 000F94  
                           _BothEP0OutUOWNsSet 0043                      USBConfigureEndpoint@EPNum 0006  
                   ?_USBCtrlEPAllowStatusStage 0001            USER_USB_CALLBACK_EVENT_HANDLER@size 0011  
      APP_DeviceCDCBasicDemoTasks@numBytesRead 00C4                                      _USTATcopy 0052  
                 __end_of_USBTransferOnePacket 140A                                 __end_of_LED_On 2654  
                       __end_of_readEepromByte 0D9C                              putUSBUSART@length 00A4  
                 __size_of_enterLowVoltageICSP 0030                         _USBCtrlTrfSetupHandler 1F74  
                     __end_of_BUTTON_IsPressed 27A2                        ?i2_USBTransferOnePacket 0001  
                        __end_of_USBDeviceInit 0F0E          __end_of_USBIncrement1msInternalTimers 2856  
       __size_of_USBIncrement1msInternalTimers 001E                  _USBIncrement1msInternalTimers 2838  
                                   LED_Off@led 0001                        __end_ofi2_USBDeviceInit 1062  
                                    i2memset@c 0003                                      i2memset@n 0005  
                                    i2memset@p 0007                                 __end_of_memcpy 2506  
                           putrsUSBUSART@pData 00A6                                 __end_of_memset 26BE  
                            _USBBusIsSuspended 0045                            start_initialization 242A  
                  __end_of_exitHighVoltageICSP 28AE                        ?_USBStdGetStatusHandler 0001  
                     i2SYSTEM_Initialize@state 0002                          __end_of_BUTTON_Enable 287A  
                USBCtrlTrfRxService@byteToRead 0002                        __end_ofi2_BUTTON_Enable 2896  
                                  _cdc_data_rx 000280                                    _cdc_data_tx 000240  
                            __size_ofi2_memset 002C                   __end_of_USBConfigureEndpoint 21E2  
              __end_of_USBStdFeatureReqHandler 067A                               writeEepromByte@i 00B3  
                                     ??_LED_On 0001              __end_of_USBCtrlEPAllowStatusStage 1DFE  
                     __end_of_USBCtrlEPService 214E                                ?_readEepromByte 00AE  
                    ??_USBCtrlEPAllowDataStage 0002                                    ??_CDCInitEP 000D  
                               USBDeviceInit@i 00AA                         _pBDTEntryEP0OutCurrent 0037  
                         __end_of_setTrisToOut 28A0                        USBTransferOnePacket@dir 00A2  
                      USBTransferOnePacket@len 00A5                 __end_ofi2_USBTransferOnePacket 1624  
                             ?_writeEepromByte 00AE                            _USBStdGetDscHandler 1062  
                                  __pdataBANK0 00C8                   __end_of_enterHighVoltageICSP 28B0  
                                     ??_memcpy 0007                                       ??_memset 00A8  
                       BUTTON_IsPressed@button 00A2                         _USBActiveConfiguration 0053  
               __end_of_USBStdGetStatusHandler 1F74                            writeEepromByte@Data 00B5  
                                     ?_LED_Off 0001                                    __pbssCOMRAM 002B  
                          writeEepromByte@data 00B2                                  __pcstackBANK0 00A2  
                 __size_of_USBCtrlTrfInHandler 00D6                          __size_ofi2_LED_Enable 0036  
                         ?_USBStdGetDscHandler 0001                     __end_of_USBWakeFromSuspend 26F0  
                              _USBStallHandler 247C                                   _pBDTEntryOut 007E  
                   __end_of_USBCheckCDCRequest 1D3A                              __size_of_exitICSP 0006  
                     __size_of_USBDeviceAttach 0036                     __end_of_exitLowVoltageICSP 2888  
                        i2BUTTON_Enable@button 0001                                      __pintcode 0008  
                                 i2_LED_Enable 25E8                               ?i2_USBDeviceInit 0001  
                         _USBTransferOnePacket 12D6                                      _enterICSP 28A6  
                                  __smallconst 0300                          __end_of_putrsUSBUSART 2366  
                 __end_of_USBCtrlTrfOutHandler 242A                          ??_USBStdGetDscHandler 0001  
                                  _ep_data_out 008A                               ?i2_BUTTON_Enable 0001  
          __end_of_APP_DeviceCDCBasicDemoTasks 0AA2                    _APP_DeviceCDCBasicDemoTasks 08FA  
                 __size_of_USBCtrlTrfRxService 0118                  USBConfigureEndpoint@direction 0001  
                 __size_ofi2_SYSTEM_Initialize 0024                   __size_of_USBCtrlTrfTxService 00D4  
                                     _LATBbits 000F8A                                       _LATCbits 000F8B  
                   ??_USBCtrlEPServiceComplete 0002                                       _IPR2bits 000FA2  
                                     _PIE2bits 000FA0                                       i2u221_40 1B46  
                                     i2u221_47 1B3C                                       i2u223_40 1B84  
                                     i2u223_47 1B7A                                       i2u240_40 116A  
                                     i2u240_47 1160                                       i2u209_40 229E  
                                     i2u237_40 10E2                                       i2u237_47 10D8  
                                     i2u238_40 1116                                       i2u238_47 110C  
                                     _PIR2bits 000FA1                                       _RCONbits 000FD0  
                                ??_putUSBUSART 00A5                               __CFG_WDTPS$32768 000000  
                                     _UEP0bits 000F53                     _USBDeferINDataStagePackets 003E  
                  __size_of_USBCheckStdRequest 00F4                                       _UCONbits 000F64  
                         _USBConfigureEndpoint 214E                           generateWritePulses@i 00AB  
             __size_of_USBStdFeatureReqHandler 02A2                          ?_USBTransferOnePacket 00A2  
                                   ?_enterICSP 0001                                i2LED_Enable@led 0001  
                            _SYS_InterruptHigh 0008                                  ?_CDCTxService 0001  
                                 _RemoteWakeup 0046                                       i2_memset 274C  
                             __size_of_LED_Off 0036                             ?_SYS_InterruptHigh 0001  
                      __end_of_USBStallHandler 24C2                            _enterLowVoltageICSP 26F0  
                  __size_of_generateReadPulses 00D0                                      copy_data0 243E  
                            putrsUSBUSART@data 00A2                    ??_USBCtrlEPAllowStatusStage 0001  
                  __end_of_USBStdSetCfgHandler 19F0                           _enterHighVoltageICSP 28AE  
                          ??_SYS_InterruptHigh 001D                          __size_of_setTrisToOut 000A  
                           __end_of_device_dsc 03C6                          readEepromByte@address 00AE  
                     ??_APP_LEDUpdateUSBStatus 0002                        ?_USBCtrlTrfSetupHandler 0001  
                      USBStdGetStatusHandler@p 0002                                       __Hrparam 0000  
                                    memcpy@tmp 000B                                       __Lrparam 0000  
                       USBTransferOnePacket@ep 00AA                           ?_enterLowVoltageICSP 0001  
                                     _SetupPkt 000230                          ?_USBConfigureEndpoint 0001  
                            ??_USBDeviceAttach 00A2                              ?_BUTTON_IsPressed 0001  
                 __size_of_generateWritePulses 00FE                     generateWritePulses@command 00A2  
                    __end_of_SYS_InterruptHigh 0082                             ??_BUTTON_IsPressed 00A2  
                          __end_of_putUSBUSART 27F0                                    _line_coding 0049  
                               ??_CDCTxService 00AD                        __size_of_USBDeviceTasks 0138  
                                 _setTrisToOut 2896                                       __ptext10 1624  
                                     __ptext11 1B9A                                       __ptext20 27CA  
                                     __ptext12 28A0                                       __ptext21 1DFE  
                                     __ptext13 287A                                       __ptext30 247C  
                                     __ptext22 0AA2                                       __ptext14 28AC  
                                     __ptext31 2838                                       __ptext23 12D6  
                                     __ptext15 28A6                                       __ptext40 1EBA  
                                     __ptext32 20B8                                       __ptext24 2778  
                                     __ptext16 26F0                                       __ptext41 1062  
                                     __ptext33 24C2                                       __ptext17 2896  
                                     __ptext50 2506                                       __ptext42 03D8  
                                     __ptext34 1F74                                       __ptext26 119E  
                                     __ptext18 28AE                                       __ptext51 214E  
                                     __ptext43 21E2                                       __ptext35 1722  
                                     __ptext27 0F0E                                       __ptext19 22E6  
                                     __ptext60 1AC6                                       __ptext52 2264  
                                     __ptext44 27F0                                       __ptext36 201A  
                                     __ptext28 26BE                                       __ptext53 261E  
                                     __ptext45 25E8                                       __ptext37 1816  
                                     __ptext29 2720                                       __ptext54 2654  
                                     __ptext46 2888                                       __ptext38 190A  
                                     __ptext55 2814                                       __ptext47 1C6A  
                                     __ptext39 274C                                       __ptext56 23CE  
                                     __ptext48 2366                                       __ptext57 140A  
                                     __ptext49 1522                                       __ptext58 1D3A  
                                     __ptext59 19F0                            generateReadPulses@i 00A9  
                             ??_readEepromByte 00B2                          ?_enterHighVoltageICSP 0001  
                                     _exitICSP 28A0                 __end_of_USBCtrlTrfSetupHandler 201A  
                                __size_of_main 0036                              ?_USBCtrlEPService 0001  
                           ??_USBCtrlEPService 001B                            _USBCtrlTrfInHandler 19F0  
                        ??_enterLowVoltageICSP 00A2                            BUTTON_Enable@button 00A2  
                                     _outPipes 006A                           _USBCtrlTrfOutHandler 23CE  
                                     int$flags 0054                      _USBCtrlEPAllowStatusStage 1D3A  
                                   _LED_Enable 2542                         ??_USBTransferOnePacket 00A6  
                             putrsUSBUSART@len 00A8                                    ??_enterICSP 00A3  
                    _USBDeferStatusStagePacket 0041                       CDCTxService@byte_to_send 00AE  
                                   _INTCONbits 000FF2                           ?_USBCtrlTrfInHandler 0001  
                                     memcpy@d1 0001                                       memcpy@s1 0003  
                USBCtrlTrfTxService@byteToSend 0001                                       memset@p1 00A2  
                             ?_USBStallHandler 0001                       USBStdFeatureReqHandler@p 0019  
                                     intlevel2 0000                         __size_of_USBDeviceInit 0172  
                 __size_of_exitHighVoltageICSP 0002        __end_of_USER_USB_CALLBACK_EVENT_HANDLER 2264  
     __size_of_USER_USB_CALLBACK_EVENT_HANDLER 0082              ??_USER_USB_CALLBACK_EVENT_HANDLER 0013  
             ?_USER_USB_CALLBACK_EVENT_HANDLER 000D                _USER_USB_CALLBACK_EVENT_HANDLER 21E2  
                 i2USBTransferOnePacket@handle 000A                __size_of_APP_LEDUpdateUSBStatus 0082  
                   i2USBTransferOnePacket@data 0002                         ??_USBConfigureEndpoint 0002  
                        ?_USBCtrlTrfOutHandler 0001                         __size_of_BUTTON_Enable 0012  
                                  _putUSBUSART 27CA                           __CFG_CPUDIV$NOCLKDIV 000000  
                          _USBCtrlTrfRxService 140A                             _USBWakeFromSuspend 26BE  
                      _USBStdFeatureReqHandler 03D8                            i2_SYSTEM_Initialize 27F0  
                           _USBCheckCDCRequest 1C6A                            _USBCtrlTrfTxService 1AC6  
                   __size_of_SYS_InterruptHigh 007A                             _exitLowVoltageICSP 287A  
                          ?_USBWakeFromSuspend 0001                       __size_of_writeEepromByte 0280  
                        ??_USBCtrlTrfInHandler 0002                          _USBAlternateInterface 0050  
                          ?_USBCheckCDCRequest 0001                      i2USBTransferOnePacket@dir 0001  
                    i2USBTransferOnePacket@len 0004                            USBEnableEndpoint@ep 000C  
                              _endpoint_number 0044                            ?_exitLowVoltageICSP 0001  
                         ?_USBCtrlTrfRxService 0001                         ??_enterHighVoltageICSP 00A2  
                                ?_getsUSBUSART 00AD                           ?i2_SYSTEM_Initialize 0001  
                     ?_USBCtrlEPAllowDataStage 0001                           ?_USBCtrlTrfTxService 0001  
                 _USBStatusStageTimeoutCounter 0042                           ??_USBWakeFromSuspend 0015  
                   USBTransferOnePacket@handle 00AB                           __end_of_CDCTxService 0C28  
                         ??_USBCheckCDCRequest 0001                                     _USB_CD_Ptr 0307  
